TN:
SF:/workspace/xmake/ellalgo-xmake/src/ell_calc.cpp
FN:14,_ZN7EllCalc12calc_ll_coreEdd
FNDA:0,_ZN7EllCalc12calc_ll_coreEdd
FN:52,_ZN7EllCalc10calc_ll_ccEdd
FNDA:0,_ZN7EllCalc10calc_ll_ccEdd
FN:66,_ZN7EllCalc7calc_dcEd
FNDA:29,_ZN7EllCalc7calc_dcEd
FN:94,_ZN7EllCalc7calc_ccEd
FNDA:13,_ZN7EllCalc7calc_ccEd
DA:14,0
DA:15,0
DA:16,0
DA:17,0
DA:18,0
DA:20,0
DA:21,0
DA:22,0
DA:24,0
DA:26,0
DA:27,0
DA:29,0
DA:30,0
DA:31,0
DA:33,0
DA:34,0
DA:35,0
DA:36,0
DA:37,0
DA:38,0
DA:39,0
DA:40,0
DA:41,0
DA:42,0
DA:52,0
DA:53,0
DA:54,0
DA:55,0
DA:56,0
DA:57,0
DA:58,0
DA:66,29
DA:67,29
DA:69,29
DA:70,29
DA:71,2
DA:73,27
DA:74,13
DA:75,13
DA:77,14
DA:78,14
DA:79,0
DA:82,14
DA:83,14
DA:84,14
DA:85,14
DA:94,13
DA:96,13
DA:97,13
DA:98,13
DA:99,13
end_of_record
TN:
SF:/usr/include/c++/11/type_traits
FN:62,_ZNKSt17integral_constantIbLb0EEcvbEv
FNDA:0,_ZNKSt17integral_constantIbLb0EEcvbEv
FN:62,_ZNKSt17integral_constantIbLb1EEcvbEv
FNDA:0,_ZNKSt17integral_constantIbLb1EEcvbEv
FN:3315,_ZSt21is_constant_evaluatedv
FNDA:0,_ZSt21is_constant_evaluatedv
DA:62,0
DA:62,0
DA:3315,0
DA:3316,0
end_of_record
SF:/usr/include/c++/11/bits/stream_iterator.h
FN:214,_ZNSt16ostream_iteratorImcSt11char_traitsIcEEC2ERSoPKc
FNDA:0,_ZNSt16ostream_iteratorImcSt11char_traitsIcEEC2ERSoPKc
FN:218,_ZNSt16ostream_iteratorImcSt11char_traitsIcEEC2ERKS2_
FNDA:0,_ZNSt16ostream_iteratorImcSt11char_traitsIcEEC2ERKS2_
FN:228,_ZNSt16ostream_iteratorImcSt11char_traitsIcEEaSERKm
FNDA:0,_ZNSt16ostream_iteratorImcSt11char_traitsIcEEaSERKm
FN:240,_ZNSt16ostream_iteratorImcSt11char_traitsIcEEdeEv
FNDA:0,_ZNSt16ostream_iteratorImcSt11char_traitsIcEEdeEv
FN:244,_ZNSt16ostream_iteratorImcSt11char_traitsIcEEppEv
FNDA:0,_ZNSt16ostream_iteratorImcSt11char_traitsIcEEppEv
DA:214,0
DA:215,0
DA:218,0
DA:219,0
DA:228,0
DA:233,0
DA:234,0
DA:235,0
DA:236,0
DA:240,0
DA:241,0
DA:244,0
DA:245,0
end_of_record
SF:/usr/include/c++/11/bits/shared_ptr.h
FN:148,_ZNSt10shared_ptrIN2xt9xfunctionINS0_6detail5minusEJRKNS0_16xarray_containerINS0_7uvectorIdSaIdEEELNS0_11layout_typeE1ENS0_7svectorImLm4ESaImELb1EEENS0_22xtensor_expression_tagEEERKNS1_INS2_10multipliesEJNS0_7xscalarIdEESF_EEEEEEEC2Ev
FNDA:0,_ZNSt10shared_ptrIN2xt9xfunctionINS0_6detail5minusEJRKNS0_16xarray_containerINS0_7uvectorIdSaIdEEELNS0_11layout_typeE1ENS0_7svectorImLm4ESaImELb1EEENS0_22xtensor_expression_tagEEERKNS1_INS2_10multipliesEJNS0_7xscalarIdEESF_EEEEEEEC2Ev
FN:148,_ZNSt10shared_ptrIN2xt9xfunctionINS0_6detail10multipliesEJNS0_7xscalarIdEERKNS0_16xarray_containerINS0_7uvectorIdSaIdEEELNS0_11layout_typeE1ENS0_7svectorImLm4ESaImELb1EEENS0_22xtensor_expression_tagEEEEEEEC2Ev
FNDA:0,_ZNSt10shared_ptrIN2xt9xfunctionINS0_6detail10multipliesEJNS0_7xscalarIdEERKNS0_16xarray_containerINS0_7uvectorIdSaIdEEELNS0_11layout_typeE1ENS0_7svectorImLm4ESaImELb1EEENS0_22xtensor_expression_tagEEEEEEEC2Ev
FN:148,_ZNSt10shared_ptrIN2xt7xscalarIdEEEC2Ev
FNDA:0,_ZNSt10shared_ptrIN2xt7xscalarIdEEEC2Ev
FN:148,_ZNSt10shared_ptrIN2xt10xbroadcastINS0_7xscalarIdEESt5arrayImLm1EEEEEC2Ev
FNDA:0,_ZNSt10shared_ptrIN2xt10xbroadcastINS0_7xscalarIdEESt5arrayImLm1EEEEEC2Ev
FN:148,_ZNSt10shared_ptrIN2xt10xgeneratorINS0_6detail7fn_implINS2_6eye_fnIbEEEEbSt6vectorImSaImEEEEEC2Ev
FNDA:0,_ZNSt10shared_ptrIN2xt10xgeneratorINS0_6detail7fn_implINS2_6eye_fnIbEEEEbSt6vectorImSaImEEEEEC2Ev
FN:148,_ZNSt10shared_ptrIN2xt16xarray_containerINS0_7uvectorIdSaIdEEELNS0_11layout_typeE1ENS0_7svectorImLm4ESaImELb1EEENS0_22xtensor_expression_tagEEEEC2Ev
FNDA:0,_ZNSt10shared_ptrIN2xt16xarray_containerINS0_7uvectorIdSaIdEEELNS0_11layout_typeE1ENS0_7svectorImLm4ESaImELb1EEENS0_22xtensor_expression_tagEEEEC2Ev
FN:148,_ZNSt10shared_ptrIN2xt10xgeneratorINS0_6detail7fn_implINS2_7diag_fnIRNS0_16xarray_containerINS0_7uvectorIdSaIdEEELNS0_11layout_typeE1ENS0_7svectorImLm4ESaImELb1EEENS0_22xtensor_expression_tagEEEEEEEdSt5arrayImLm2EEEEEC2Ev
FNDA:0,_ZNSt10shared_ptrIN2xt10xgeneratorINS0_6detail7fn_implINS2_7diag_fnIRNS0_16xarray_containerINS0_7uvectorIdSaIdEEELNS0_11layout_typeE1ENS0_7svectorImLm4ESaImELb1EEENS0_22xtensor_expression_tagEEEEEEEdSt5arrayImLm2EEEEEC2Ev
FN:304,_ZNSt10shared_ptrIN2xt16xarray_containerINS0_7uvectorIdSaIdEEELNS0_11layout_typeE1ENS0_7svectorImLm4ESaImELb1EEENS0_22xtensor_expression_tagEEEEC2EOSB_
FNDA:0,_ZNSt10shared_ptrIN2xt16xarray_containerINS0_7uvectorIdSaIdEEELNS0_11layout_typeE1ENS0_7svectorImLm4ESaImELb1EEENS0_22xtensor_expression_tagEEEEC2EOSB_
FN:357,_ZNSt10shared_ptrIN2xt9xfunctionINS0_6detail5minusEJRKNS0_16xarray_containerINS0_7uvectorIdSaIdEEELNS0_11layout_typeE1ENS0_7svectorImLm4ESaImELb1EEENS0_22xtensor_expression_tagEEERKNS1_INS2_10multipliesEJNS0_7xscalarIdEESF_EEEEEEEC2EDn
FNDA:0,_ZNSt10shared_ptrIN2xt9xfunctionINS0_6detail5minusEJRKNS0_16xarray_containerINS0_7uvectorIdSaIdEEELNS0_11layout_typeE1ENS0_7svectorImLm4ESaImELb1EEENS0_22xtensor_expression_tagEEERKNS1_INS2_10multipliesEJNS0_7xscalarIdEESF_EEEEEEEC2EDn
FN:357,_ZNSt10shared_ptrIN2xt9xfunctionINS0_6detail10multipliesEJNS0_7xscalarIdEERKNS0_16xarray_containerINS0_7uvectorIdSaIdEEELNS0_11layout_typeE1ENS0_7svectorImLm4ESaImELb1EEENS0_22xtensor_expression_tagEEEEEEEC2EDn
FNDA:0,_ZNSt10shared_ptrIN2xt9xfunctionINS0_6detail10multipliesEJNS0_7xscalarIdEERKNS0_16xarray_containerINS0_7uvectorIdSaIdEEELNS0_11layout_typeE1ENS0_7svectorImLm4ESaImELb1EEENS0_22xtensor_expression_tagEEEEEEEC2EDn
FN:357,_ZNSt10shared_ptrIN2xt7xscalarIdEEEC2EDn
FNDA:0,_ZNSt10shared_ptrIN2xt7xscalarIdEEEC2EDn
FN:357,_ZNSt10shared_ptrIN2xt10xbroadcastINS0_7xscalarIdEESt5arrayImLm1EEEEEC2EDn
FNDA:0,_ZNSt10shared_ptrIN2xt10xbroadcastINS0_7xscalarIdEESt5arrayImLm1EEEEEC2EDn
FN:357,_ZNSt10shared_ptrIN2xt10xgeneratorINS0_6detail7fn_implINS2_6eye_fnIbEEEEbSt6vectorImSaImEEEEEC2EDn
FNDA:0,_ZNSt10shared_ptrIN2xt10xgeneratorINS0_6detail7fn_implINS2_6eye_fnIbEEEEbSt6vectorImSaImEEEEEC2EDn
FN:357,_ZNSt10shared_ptrIN2xt16xarray_containerINS0_7uvectorIdSaIdEEELNS0_11layout_typeE1ENS0_7svectorImLm4ESaImELb1EEENS0_22xtensor_expression_tagEEEEC2EDn
FNDA:0,_ZNSt10shared_ptrIN2xt16xarray_containerINS0_7uvectorIdSaIdEEELNS0_11layout_typeE1ENS0_7svectorImLm4ESaImELb1EEENS0_22xtensor_expression_tagEEEEC2EDn
FN:357,_ZNSt10shared_ptrIN2xt10xgeneratorINS0_6detail7fn_implINS2_7diag_fnIRNS0_16xarray_containerINS0_7uvectorIdSaIdEEELNS0_11layout_typeE1ENS0_7svectorImLm4ESaImELb1EEENS0_22xtensor_expression_tagEEEEEEEdSt5arrayImLm2EEEEEC2EDn
FNDA:0,_ZNSt10shared_ptrIN2xt10xgeneratorINS0_6detail7fn_implINS2_7diag_fnIRNS0_16xarray_containerINS0_7uvectorIdSaIdEEELNS0_11layout_typeE1ENS0_7svectorImLm4ESaImELb1EEENS0_22xtensor_expression_tagEEEEEEEdSt5arrayImLm2EEEEEC2EDn
FN:383,_ZNSt10shared_ptrIN2xt16xarray_containerINS0_7uvectorIdSaIdEEELNS0_11layout_typeE1ENS0_7svectorImLm4ESaImELb1EEENS0_22xtensor_expression_tagEEEEaSEOSB_
FNDA:0,_ZNSt10shared_ptrIN2xt16xarray_containerINS0_7uvectorIdSaIdEEELNS0_11layout_typeE1ENS0_7svectorImLm4ESaImELb1EEENS0_22xtensor_expression_tagEEEEaSEOSB_
DA:148,0
DA:148,0
DA:148,0
DA:148,0
DA:148,0
DA:148,0
DA:148,0
DA:304,0
DA:305,0
DA:357,0
DA:357,0
DA:357,0
DA:357,0
DA:357,0
DA:357,0
DA:357,0
DA:383,0
DA:385,0
DA:386,0
end_of_record
SF:/workspace/.xmake/packages/x/xtensor/0.24.3/7589bb6431db4fba90e4d138dda37226/include/xtensor/xexception.hpp
FN:62,_ZN2xt15broadcast_errorC2EPKc
FNDA:0,_ZN2xt15broadcast_errorC2EPKc
FN:95,_ZN2xt6detail19shape_error_messageINS_7svectorImLm4ESaImELb1EEES4_EENSt7__cxx1112basic_stringIcSt11char_traitsIcESaIcEEERKT_RKT0_
FNDA:0,_ZN2xt6detail19shape_error_messageINS_7svectorImLm4ESaImELb1EEES4_EENSt7__cxx1112basic_stringIcSt11char_traitsIcESaIcEEERKT_RKT0_
FN:95,_ZN2xt6detail19shape_error_messageISt5arrayImLm1EES2_ImLm0EEEENSt7__cxx1112basic_stringIcSt11char_traitsIcESaIcEEERKT_RKT0_
FNDA:0,_ZN2xt6detail19shape_error_messageISt5arrayImLm1EES2_ImLm0EEEENSt7__cxx1112basic_stringIcSt11char_traitsIcESaIcEEERKT_RKT0_
FN:123,_ZN2xt21throw_broadcast_errorINS_7svectorImLm4ESaImELb1EEES3_EEvRKT_RKT0_
FNDA:0,_ZN2xt21throw_broadcast_errorINS_7svectorImLm4ESaImELb1EEES3_EEvRKT_RKT0_
FN:123,_ZN2xt21throw_broadcast_errorISt5arrayImLm1EES1_ImLm0EEEEvRKT_RKT0_
FNDA:0,_ZN2xt21throw_broadcast_errorISt5arrayImLm1EES1_ImLm0EEEEvRKT_RKT0_
DA:62,0
DA:63,0
DA:65,0
DA:95,0
DA:97,0
DA:99,0
DA:101,0
DA:102,0
DA:104,0
DA:106,0
DA:107,0
DA:108,0
DA:110,0
DA:111,0
DA:95,0
DA:97,0
DA:99,0
DA:101,0
DA:102,0
DA:104,0
DA:106,0
DA:107,0
DA:108,0
DA:110,0
DA:111,0
DA:123,0
DA:125,0
DA:126,0
DA:127,0
DA:123,0
DA:125,0
DA:126,0
DA:127,0
end_of_record
SF:/usr/include/c++/11/bits/allocator.h
FN:144,_ZNSaIdEC2Ev
FNDA:0,_ZNSaIdEC2Ev
FN:144,_ZNSaIlEC2Ev
FNDA:0,_ZNSaIlEC2Ev
FN:144,_ZNSaImEC2Ev
FNDA:0,_ZNSaImEC2Ev
FN:147,_ZNSaIlEC2ERKS_
FNDA:0,_ZNSaIlEC2ERKS_
FN:147,_ZNSaImEC2ERKS_
FNDA:0,_ZNSaImEC2ERKS_
FN:147,_ZNSaIdEC2ERKS_
FNDA:0,_ZNSaIdEC2ERKS_
FN:162,_ZNSaIdED2Ev
FNDA:0,_ZNSaIdED2Ev
FN:162,_ZNSaIlED2Ev
FNDA:0,_ZNSaIlED2Ev
FN:162,_ZNSaImED2Ev
FNDA:0,_ZNSaImED2Ev
DA:144,0
DA:144,0
DA:144,0
DA:147,0
DA:148,0
DA:147,0
DA:148,0
DA:147,0
DA:148,0
DA:162,0
DA:162,0
DA:162,0
DA:170,0
DA:171,0
DA:173,0
DA:181,0
DA:183,0
DA:184,0
DA:187,0
end_of_record
SF:/workspace/.xmake/packages/x/xtensor/0.24.3/7589bb6431db4fba90e4d138dda37226/include/xtensor/xoperation.hpp
FN:108,_ZNK2xt6detail5minusclIRKddEEDaOT_OT0_
FNDA:0,_ZNK2xt6detail5minusclIRKddEEDaOT_OT0_
FN:109,_ZNK2xt6detail10multipliesclIRKdS4_EEDaOT_OT0_
FNDA:0,_ZNK2xt6detail10multipliesclIRKdS4_EEDaOT_OT0_
FN:198,_ZN2xt6detail14make_xfunctionINS0_5minusEJRNS_16xarray_containerINS_7uvectorIdSaIdEEELNS_11layout_typeE1ENS_7svectorImLm4ESaImELb1EEENS_22xtensor_expression_tagEEERKNS_9xfunctionINS0_10multipliesEJNS_7xscalarIdEERKSC_EEEEEEDaDpOT0_
FNDA:0,_ZN2xt6detail14make_xfunctionINS0_5minusEJRNS_16xarray_containerINS_7uvectorIdSaIdEEELNS_11layout_typeE1ENS_7svectorImLm4ESaImELb1EEENS_22xtensor_expression_tagEEERKNS_9xfunctionINS0_10multipliesEJNS_7xscalarIdEERKSC_EEEEEEDaDpOT0_
FN:198,_ZN2xt6detail14make_xfunctionINS0_10multipliesEJdRNS_16xarray_containerINS_7uvectorIdSaIdEEELNS_11layout_typeE1ENS_7svectorImLm4ESaImELb1EEENS_22xtensor_expression_tagEEEEEEDaDpOT0_
FNDA:0,_ZN2xt6detail14make_xfunctionINS0_10multipliesEJdRNS_16xarray_containerINS_7uvectorIdSaIdEEELNS_11layout_typeE1ENS_7svectorImLm4ESaImELb1EEENS_22xtensor_expression_tagEEEEEEDaDpOT0_
FN:286,_ZN2xtmiIRNS_16xarray_containerINS_7uvectorIdSaIdEEELNS_11layout_typeE1ENS_7svectorImLm4ESaImELb1EEENS_22xtensor_expression_tagEEERKNS_9xfunctionINS_6detail10multipliesEJNS_7xscalarIdEERKSA_EEEEENSt11enable_if_t4typeEOT_OT0_
FNDA:0,_ZN2xtmiIRNS_16xarray_containerINS_7uvectorIdSaIdEEELNS_11layout_typeE1ENS_7svectorImLm4ESaImELb1EEENS_22xtensor_expression_tagEEERKNS_9xfunctionINS_6detail10multipliesEJNS_7xscalarIdEERKSA_EEEEENSt11enable_if_t4typeEOT_OT0_
FN:303,_ZN2xtmlIdRNS_16xarray_containerINS_7uvectorIdSaIdEEELNS_11layout_typeE1ENS_7svectorImLm4ESaImELb1EEENS_22xtensor_expression_tagEEEEENSt11enable_if_t4typeEOT_OT0_
FNDA:0,_ZN2xtmlIdRNS_16xarray_containerINS_7uvectorIdSaIdEEELNS_11layout_typeE1ENS_7svectorImLm4ESaImELb1EEENS_22xtensor_expression_tagEEEEENSt11enable_if_t4typeEOT_OT0_
DA:108,0
DA:109,0
DA:198,0
DA:203,0
DA:198,0
DA:203,0
DA:286,0
DA:289,0
DA:303,0
DA:306,0
end_of_record
SF:/workspace/.xmake/packages/x/xtensor/0.24.3/7589bb6431db4fba90e4d138dda37226/include/xtensor/xbuilder.hpp
FN:72,_ZN2xt5zerosIdmLm1EEEDaRAT1__KT0_
FNDA:0,_ZN2xt5zerosIdmLm1EEEDaRAT1__KT0_
FN:329,_ZN2xt6detail7fn_implINS0_6eye_fnIbEEEC2EOS3_
FNDA:0,_ZN2xt6detail7fn_implINS0_6eye_fnIbEEEC2EOS3_
FN:329,_ZN2xt6detail7fn_implINS0_7diag_fnIRNS_16xarray_containerINS_7uvectorIdSaIdEEELNS_11layout_typeE1ENS_7svectorImLm4ESaImELb1EEENS_22xtensor_expression_tagEEEEEEC2EOSE_
FNDA:0,_ZN2xt6detail7fn_implINS0_7diag_fnIRNS_16xarray_containerINS_7uvectorIdSaIdEEELNS_11layout_typeE1ENS_7svectorImLm4ESaImELb1EEENS_22xtensor_expression_tagEEEEEEC2EOSE_
FN:348,_ZNK2xt6detail7fn_implINS0_6eye_fnIbEEE7elementINS_17xbounded_iteratorIPKmN9__gnu_cxx17__normal_iteratorIS8_St6vectorImSaImEEEEEEEEbT_SG_
FNDA:0,_ZNK2xt6detail7fn_implINS0_6eye_fnIbEEE7elementINS_17xbounded_iteratorIPKmN9__gnu_cxx17__normal_iteratorIS8_St6vectorImSaImEEEEEEEEbT_SG_
FN:348,_ZNK2xt6detail7fn_implINS0_7diag_fnIRNS_16xarray_containerINS_7uvectorIdSaIdEEELNS_11layout_typeE1ENS_7svectorImLm4ESaImELb1EEENS_22xtensor_expression_tagEEEEEE7elementINS_17xbounded_iteratorIPKmSJ_EEEEdT_SL_
FNDA:0,_ZNK2xt6detail7fn_implINS0_7diag_fnIRNS_16xarray_containerINS_7uvectorIdSaIdEEELNS_11layout_typeE1ENS_7svectorImLm4ESaImELb1EEENS_22xtensor_expression_tagEEEEEE7elementINS_17xbounded_iteratorIPKmSJ_EEEEdT_SL_
FN:357,_ZNK2xt6detail7fn_implINS0_6eye_fnIbEEE11access_implINS_17xbounded_iteratorIPKmN9__gnu_cxx17__normal_iteratorIS8_St6vectorImSaImEEEEEEEEbRKT_SI_
FNDA:0,_ZNK2xt6detail7fn_implINS0_6eye_fnIbEEE11access_implINS_17xbounded_iteratorIPKmN9__gnu_cxx17__normal_iteratorIS8_St6vectorImSaImEEEEEEEEbRKT_SI_
FN:357,_ZNK2xt6detail7fn_implINS0_7diag_fnIRNS_16xarray_containerINS_7uvectorIdSaIdEEELNS_11layout_typeE1ENS_7svectorImLm4ESaImELb1EEENS_22xtensor_expression_tagEEEEEE11access_implINS_17xbounded_iteratorIPKmSJ_EEEEdRKT_SN_
FNDA:0,_ZNK2xt6detail7fn_implINS0_7diag_fnIRNS_16xarray_containerINS_7uvectorIdSaIdEEELNS_11layout_typeE1ENS_7svectorImLm4ESaImELb1EEENS_22xtensor_expression_tagEEEEEE11access_implINS_17xbounded_iteratorIPKmSJ_EEEEdRKT_SN_
FN:370,_ZN2xt6detail6eye_fnIbEC2Ei
FNDA:0,_ZN2xt6detail6eye_fnIbEC2Ei
FN:376,_ZNK2xt6detail6eye_fnIbEclINS_17xbounded_iteratorIPKmN9__gnu_cxx17__normal_iteratorIS6_St6vectorImSaImEEEEEEEEbRKT_SG_
FNDA:0,_ZNK2xt6detail6eye_fnIbEclINS_17xbounded_iteratorIPKmN9__gnu_cxx17__normal_iteratorIS6_St6vectorImSaImEEEEEEEEbRKT_SG_
FN:398,_ZN2xt3eyeIbEEDaRKSt6vectorImSaImEEi
FNDA:0,_ZN2xt3eyeIbEEDaRKSt6vectorImSaImEEi
FN:413,_ZN2xt3eyeIbEEDami
FNDA:0,_ZN2xt3eyeIbEEDami
FN:979,_ZN2xt6detail7diag_fnIRNS_16xarray_containerINS_7uvectorIdSaIdEEELNS_11layout_typeE1ENS_7svectorImLm4ESaImELb1EEENS_22xtensor_expression_tagEEEEC2ISC_EEOT_i
FNDA:0,_ZN2xt6detail7diag_fnIRNS_16xarray_containerINS_7uvectorIdSaIdEEELNS_11layout_typeE1ENS_7svectorImLm4ESaImELb1EEENS_22xtensor_expression_tagEEEEC2ISC_EEOT_i
FN:985,_ZNK2xt6detail7diag_fnIRNS_16xarray_containerINS_7uvectorIdSaIdEEELNS_11layout_typeE1ENS_7svectorImLm4ESaImELb1EEENS_22xtensor_expression_tagEEEEclINS_17xbounded_iteratorIPKmSH_EEEEdT_SJ_
FNDA:0,_ZNK2xt6detail7diag_fnIRNS_16xarray_containerINS_7uvectorIdSaIdEEELNS_11layout_typeE1ENS_7svectorImLm4ESaImELb1EEENS_22xtensor_expression_tagEEEEclINS_17xbounded_iteratorIPKmSH_EEEEdT_SJ_
FN:1124,_ZN2xt4diagIRNS_16xarray_containerINS_7uvectorIdSaIdEEELNS_11layout_typeE1ENS_7svectorImLm4ESaImELb1EEENS_22xtensor_expression_tagEEEEEDaOT_i
FNDA:0,_ZN2xt4diagIRNS_16xarray_containerINS_7uvectorIdSaIdEEELNS_11layout_typeE1ENS_7svectorImLm4ESaImELb1EEENS_22xtensor_expression_tagEEEEEDaOT_i
DA:72,0
DA:74,0
DA:329,0
DA:330,0
DA:332,0
DA:329,0
DA:330,0
DA:332,0
DA:348,0
DA:350,0
DA:348,0
DA:350,0
DA:357,0
DA:359,0
DA:357,0
DA:359,0
DA:370,0
DA:371,0
DA:373,0
DA:376,0
DA:379,0
DA:398,0
DA:400,0
DA:413,0
DA:415,0
DA:979,0
DA:980,0
DA:982,0
DA:985,0
DA:988,0
DA:989,0
DA:991,0
DA:995,0
DA:1124,0
DA:1127,0
DA:1128,0
DA:1129,0
DA:1130,0
end_of_record
SF:/usr/include/c++/11/bits/stl_construct.h
FN:80,_ZSt10destroy_atImEvPT_
FNDA:0,_ZSt10destroy_atImEvPT_
FN:135,_ZSt8_DestroyImEvPT_
FNDA:0,_ZSt8_DestroyImEvPT_
FN:149,_ZNSt12_Destroy_auxILb0EE9__destroyIPmEEvT_S3_
FNDA:0,_ZNSt12_Destroy_auxILb0EE9__destroyIPmEEvT_S3_
FN:161,_ZNSt12_Destroy_auxILb1EE9__destroyIPmEEvT_S3_
FNDA:0,_ZNSt12_Destroy_auxILb1EE9__destroyIPmEEvT_S3_
FN:171,_ZSt8_DestroyIPmEvT_S1_
FNDA:0,_ZSt8_DestroyIPmEvT_S1_
DA:80,0
DA:88,0
DA:89,0
DA:135,0
DA:138,0
DA:142,0
DA:149,0
DA:151,0
DA:152,0
DA:153,0
DA:161,0
DA:171,0
DA:181,0
DA:182,0
DA:185,0
end_of_record
SF:/usr/include/c++/11/bits/cpp_type_traits.h
FN:560,_ZSt12__miter_baseIN9__gnu_cxx17__normal_iteratorIPKmSt6vectorImSaImEEEEET_S8_
FNDA:0,_ZSt12__miter_baseIN9__gnu_cxx17__normal_iteratorIPKmSt6vectorImSaImEEEEET_S8_
FN:560,_ZSt12__miter_baseIPlET_S1_
FNDA:0,_ZSt12__miter_baseIPlET_S1_
FN:560,_ZSt12__miter_baseIPmET_S1_
FNDA:0,_ZSt12__miter_baseIPmET_S1_
FN:560,_ZSt12__miter_baseIPKmET_S2_
FNDA:0,_ZSt12__miter_baseIPKmET_S2_
FN:560,_ZSt12__miter_baseIPKcET_S2_
FNDA:0,_ZSt12__miter_baseIPKcET_S2_
DA:560,0
DA:561,0
DA:560,0
DA:561,0
DA:560,0
DA:561,0
DA:560,0
DA:561,0
DA:560,0
DA:561,0
end_of_record
SF:/usr/include/c++/11/bits/ptr_traits.h
FN:146,_ZNSt14pointer_traitsIPKcE10pointer_toERS0_
FNDA:0,_ZNSt14pointer_traitsIPKcE10pointer_toERS0_
FN:146,_ZNSt14pointer_traitsIPcE10pointer_toERc
FNDA:0,_ZNSt14pointer_traitsIPcE10pointer_toERc
DA:146,0
DA:147,0
DA:146,0
DA:147,0
end_of_record
SF:/workspace/.xmake/packages/x/xtensor/0.24.3/7589bb6431db4fba90e4d138dda37226/include/xtensor/xstorage.hpp
FN:172,_ZN2xt6detail18safe_init_allocateISaIdEEENSt16allocator_traitsIT_E7pointerERS4_NS5_9size_typeE
FNDA:0,_ZN2xt6detail18safe_init_allocateISaIdEEENSt16allocator_traitsIT_E7pointerERS4_NS5_9size_typeE
FN:189,_ZN2xt6detail23safe_destroy_deallocateISaIdEEEvRT_NSt16allocator_traitsIS3_E7pointerENS6_9size_typeE
FNDA:0,_ZN2xt6detail23safe_destroy_deallocateISaIdEEEvRT_NSt16allocator_traitsIS3_E7pointerENS6_9size_typeE
FN:189,_ZN2xt6detail23safe_destroy_deallocateISaIlEEEvRT_NSt16allocator_traitsIS3_E7pointerENS6_9size_typeE
FNDA:0,_ZN2xt6detail23safe_destroy_deallocateISaIlEEEvRT_NSt16allocator_traitsIS3_E7pointerENS6_9size_typeE
FN:189,_ZN2xt6detail23safe_destroy_deallocateISaImEEEvRT_NSt16allocator_traitsIS3_E7pointerENS6_9size_typeE
FNDA:0,_ZN2xt6detail23safe_destroy_deallocateISaImEEEvRT_NSt16allocator_traitsIS3_E7pointerENS6_9size_typeE
FN:223,_ZN2xt7uvectorIdSaIdEE11resize_implEm
FNDA:0,_ZN2xt7uvectorIdSaIdEE11resize_implEm
FN:236,_ZN2xt7uvectorIdSaIdEEC2Ev
FNDA:0,_ZN2xt7uvectorIdSaIdEEC2Ev
FN:242,_ZN2xt7uvectorIdSaIdEEC2ERKS1_
FNDA:0,_ZN2xt7uvectorIdSaIdEEC2ERKS1_
FN:286,_ZN2xt7uvectorIdSaIdEED2Ev
FNDA:0,_ZN2xt7uvectorIdSaIdEED2Ev
FN:329,_ZN2xt7uvectorIdSaIdEEC2EOS2_
FNDA:0,_ZN2xt7uvectorIdSaIdEEC2EOS2_
FN:345,_ZN2xt7uvectorIdSaIdEEaSEOS2_
FNDA:0,_ZN2xt7uvectorIdSaIdEEaSEOS2_
FN:367,_ZNK2xt7uvectorIdSaIdEE4sizeEv
FNDA:0,_ZNK2xt7uvectorIdSaIdEE4sizeEv
FN:373,_ZN2xt7uvectorIdSaIdEE6resizeEm
FNDA:0,_ZN2xt7uvectorIdSaIdEE6resizeEm
FN:407,_ZN2xt7uvectorIdSaIdEEixEm
FNDA:0,_ZN2xt7uvectorIdSaIdEEixEm
FN:413,_ZNK2xt7uvectorIdSaIdEEixEm
FNDA:0,_ZNK2xt7uvectorIdSaIdEEixEm
FN:471,_ZN2xt7uvectorIdSaIdEE5beginEv
FNDA:0,_ZN2xt7uvectorIdSaIdEE5beginEv
FN:477,_ZN2xt7uvectorIdSaIdEE3endEv
FNDA:0,_ZN2xt7uvectorIdSaIdEE3endEv
FN:483,_ZNK2xt7uvectorIdSaIdEE5beginEv
FNDA:0,_ZNK2xt7uvectorIdSaIdEE5beginEv
FN:495,_ZNK2xt7uvectorIdSaIdEE6cbeginEv
FNDA:0,_ZNK2xt7uvectorIdSaIdEE6cbeginEv
FN:749,_ZN2xt7svectorIlLm4ESaIlELb1EED2Ev
FNDA:0,_ZN2xt7svectorIlLm4ESaIlELb1EED2Ev
FN:749,_ZN2xt7svectorImLm4ESaImELb1EED2Ev
FNDA:0,_ZN2xt7svectorImLm4ESaImELb1EED2Ev
FN:758,_ZN2xt7svectorImLm4ESaImELb1EEC2Ev
FNDA:0,_ZN2xt7svectorImLm4ESaImELb1EEC2Ev
FN:758,_ZN2xt7svectorIlLm4ESaIlELb1EEC2Ev
FNDA:0,_ZN2xt7svectorIlLm4ESaIlELb1EEC2Ev
FN:764,_ZN2xt7svectorIlLm4ESaIlELb1EEC2ERKS1_
FNDA:0,_ZN2xt7svectorIlLm4ESaIlELb1EEC2ERKS1_
FN:764,_ZN2xt7svectorImLm4ESaImELb1EEC2ERKS1_
FNDA:0,_ZN2xt7svectorImLm4ESaImELb1EEC2ERKS1_
FN:785,_ZN2xt7svectorImLm4ESaImELb1EEC2IPKmvEET_S6_RKS1_
FNDA:0,_ZN2xt7svectorImLm4ESaImELb1EEC2IPKmvEET_S6_RKS1_
FN:785,_ZN2xt7svectorImLm4ESaImELb1EEC2IN9__gnu_cxx17__normal_iteratorIPKmSt6vectorImS1_EEEvEET_SB_RKS1_
FNDA:0,_ZN2xt7svectorImLm4ESaImELb1EEC2IN9__gnu_cxx17__normal_iteratorIPKmSt6vectorImS1_EEEvEET_SB_RKS1_
FN:806,_ZN2xt7svectorImLm4ESaImELb1EEC2EmRKmRKS1_
FNDA:0,_ZN2xt7svectorImLm4ESaImELb1EEC2EmRKmRKS1_
FN:806,_ZN2xt7svectorIlLm4ESaIlELb1EEC2EmRKlRKS1_
FNDA:0,_ZN2xt7svectorIlLm4ESaIlELb1EEC2EmRKlRKS1_
FN:827,_ZN2xt7svectorImLm4ESaImELb1EEaSEOS2_
FNDA:0,_ZN2xt7svectorImLm4ESaImELb1EEaSEOS2_
FN:827,_ZN2xt7svectorIlLm4ESaIlELb1EEaSEOS2_
FNDA:0,_ZN2xt7svectorIlLm4ESaIlELb1EEaSEOS2_
FN:858,_ZN2xt7svectorImLm4ESaImELb1EEC2ERKS2_
FNDA:0,_ZN2xt7svectorImLm4ESaImELb1EEC2ERKS2_
FN:865,_ZN2xt7svectorIlLm4ESaIlELb1EEC2EOS2_
FNDA:0,_ZN2xt7svectorIlLm4ESaIlELb1EEC2EOS2_
FN:865,_ZN2xt7svectorImLm4ESaImELb1EEC2EOS2_
FNDA:0,_ZN2xt7svectorImLm4ESaImELb1EEC2EOS2_
FN:871,_ZN2xt7svectorImLm4ESaImELb1EE6assignEmRKm
FNDA:0,_ZN2xt7svectorImLm4ESaImELb1EE6assignEmRKm
FN:871,_ZN2xt7svectorIlLm4ESaIlELb1EE6assignEmRKl
FNDA:0,_ZN2xt7svectorIlLm4ESaIlELb1EE6assignEmRKl
FN:890,_ZN2xt7svectorImLm4ESaImELb1EE6assignIN9__gnu_cxx17__normal_iteratorIPKmSt6vectorImS1_EEEEEvT_SB_
FNDA:0,_ZN2xt7svectorImLm4ESaImELb1EE6assignIN9__gnu_cxx17__normal_iteratorIPKmSt6vectorImS1_EEEEEvT_SB_
FN:890,_ZN2xt7svectorImLm4ESaImELb1EE6assignIPmEEvT_S5_
FNDA:0,_ZN2xt7svectorImLm4ESaImELb1EE6assignIPmEEvT_S5_
FN:890,_ZN2xt7svectorImLm4ESaImELb1EE6assignIPKmEEvT_S6_
FNDA:0,_ZN2xt7svectorImLm4ESaImELb1EE6assignIPKmEEvT_S6_
FN:890,_ZN2xt7svectorIlLm4ESaIlELb1EE6assignIPlEEvT_S5_
FNDA:0,_ZN2xt7svectorIlLm4ESaIlELb1EE6assignIPlEEvT_S5_
FN:902,_ZN2xt7svectorIlLm4ESaIlELb1EEixEm
FNDA:0,_ZN2xt7svectorIlLm4ESaIlELb1EEixEm
FN:902,_ZN2xt7svectorImLm4ESaImELb1EEixEm
FNDA:0,_ZN2xt7svectorImLm4ESaImELb1EEixEm
FN:908,_ZNK2xt7svectorIlLm4ESaIlELb1EEixEm
FNDA:0,_ZNK2xt7svectorIlLm4ESaIlELb1EEixEm
FN:908,_ZNK2xt7svectorImLm4ESaImELb1EEixEm
FNDA:0,_ZNK2xt7svectorImLm4ESaImELb1EEixEm
FN:942,_ZN2xt7svectorIlLm4ESaIlELb1EE6resizeEm
FNDA:0,_ZN2xt7svectorIlLm4ESaIlELb1EE6resizeEm
FN:942,_ZN2xt7svectorImLm4ESaImELb1EE6resizeEm
FNDA:0,_ZN2xt7svectorImLm4ESaImELb1EE6resizeEm
FN:963,_ZNK2xt7svectorIlLm4ESaIlELb1EE8capacityEv
FNDA:0,_ZNK2xt7svectorIlLm4ESaIlELb1EE8capacityEv
FN:963,_ZNK2xt7svectorImLm4ESaImELb1EE8capacityEv
FNDA:0,_ZNK2xt7svectorImLm4ESaImELb1EE8capacityEv
FN:1016,_ZN2xt7svectorIlLm4ESaIlELb1EE5beginEv
FNDA:0,_ZN2xt7svectorIlLm4ESaIlELb1EE5beginEv
FN:1016,_ZN2xt7svectorImLm4ESaImELb1EE5beginEv
FNDA:0,_ZN2xt7svectorImLm4ESaImELb1EE5beginEv
FN:1022,_ZNK2xt7svectorIlLm4ESaIlELb1EE5beginEv
FNDA:0,_ZNK2xt7svectorIlLm4ESaIlELb1EE5beginEv
FN:1022,_ZNK2xt7svectorImLm4ESaImELb1EE5beginEv
FNDA:0,_ZNK2xt7svectorImLm4ESaImELb1EE5beginEv
FN:1028,_ZNK2xt7svectorIlLm4ESaIlELb1EE6cbeginEv
FNDA:0,_ZNK2xt7svectorIlLm4ESaIlELb1EE6cbeginEv
FN:1028,_ZNK2xt7svectorImLm4ESaImELb1EE6cbeginEv
FNDA:0,_ZNK2xt7svectorImLm4ESaImELb1EE6cbeginEv
FN:1034,_ZN2xt7svectorImLm4ESaImELb1EE3endEv
FNDA:0,_ZN2xt7svectorImLm4ESaImELb1EE3endEv
FN:1034,_ZN2xt7svectorIlLm4ESaIlELb1EE3endEv
FNDA:0,_ZN2xt7svectorIlLm4ESaIlELb1EE3endEv
FN:1040,_ZNK2xt7svectorImLm4ESaImELb1EE3endEv
FNDA:0,_ZNK2xt7svectorImLm4ESaImELb1EE3endEv
FN:1046,_ZNK2xt7svectorImLm4ESaImELb1EE4cendEv
FNDA:0,_ZNK2xt7svectorImLm4ESaImELb1EE4cendEv
FN:1046,_ZNK2xt7svectorIlLm4ESaIlELb1EE4cendEv
FNDA:0,_ZNK2xt7svectorIlLm4ESaIlELb1EE4cendEv
FN:1088,_ZNK2xt7svectorImLm4ESaImELb1EE4sizeEv
FNDA:0,_ZNK2xt7svectorImLm4ESaImELb1EE4sizeEv
FN:1088,_ZNK2xt7svectorIlLm4ESaIlELb1EE4sizeEv
FNDA:0,_ZNK2xt7svectorIlLm4ESaIlELb1EE4sizeEv
FN:1094,_ZNK2xt7svectorIlLm4ESaIlELb1EE5emptyEv
FNDA:0,_ZNK2xt7svectorIlLm4ESaIlELb1EE5emptyEv
FN:1107,_ZNK2xt7svectorIlLm4ESaIlELb1EE5frontEv
FNDA:0,_ZNK2xt7svectorIlLm4ESaIlELb1EE5frontEv
FN:1121,_ZNK2xt7svectorIlLm4ESaIlELb1EE4backEv
FNDA:0,_ZNK2xt7svectorIlLm4ESaIlELb1EE4backEv
FN:1128,_ZN2xt7svectorIlLm4ESaIlELb1EE8on_stackEv
FNDA:0,_ZN2xt7svectorIlLm4ESaIlELb1EE8on_stackEv
FN:1128,_ZN2xt7svectorImLm4ESaImELb1EE8on_stackEv
FNDA:0,_ZN2xt7svectorImLm4ESaImELb1EE8on_stackEv
FN:1134,_ZNK2xt7svectorImLm4ESaImELb1EE13get_allocatorEv
FNDA:0,_ZNK2xt7svectorImLm4ESaImELb1EE13get_allocatorEv
FN:1225,_ZN2xt7svectorImLm4ESaImELb1EE13destroy_rangeEPmS3_
FNDA:0,_ZN2xt7svectorImLm4ESaImELb1EE13destroy_rangeEPmS3_
FN:1225,_ZN2xt7svectorIlLm4ESaIlELb1EE13destroy_rangeEPlS3_
FNDA:0,_ZN2xt7svectorIlLm4ESaIlELb1EE13destroy_rangeEPlS3_
FN:1239,_ZN2xt7svectorImLm4ESaImELb1EE4swapILm4ES1_Lb1EEEvRNS0_ImXT_ET0_XT1_EEE
FNDA:0,_ZN2xt7svectorImLm4ESaImELb1EE4swapILm4ES1_Lb1EEEvRNS0_ImXT_ET0_XT1_EEE
FN:1239,_ZN2xt7svectorIlLm4ESaIlELb1EE4swapILm4ES1_Lb1EEEvRNS0_IlXT_ET0_XT1_EEE
FNDA:0,_ZN2xt7svectorIlLm4ESaIlELb1EE4swapILm4ES1_Lb1EEEvRNS0_IlXT_ET0_XT1_EEE
FN:1291,_ZN2xt7svectorImLm4ESaImELb1EE4growEm
FNDA:0,_ZN2xt7svectorImLm4ESaImELb1EE4growEm
FN:1291,_ZN2xt7svectorIlLm4ESaIlELb1EE4growEm
FNDA:0,_ZN2xt7svectorIlLm4ESaIlELb1EE4growEm
DA:172,0
DA:177,0
DA:185,0
DA:189,0
DA:195,0
DA:204,0
DA:206,0
DA:189,0
DA:195,0
DA:204,0
DA:206,0
DA:189,0
DA:195,0
DA:204,0
DA:206,0
DA:223,0
DA:225,0
DA:226,0
DA:227,0
DA:229,0
DA:230,0
DA:231,0
DA:233,0
DA:236,0
DA:237,0
DA:239,0
DA:242,0
DA:243,0
DA:245,0
DA:286,0
DA:288,0
DA:289,0
DA:290,0
DA:291,0
DA:329,0
DA:330,0
DA:332,0
DA:333,0
DA:334,0
DA:345,0
DA:348,0
DA:349,0
DA:350,0
DA:351,0
DA:352,0
DA:367,0
DA:369,0
DA:373,0
DA:375,0
DA:376,0
DA:407,0
DA:409,0
DA:413,0
DA:415,0
DA:471,0
DA:473,0
DA:477,0
DA:479,0
DA:483,0
DA:485,0
DA:495,0
DA:497,0
DA:749,0
DA:751,0
DA:753,0
DA:755,0
DA:749,0
DA:751,0
DA:753,0
DA:755,0
DA:758,0
DA:759,0
DA:761,0
DA:758,0
DA:759,0
DA:761,0
DA:764,0
DA:765,0
DA:767,0
DA:764,0
DA:765,0
DA:767,0
DA:785,0
DA:786,0
DA:788,0
DA:789,0
DA:785,0
DA:786,0
DA:788,0
DA:789,0
DA:806,0
DA:807,0
DA:809,0
DA:810,0
DA:806,0
DA:807,0
DA:809,0
DA:810,0
DA:827,0
DA:830,0
DA:831,0
DA:827,0
DA:830,0
DA:831,0
DA:858,0
DA:859,0
DA:861,0
DA:862,0
DA:865,0
DA:867,0
DA:868,0
DA:865,0
DA:867,0
DA:868,0
DA:871,0
DA:873,0
DA:875,0
DA:877,0
DA:878,0
DA:879,0
DA:871,0
DA:873,0
DA:875,0
DA:877,0
DA:878,0
DA:879,0
DA:890,0
DA:892,0
DA:893,0
DA:895,0
DA:897,0
DA:898,0
DA:899,0
DA:890,0
DA:892,0
DA:893,0
DA:895,0
DA:897,0
DA:898,0
DA:899,0
DA:890,0
DA:892,0
DA:893,0
DA:895,0
DA:897,0
DA:898,0
DA:899,0
DA:890,0
DA:892,0
DA:893,0
DA:895,0
DA:897,0
DA:898,0
DA:899,0
DA:902,0
DA:904,0
DA:902,0
DA:904,0
DA:908,0
DA:910,0
DA:908,0
DA:910,0
DA:942,0
DA:944,0
DA:946,0
DA:948,0
DA:949,0
DA:950,0
DA:952,0
DA:954,0
DA:942,0
DA:944,0
DA:946,0
DA:948,0
DA:949,0
DA:950,0
DA:952,0
DA:954,0
DA:963,0
DA:965,0
DA:963,0
DA:965,0
DA:1016,0
DA:1018,0
DA:1016,0
DA:1018,0
DA:1022,0
DA:1024,0
DA:1022,0
DA:1024,0
DA:1028,0
DA:1030,0
DA:1028,0
DA:1030,0
DA:1034,0
DA:1036,0
DA:1034,0
DA:1036,0
DA:1040,0
DA:1042,0
DA:1046,0
DA:1048,0
DA:1046,0
DA:1048,0
DA:1088,0
DA:1090,0
DA:1088,0
DA:1090,0
DA:1094,0
DA:1096,0
DA:1107,0
DA:1110,0
DA:1121,0
DA:1124,0
DA:1128,0
DA:1130,0
DA:1128,0
DA:1130,0
DA:1134,0
DA:1136,0
DA:1225,0
DA:1235,0
DA:1225,0
DA:1235,0
DA:1239,0
DA:1242,0
DA:1244,0
DA:1248,0
DA:1250,0
DA:1251,0
DA:1252,0
DA:1253,0
DA:1256,0
DA:1257,0
DA:1259,0
DA:1261,0
DA:1263,0
DA:1265,0
DA:1269,0
DA:1270,0
DA:1272,0
DA:1276,0
DA:1278,0
DA:1279,0
DA:1280,0
DA:1282,0
DA:1284,0
DA:1285,0
DA:1286,0
DA:1239,0
DA:1242,0
DA:1244,0
DA:1248,0
DA:1250,0
DA:1251,0
DA:1252,0
DA:1253,0
DA:1256,0
DA:1257,0
DA:1259,0
DA:1261,0
DA:1263,0
DA:1265,0
DA:1269,0
DA:1270,0
DA:1272,0
DA:1276,0
DA:1278,0
DA:1279,0
DA:1280,0
DA:1282,0
DA:1284,0
DA:1285,0
DA:1286,0
DA:1291,0
DA:1293,0
DA:1294,0
DA:1295,0
DA:1297,0
DA:1302,0
DA:1304,0
DA:1305,0
DA:1310,0
DA:1311,0
DA:1312,0
DA:1316,0
DA:1317,0
DA:1318,0
DA:1319,0
DA:1291,0
DA:1293,0
DA:1294,0
DA:1295,0
DA:1297,0
DA:1302,0
DA:1304,0
DA:1305,0
DA:1310,0
DA:1311,0
DA:1312,0
DA:1316,0
DA:1317,0
DA:1318,0
DA:1319,0
end_of_record
SF:/usr/include/c++/11/bits/char_traits.h
FN:106,_ZN9__gnu_cxx11char_traitsIcE2eqERKcS3_
FNDA:0,_ZN9__gnu_cxx11char_traitsIcE2eqERKcS3_
FN:167,_ZN9__gnu_cxx11char_traitsIcE6lengthEPKc
FNDA:0,_ZN9__gnu_cxx11char_traitsIcE6lengthEPKc
FN:212,_ZN9__gnu_cxx11char_traitsIcE4copyEPcPKcm
FNDA:0,_ZN9__gnu_cxx11char_traitsIcE4copyEPcPKcm
FN:328,_ZNSt11char_traitsIcE6assignERcRKc
FNDA:0,_ZNSt11char_traitsIcE6assignERcRKc
FN:365,_ZNSt11char_traitsIcE6lengthEPKc
FNDA:0,_ZNSt11char_traitsIcE6lengthEPKc
FN:401,_ZNSt11char_traitsIcE4copyEPcPKcm
FNDA:0,_ZNSt11char_traitsIcE4copyEPcPKcm
DA:106,0
DA:107,0
DA:167,0
DA:170,0
DA:171,0
DA:172,0
DA:173,0
DA:212,0
DA:216,0
DA:217,0
DA:262,0
DA:328,0
DA:329,0
DA:365,0
DA:368,0
DA:369,0
DA:371,0
DA:401,0
DA:403,0
DA:404,0
DA:406,0
DA:407,0
DA:409,0
end_of_record
SF:/workspace/.xmake/packages/x/xtensor/0.24.3/7589bb6431db4fba90e4d138dda37226/include/xtensor/xstrides.hpp
FN:117,_ZN2xt16strided_data_endINS_10xcontainerINS_16xarray_containerINS_7uvectorIdSaIdEEELNS_11layout_typeE1ENS_7svectorImLm4ESaImELb1EEENS_22xtensor_expression_tagEEEEEPKdmEET0_RKT_SF_S6_T1_
FNDA:0,_ZN2xt16strided_data_endINS_10xcontainerINS_16xarray_containerINS_7uvectorIdSaIdEEELNS_11layout_typeE1ENS_7svectorImLm4ESaImELb1EEENS_22xtensor_expression_tagEEEEEPKdmEET0_RKT_SF_S6_T1_
FN:117,_ZN2xt16strided_data_endINS_10xcontainerINS_16xarray_containerINS_7uvectorIdSaIdEEELNS_11layout_typeE1ENS_7svectorImLm4ESaImELb1EEENS_22xtensor_expression_tagEEEEEPdmEET0_RKT_SE_S6_T1_
FNDA:0,_ZN2xt16strided_data_endINS_10xcontainerINS_16xarray_containerINS_7uvectorIdSaIdEEELNS_11layout_typeE1ENS_7svectorImLm4ESaImELb1EEENS_22xtensor_expression_tagEEEEEPdmEET0_RKT_SE_S6_T1_
FN:295,_ZN2xt6detail15raw_data_offsetILm1EPKlEEDaRKT0_
FNDA:0,_ZN2xt6detail15raw_data_offsetILm1EPKlEEDaRKT0_
FN:295,_ZN2xt6detail15raw_data_offsetILm1ENS_7svectorIlLm4ESaIlELb1EEEEEDaRKT0_
FNDA:0,_ZN2xt6detail15raw_data_offsetILm1ENS_7svectorIlLm4ESaIlELb1EEEEEDaRKT0_
FN:309,_ZN2xt6detail15raw_data_offsetILm0EPKlmJEEEDaRKT0_T1_DpT2_
FNDA:0,_ZN2xt6detail15raw_data_offsetILm0EPKlmJEEEDaRKT0_T1_DpT2_
FN:309,_ZN2xt6detail15raw_data_offsetILm0ENS_7svectorIlLm4ESaIlELb1EEEmJEEEDaRKT0_T1_DpT2_
FNDA:0,_ZN2xt6detail15raw_data_offsetILm0ENS_7svectorIlLm4ESaIlELb1EEEmJEEEDaRKT0_T1_DpT2_
FN:383,_ZN2xt11data_offsetImNS_7svectorIlLm4ESaIlELb1EEEEET_RKT0_
FNDA:0,_ZN2xt11data_offsetImNS_7svectorIlLm4ESaIlELb1EEEEET_RKT0_
FN:389,_ZN2xt11data_offsetImNS_7svectorIlLm4ESaIlELb1EEEmJEEET_RKT0_T1_DpT2_
FNDA:0,_ZN2xt11data_offsetImNS_7svectorIlLm4ESaIlELb1EEEmJEEET_RKT0_T1_DpT2_
FN:423,_ZN2xt14element_offsetImNS_7svectorIlLm4ESaIlELb1EEEPKmEET_RKT0_T1_SA_
FNDA:0,_ZN2xt14element_offsetImNS_7svectorIlLm4ESaIlELb1EEEPKmEET_RKT0_T1_SA_
FN:433,_ZN2xt6detail13adapt_stridesINS_7svectorImLm4ESaImELb1EEENS2_IlLm4ESaIlELb1EEEPS6_EEvRKT_RT0_T1_NSB_9size_typeE
FNDA:0,_ZN2xt6detail13adapt_stridesINS_7svectorImLm4ESaImELb1EEENS2_IlLm4ESaIlELb1EEEPS6_EEvRKT_RT0_T1_NSB_9size_typeE
FN:454,_ZN2xt6detail15compute_stridesILNS_11layout_typeE1ENS_7svectorImLm4ESaImELb1EEENS3_IlLm4ESaIlELb1EEEPS7_EEmRKT0_S2_RT1_T2_
FNDA:0,_ZN2xt6detail15compute_stridesILNS_11layout_typeE1ENS_7svectorImLm4ESaImELb1EEENS3_IlLm4ESaIlELb1EEEPS7_EEmRKT0_S2_RT1_T2_
FN:488,_ZN2xt15compute_stridesILNS_11layout_typeE1ENS_7svectorImLm4ESaImELb1EEENS2_IlLm4ESaIlELb1EEES6_EEmRKT0_S1_RT1_RT2_
FNDA:0,_ZN2xt15compute_stridesILNS_11layout_typeE1ENS_7svectorImLm4ESaImELb1EEENS2_IlLm4ESaIlELb1EEES6_EEmRKT0_S1_RT1_RT2_
FN:642,_ZN2xt19uninitialized_shapeINS_7svectorImLm4ESaImELb1EEEmEET_T0_
FNDA:0,_ZN2xt19uninitialized_shapeINS_7svectorImLm4ESaImELb1EEEmEET_T0_
FN:650,_ZN2xt15broadcast_shapeINS_7svectorImLm4ESaImELb1EEES3_EEbRKT_RT0_
FNDA:0,_ZN2xt15broadcast_shapeINS_7svectorImLm4ESaImELb1EEES3_EEbRKT_RT0_
FN:650,_ZN2xt15broadcast_shapeISt5arrayImLm0EES1_ImLm1EEEEbRKT_RT0_
FNDA:0,_ZN2xt15broadcast_shapeISt5arrayImLm0EES1_ImLm1EEEEbRKT_RT0_
DA:117,0
DA:120,0
DA:122,0
DA:126,0
DA:128,0
DA:130,0
DA:132,0
DA:136,0
DA:138,0
DA:142,0
DA:117,0
DA:120,0
DA:122,0
DA:126,0
DA:128,0
DA:130,0
DA:132,0
DA:136,0
DA:138,0
DA:142,0
DA:295,0
DA:298,0
DA:295,0
DA:298,0
DA:309,0
DA:311,0
DA:309,0
DA:311,0
DA:383,0
DA:385,0
DA:389,0
DA:391,0
DA:392,0
DA:395,0
DA:397,0
DA:400,0
DA:410,0
DA:411,0
DA:423,0
DA:426,0
DA:427,0
DA:433,0
DA:436,0
DA:438,0
DA:440,0
DA:441,0
DA:454,0
DA:458,0
DA:461,0
DA:463,0
DA:464,0
DA:465,0
DA:477,0
DA:488,0
DA:492,0
DA:642,0
DA:646,0
DA:650,0
DA:652,0
DA:655,0
DA:656,0
DA:658,0
DA:660,0
DA:662,0
DA:667,0
DA:669,0
DA:673,0
DA:675,0
DA:676,0
DA:680,0
DA:682,0
DA:686,0
DA:688,0
DA:691,0
DA:650,0
DA:652,0
DA:655,0
DA:656,0
DA:658,0
DA:660,0
DA:662,0
DA:667,0
DA:669,0
DA:673,0
DA:675,0
DA:676,0
DA:680,0
DA:682,0
DA:686,0
DA:688,0
DA:691,0
end_of_record
SF:/workspace/.xmake/packages/x/xtl/0.7.4/879889b01c084e069706381a4e7b5489/include/xtl/xfunctional.hpp
FN:27,_ZNK3xtl8identityclIRKN2xt9xfunctionINS2_6detail10multipliesEJNS2_7xscalarIdEERKNS2_16xarray_containerINS2_7uvectorIdSaIdEEELNS2_11layout_typeE1ENS2_7svectorImLm4ESaImELb1EEENS2_22xtensor_expression_tagEEEEEEEEOT_SO_
FNDA:0,_ZNK3xtl8identityclIRKN2xt9xfunctionINS2_6detail10multipliesEJNS2_7xscalarIdEERKNS2_16xarray_containerINS2_7uvectorIdSaIdEEELNS2_11layout_typeE1ENS2_7svectorImLm4ESaImELb1EEENS2_22xtensor_expression_tagEEEEEEEEOT_SO_
FN:27,_ZNK3xtl8identityclIRKN2xt16xarray_containerINS2_7uvectorIdSaIdEEELNS2_11layout_typeE1ENS2_7svectorImLm4ESaImELb1EEENS2_22xtensor_expression_tagEEEEEOT_SG_
FNDA:0,_ZNK3xtl8identityclIRKN2xt16xarray_containerINS2_7uvectorIdSaIdEEELNS2_11layout_typeE1ENS2_7svectorImLm4ESaImELb1EEENS2_22xtensor_expression_tagEEEEEOT_SG_
FN:27,_ZNK3xtl8identityclIRKN2xt9xfunctionINS2_6detail5minusEJRKNS2_16xarray_containerINS2_7uvectorIdSaIdEEELNS2_11layout_typeE1ENS2_7svectorImLm4ESaImELb1EEENS2_22xtensor_expression_tagEEERKNS3_INS4_10multipliesEJNS2_7xscalarIdEESH_EEEEEEEEOT_SS_
FNDA:0,_ZNK3xtl8identityclIRKN2xt9xfunctionINS2_6detail5minusEJRKNS2_16xarray_containerINS2_7uvectorIdSaIdEEELNS2_11layout_typeE1ENS2_7svectorImLm4ESaImELb1EEENS2_22xtensor_expression_tagEEERKNS3_INS4_10multipliesEJNS2_7xscalarIdEESH_EEEEEEEEOT_SS_
FN:27,_ZNK3xtl8identityclIRKN2xt10xgeneratorINS2_6detail7fn_implINS4_6eye_fnIbEEEEbSt6vectorImSaImEEEEEEOT_SG_
FNDA:0,_ZNK3xtl8identityclIRKN2xt10xgeneratorINS2_6detail7fn_implINS4_6eye_fnIbEEEEbSt6vectorImSaImEEEEEEOT_SG_
FN:27,_ZNK3xtl8identityclIRN2xt16xarray_containerINS2_7uvectorIdSaIdEEELNS2_11layout_typeE1ENS2_7svectorImLm4ESaImELb1EEENS2_22xtensor_expression_tagEEEEEOT_SF_
FNDA:0,_ZNK3xtl8identityclIRN2xt16xarray_containerINS2_7uvectorIdSaIdEEELNS2_11layout_typeE1ENS2_7svectorImLm4ESaImELb1EEENS2_22xtensor_expression_tagEEEEEOT_SF_
FN:27,_ZNK3xtl8identityclIRKN2xt10xgeneratorINS2_6detail7fn_implINS4_7diag_fnIRNS2_16xarray_containerINS2_7uvectorIdSaIdEEELNS2_11layout_typeE1ENS2_7svectorImLm4ESaImELb1EEENS2_22xtensor_expression_tagEEEEEEEdSt5arrayImLm2EEEEEEOT_SQ_
FNDA:0,_ZNK3xtl8identityclIRKN2xt10xgeneratorINS2_6detail7fn_implINS4_7diag_fnIRNS2_16xarray_containerINS2_7uvectorIdSaIdEEELNS2_11layout_typeE1ENS2_7svectorImLm4ESaImELb1EEENS2_22xtensor_expression_tagEEEEEEEdSt5arrayImLm2EEEEEEOT_SQ_
FN:27,_ZNK3xtl8identityclIdEEOT_S3_
FNDA:0,_ZNK3xtl8identityclIdEEOT_S3_
FN:27,_ZNK3xtl8identityclIRN2xt20xcontiguous_iterableINS2_16xarray_containerINS2_7uvectorIdSaIdEEELNS2_11layout_typeE1ENS2_7svectorImLm4ESaImELb1EEENS2_22xtensor_expression_tagEEEEEEEOT_SH_
FNDA:0,_ZNK3xtl8identityclIRN2xt20xcontiguous_iterableINS2_16xarray_containerINS2_7uvectorIdSaIdEEELNS2_11layout_typeE1ENS2_7svectorImLm4ESaImELb1EEENS2_22xtensor_expression_tagEEEEEEEOT_SH_
FN:27,_ZNK3xtl8identityclIRKN2xt11xexpressionINS2_10xbroadcastINS2_7xscalarIdEESt5arrayImLm1EEEEEEEEOT_SE_
FNDA:0,_ZNK3xtl8identityclIRKN2xt11xexpressionINS2_10xbroadcastINS2_7xscalarIdEESt5arrayImLm1EEEEEEEEOT_SE_
DA:27,0
DA:29,0
DA:27,0
DA:29,0
DA:27,0
DA:29,0
DA:27,0
DA:29,0
DA:27,0
DA:29,0
DA:27,0
DA:29,0
DA:27,0
DA:29,0
DA:27,0
DA:29,0
DA:27,0
DA:29,0
end_of_record
SF:/usr/include/c++/11/bits/range_access.h
FN:51,_ZSt5beginIN2xt7svectorImLm4ESaImELb1EEEEDTcldtfp_5beginEERT_
FNDA:0,_ZSt5beginIN2xt7svectorImLm4ESaImELb1EEEEDTcldtfp_5beginEERT_
FN:51,_ZSt5beginISt5arrayImLm1EEEDTcldtfp_5beginEERT_
FNDA:0,_ZSt5beginISt5arrayImLm1EEEDTcldtfp_5beginEERT_
FN:51,_ZSt5beginISt5arrayImLm2EEEDTcldtfp_5beginEERT_
FNDA:0,_ZSt5beginISt5arrayImLm2EEEDTcldtfp_5beginEERT_
FN:61,_ZSt5beginISt6vectorImSaImEEEDTcldtfp_5beginEERKT_
FNDA:0,_ZSt5beginISt6vectorImSaImEEEDTcldtfp_5beginEERKT_
FN:61,_ZSt5beginISt5arrayImLm2EEEDTcldtfp_5beginEERKT_
FNDA:0,_ZSt5beginISt5arrayImLm2EEEDTcldtfp_5beginEERKT_
FN:61,_ZSt5beginISt5arrayImLm1EEEDTcldtfp_5beginEERKT_
FNDA:0,_ZSt5beginISt5arrayImLm1EEEDTcldtfp_5beginEERKT_
FN:71,_ZSt3endIN2xt7svectorImLm4ESaImELb1EEEEDTcldtfp_3endEERT_
FNDA:0,_ZSt3endIN2xt7svectorImLm4ESaImELb1EEEEDTcldtfp_3endEERT_
FN:81,_ZSt3endISt6vectorImSaImEEEDTcldtfp_3endEERKT_
FNDA:0,_ZSt3endISt6vectorImSaImEEEDTcldtfp_3endEERKT_
FN:81,_ZSt3endISt5arrayImLm2EEEDTcldtfp_3endEERKT_
FNDA:0,_ZSt3endISt5arrayImLm2EEEDTcldtfp_3endEERKT_
FN:81,_ZSt3endISt5arrayImLm1EEEDTcldtfp_3endEERKT_
FNDA:0,_ZSt3endISt5arrayImLm1EEEDTcldtfp_3endEERKT_
FN:90,_ZSt5beginImLm4EEPT_RAT0__S0_
FNDA:0,_ZSt5beginImLm4EEPT_RAT0__S0_
FN:90,_ZSt5beginIlLm4EEPT_RAT0__S0_
FNDA:0,_ZSt5beginIlLm4EEPT_RAT0__S0_
FN:90,_ZSt5beginIKmLm2EEPT_RAT0__S1_
FNDA:0,_ZSt5beginIKmLm2EEPT_RAT0__S1_
FN:90,_ZSt5beginIKmLm1EEPT_RAT0__S1_
FNDA:0,_ZSt5beginIKmLm1EEPT_RAT0__S1_
FN:100,_ZSt3endIKmLm2EEPT_RAT0__S1_
FNDA:0,_ZSt3endIKmLm2EEPT_RAT0__S1_
FN:100,_ZSt3endIlLm4EEPT_RAT0__S0_
FNDA:0,_ZSt3endIlLm4EEPT_RAT0__S0_
FN:100,_ZSt3endImLm4EEPT_RAT0__S0_
FNDA:0,_ZSt3endImLm4EEPT_RAT0__S0_
FN:100,_ZSt3endIKmLm1EEPT_RAT0__S1_
FNDA:0,_ZSt3endIKmLm1EEPT_RAT0__S1_
DA:51,0
DA:52,0
DA:51,0
DA:52,0
DA:51,0
DA:52,0
DA:61,0
DA:62,0
DA:61,0
DA:62,0
DA:61,0
DA:62,0
DA:71,0
DA:72,0
DA:81,0
DA:82,0
DA:81,0
DA:82,0
DA:81,0
DA:82,0
DA:90,0
DA:91,0
DA:90,0
DA:91,0
DA:90,0
DA:91,0
DA:90,0
DA:91,0
DA:100,0
DA:101,0
DA:100,0
DA:101,0
DA:100,0
DA:101,0
DA:100,0
DA:101,0
end_of_record
SF:/usr/include/c++/11/bits/stl_function.h
FN:191,_ZNKSt10multipliesImEclERKmS2_
FNDA:0,_ZNKSt10multipliesImEclERKmS2_
FN:265,_ZNKSt10multipliesIvEclIRdRKdEEDTmlcl7forwardIT_Efp_Ecl7forwardIT0_Efp0_EEOS5_OS6_
FNDA:0,_ZNKSt10multipliesIvEclIRdRKdEEDTmlcl7forwardIT_Efp_Ecl7forwardIT0_Efp0_EEOS5_OS6_
DA:191,0
DA:192,0
DA:265,0
DA:268,0
end_of_record
SF:/workspace/.xmake/packages/x/xtensor/0.24.3/7589bb6431db4fba90e4d138dda37226/include/xtensor/xexpression.hpp
FN:90,_ZN2xt20xsharable_expressionINS_16xarray_containerINS_7uvectorIdSaIdEEELNS_11layout_typeE1ENS_7svectorImLm4ESaImELb1EEENS_22xtensor_expression_tagEEEED2Ev
FNDA:0,_ZN2xt20xsharable_expressionINS_16xarray_containerINS_7uvectorIdSaIdEEELNS_11layout_typeE1ENS_7svectorImLm4ESaImELb1EEENS_22xtensor_expression_tagEEEED2Ev
FN:90,_ZN2xt20xsharable_expressionINS_10xgeneratorINS_6detail7fn_implINS2_7diag_fnIRNS_16xarray_containerINS_7uvectorIdSaIdEEELNS_11layout_typeE1ENS_7svectorImLm4ESaImELb1EEENS_22xtensor_expression_tagEEEEEEEdSt5arrayImLm2EEEEED2Ev
FNDA:0,_ZN2xt20xsharable_expressionINS_10xgeneratorINS_6detail7fn_implINS2_7diag_fnIRNS_16xarray_containerINS_7uvectorIdSaIdEEELNS_11layout_typeE1ENS_7svectorImLm4ESaImELb1EEENS_22xtensor_expression_tagEEEEEEEdSt5arrayImLm2EEEEED2Ev
FN:90,_ZN2xt20xsharable_expressionINS_10xgeneratorINS_6detail7fn_implINS2_6eye_fnIbEEEEbSt6vectorImSaImEEEEED2Ev
FNDA:0,_ZN2xt20xsharable_expressionINS_10xgeneratorINS_6detail7fn_implINS2_6eye_fnIbEEEEbSt6vectorImSaImEEEEED2Ev
FN:90,_ZN2xt20xsharable_expressionINS_10xbroadcastINS_7xscalarIdEESt5arrayImLm1EEEEED2Ev
FNDA:0,_ZN2xt20xsharable_expressionINS_10xbroadcastINS_7xscalarIdEESt5arrayImLm1EEEEED2Ev
FN:90,_ZN2xt20xsharable_expressionINS_7xscalarIdEEED2Ev
FNDA:0,_ZN2xt20xsharable_expressionINS_7xscalarIdEEED2Ev
FN:90,_ZN2xt20xsharable_expressionINS_9xfunctionINS_6detail10multipliesEJNS_7xscalarIdEERKNS_16xarray_containerINS_7uvectorIdSaIdEEELNS_11layout_typeE1ENS_7svectorImLm4ESaImELb1EEENS_22xtensor_expression_tagEEEEEEED2Ev
FNDA:0,_ZN2xt20xsharable_expressionINS_9xfunctionINS_6detail10multipliesEJNS_7xscalarIdEERKNS_16xarray_containerINS_7uvectorIdSaIdEEELNS_11layout_typeE1ENS_7svectorImLm4ESaImELb1EEENS_22xtensor_expression_tagEEEEEEED2Ev
FN:90,_ZN2xt20xsharable_expressionINS_9xfunctionINS_6detail5minusEJRKNS_16xarray_containerINS_7uvectorIdSaIdEEELNS_11layout_typeE1ENS_7svectorImLm4ESaImELb1EEENS_22xtensor_expression_tagEEERKNS1_INS2_10multipliesEJNS_7xscalarIdEESF_EEEEEEED2Ev
FNDA:0,_ZN2xt20xsharable_expressionINS_9xfunctionINS_6detail5minusEJRKNS_16xarray_containerINS_7uvectorIdSaIdEEELNS_11layout_typeE1ENS_7svectorImLm4ESaImELb1EEENS_22xtensor_expression_tagEEERKNS1_INS2_10multipliesEJNS_7xscalarIdEESF_EEEEEEED2Ev
FN:95,_ZN2xt20xsharable_expressionINS_16xarray_containerINS_7uvectorIdSaIdEEELNS_11layout_typeE1ENS_7svectorImLm4ESaImELb1EEENS_22xtensor_expression_tagEEEEC2EOSB_
FNDA:0,_ZN2xt20xsharable_expressionINS_16xarray_containerINS_7uvectorIdSaIdEEELNS_11layout_typeE1ENS_7svectorImLm4ESaImELb1EEENS_22xtensor_expression_tagEEEEC2EOSB_
FN:96,_ZN2xt20xsharable_expressionINS_16xarray_containerINS_7uvectorIdSaIdEEELNS_11layout_typeE1ENS_7svectorImLm4ESaImELb1EEENS_22xtensor_expression_tagEEEEaSEOSB_
FNDA:0,_ZN2xt20xsharable_expressionINS_16xarray_containerINS_7uvectorIdSaIdEEELNS_11layout_typeE1ENS_7svectorImLm4ESaImELb1EEENS_22xtensor_expression_tagEEEEaSEOSB_
FN:117,_ZNR2xt11xexpressionINS_16xarray_containerINS_7uvectorIdSaIdEEELNS_11layout_typeE1ENS_7svectorImLm4ESaImELb1EEENS_22xtensor_expression_tagEEEE12derived_castEv
FNDA:0,_ZNR2xt11xexpressionINS_16xarray_containerINS_7uvectorIdSaIdEEELNS_11layout_typeE1ENS_7svectorImLm4ESaImELb1EEENS_22xtensor_expression_tagEEEE12derived_castEv
FN:126,_ZNKR2xt11xexpressionINS_10xgeneratorINS_6detail7fn_implINS2_6eye_fnIbEEEEbSt6vectorImSaImEEEEE12derived_castEv
FNDA:0,_ZNKR2xt11xexpressionINS_10xgeneratorINS_6detail7fn_implINS2_6eye_fnIbEEEEbSt6vectorImSaImEEEEE12derived_castEv
FN:126,_ZNKR2xt11xexpressionINS_10xgeneratorINS_6detail7fn_implINS2_7diag_fnIRNS_16xarray_containerINS_7uvectorIdSaIdEEELNS_11layout_typeE1ENS_7svectorImLm4ESaImELb1EEENS_22xtensor_expression_tagEEEEEEEdSt5arrayImLm2EEEEE12derived_castEv
FNDA:0,_ZNKR2xt11xexpressionINS_10xgeneratorINS_6detail7fn_implINS2_7diag_fnIRNS_16xarray_containerINS_7uvectorIdSaIdEEELNS_11layout_typeE1ENS_7svectorImLm4ESaImELb1EEENS_22xtensor_expression_tagEEEEEEEdSt5arrayImLm2EEEEE12derived_castEv
FN:126,_ZNKR2xt11xexpressionINS_10xbroadcastINS_7xscalarIdEESt5arrayImLm1EEEEE12derived_castEv
FNDA:0,_ZNKR2xt11xexpressionINS_10xbroadcastINS_7xscalarIdEESt5arrayImLm1EEEEE12derived_castEv
FN:126,_ZNKR2xt11xexpressionINS_9xfunctionINS_6detail10multipliesEJNS_7xscalarIdEERKNS_16xarray_containerINS_7uvectorIdSaIdEEELNS_11layout_typeE1ENS_7svectorImLm4ESaImELb1EEENS_22xtensor_expression_tagEEEEEEE12derived_castEv
FNDA:0,_ZNKR2xt11xexpressionINS_9xfunctionINS_6detail10multipliesEJNS_7xscalarIdEERKNS_16xarray_containerINS_7uvectorIdSaIdEEELNS_11layout_typeE1ENS_7svectorImLm4ESaImELb1EEENS_22xtensor_expression_tagEEEEEEE12derived_castEv
FN:126,_ZNKR2xt11xexpressionINS_9xfunctionINS_6detail5minusEJRKNS_16xarray_containerINS_7uvectorIdSaIdEEELNS_11layout_typeE1ENS_7svectorImLm4ESaImELb1EEENS_22xtensor_expression_tagEEERKNS1_INS2_10multipliesEJNS_7xscalarIdEESF_EEEEEEE12derived_castEv
FNDA:0,_ZNKR2xt11xexpressionINS_9xfunctionINS_6detail5minusEJRKNS_16xarray_containerINS_7uvectorIdSaIdEEELNS_11layout_typeE1ENS_7svectorImLm4ESaImELb1EEENS_22xtensor_expression_tagEEERKNS1_INS2_10multipliesEJNS_7xscalarIdEESF_EEEEEEE12derived_castEv
FN:146,_ZN2xt20xsharable_expressionINS_10xgeneratorINS_6detail7fn_implINS2_6eye_fnIbEEEEbSt6vectorImSaImEEEEEC2Ev
FNDA:0,_ZN2xt20xsharable_expressionINS_10xgeneratorINS_6detail7fn_implINS2_6eye_fnIbEEEEbSt6vectorImSaImEEEEEC2Ev
FN:146,_ZN2xt20xsharable_expressionINS_16xarray_containerINS_7uvectorIdSaIdEEELNS_11layout_typeE1ENS_7svectorImLm4ESaImELb1EEENS_22xtensor_expression_tagEEEEC2Ev
FNDA:0,_ZN2xt20xsharable_expressionINS_16xarray_containerINS_7uvectorIdSaIdEEELNS_11layout_typeE1ENS_7svectorImLm4ESaImELb1EEENS_22xtensor_expression_tagEEEEC2Ev
FN:146,_ZN2xt20xsharable_expressionINS_10xgeneratorINS_6detail7fn_implINS2_7diag_fnIRNS_16xarray_containerINS_7uvectorIdSaIdEEELNS_11layout_typeE1ENS_7svectorImLm4ESaImELb1EEENS_22xtensor_expression_tagEEEEEEEdSt5arrayImLm2EEEEEC2Ev
FNDA:0,_ZN2xt20xsharable_expressionINS_10xgeneratorINS_6detail7fn_implINS2_7diag_fnIRNS_16xarray_containerINS_7uvectorIdSaIdEEELNS_11layout_typeE1ENS_7svectorImLm4ESaImELb1EEENS_22xtensor_expression_tagEEEEEEEdSt5arrayImLm2EEEEEC2Ev
FN:146,_ZN2xt20xsharable_expressionINS_10xbroadcastINS_7xscalarIdEESt5arrayImLm1EEEEEC2Ev
FNDA:0,_ZN2xt20xsharable_expressionINS_10xbroadcastINS_7xscalarIdEESt5arrayImLm1EEEEEC2Ev
FN:146,_ZN2xt20xsharable_expressionINS_7xscalarIdEEEC2Ev
FNDA:0,_ZN2xt20xsharable_expressionINS_7xscalarIdEEEC2Ev
FN:146,_ZN2xt20xsharable_expressionINS_9xfunctionINS_6detail10multipliesEJNS_7xscalarIdEERKNS_16xarray_containerINS_7uvectorIdSaIdEEELNS_11layout_typeE1ENS_7svectorImLm4ESaImELb1EEENS_22xtensor_expression_tagEEEEEEEC2Ev
FNDA:0,_ZN2xt20xsharable_expressionINS_9xfunctionINS_6detail10multipliesEJNS_7xscalarIdEERKNS_16xarray_containerINS_7uvectorIdSaIdEEELNS_11layout_typeE1ENS_7svectorImLm4ESaImELb1EEENS_22xtensor_expression_tagEEEEEEEC2Ev
FN:146,_ZN2xt20xsharable_expressionINS_9xfunctionINS_6detail5minusEJRKNS_16xarray_containerINS_7uvectorIdSaIdEEELNS_11layout_typeE1ENS_7svectorImLm4ESaImELb1EEENS_22xtensor_expression_tagEEERKNS1_INS2_10multipliesEJNS_7xscalarIdEESF_EEEEEEEC2Ev
FNDA:0,_ZN2xt20xsharable_expressionINS_9xfunctionINS_6detail5minusEJRKNS_16xarray_containerINS_7uvectorIdSaIdEEELNS_11layout_typeE1ENS_7svectorImLm4ESaImELb1EEENS_22xtensor_expression_tagEEERKNS1_INS2_10multipliesEJNS_7xscalarIdEESF_EEEEEEEC2Ev
DA:90,0
DA:90,0
DA:90,0
DA:90,0
DA:90,0
DA:90,0
DA:90,0
DA:95,0
DA:96,0
DA:117,0
DA:119,0
DA:126,0
DA:128,0
DA:126,0
DA:128,0
DA:126,0
DA:128,0
DA:126,0
DA:128,0
DA:126,0
DA:128,0
DA:146,0
DA:147,0
DA:149,0
DA:146,0
DA:147,0
DA:149,0
DA:146,0
DA:147,0
DA:149,0
DA:146,0
DA:147,0
DA:149,0
DA:146,0
DA:147,0
DA:149,0
DA:146,0
DA:147,0
DA:149,0
DA:146,0
DA:147,0
DA:149,0
end_of_record
SF:/usr/include/c++/11/bits/shared_ptr_base.h
FN:161,_ZNSt16_Sp_counted_baseILN9__gnu_cxx12_Lock_policyE2EE10_M_releaseEv
FNDA:0,_ZNSt16_Sp_counted_baseILN9__gnu_cxx12_Lock_policyE2EE10_M_releaseEv
FN:587,_ZNSt14__shared_countILN9__gnu_cxx12_Lock_policyE2EEC2Ev
FNDA:0,_ZNSt14__shared_countILN9__gnu_cxx12_Lock_policyE2EEC2Ev
FN:699,_ZNSt14__shared_countILN9__gnu_cxx12_Lock_policyE2EED2Ev
FNDA:0,_ZNSt14__shared_countILN9__gnu_cxx12_Lock_policyE2EED2Ev
FN:728,_ZNSt14__shared_countILN9__gnu_cxx12_Lock_policyE2EE7_M_swapERS2_
FNDA:0,_ZNSt14__shared_countILN9__gnu_cxx12_Lock_policyE2EE7_M_swapERS2_
FN:1087,_ZNSt12__shared_ptrIN2xt9xfunctionINS0_6detail5minusEJRKNS0_16xarray_containerINS0_7uvectorIdSaIdEEELNS0_11layout_typeE1ENS0_7svectorImLm4ESaImELb1EEENS0_22xtensor_expression_tagEEERKNS1_INS2_10multipliesEJNS0_7xscalarIdEESF_EEEEEELN9__gnu_cxx12_Lock_policyE2EEC2Ev
FNDA:0,_ZNSt12__shared_ptrIN2xt9xfunctionINS0_6detail5minusEJRKNS0_16xarray_containerINS0_7uvectorIdSaIdEEELNS0_11layout_typeE1ENS0_7svectorImLm4ESaImELb1EEENS0_22xtensor_expression_tagEEERKNS1_INS2_10multipliesEJNS0_7xscalarIdEESF_EEEEEELN9__gnu_cxx12_Lock_policyE2EEC2Ev
FN:1087,_ZNSt12__shared_ptrIN2xt9xfunctionINS0_6detail10multipliesEJNS0_7xscalarIdEERKNS0_16xarray_containerINS0_7uvectorIdSaIdEEELNS0_11layout_typeE1ENS0_7svectorImLm4ESaImELb1EEENS0_22xtensor_expression_tagEEEEEELN9__gnu_cxx12_Lock_policyE2EEC2Ev
FNDA:0,_ZNSt12__shared_ptrIN2xt9xfunctionINS0_6detail10multipliesEJNS0_7xscalarIdEERKNS0_16xarray_containerINS0_7uvectorIdSaIdEEELNS0_11layout_typeE1ENS0_7svectorImLm4ESaImELb1EEENS0_22xtensor_expression_tagEEEEEELN9__gnu_cxx12_Lock_policyE2EEC2Ev
FN:1087,_ZNSt12__shared_ptrIN2xt7xscalarIdEELN9__gnu_cxx12_Lock_policyE2EEC2Ev
FNDA:0,_ZNSt12__shared_ptrIN2xt7xscalarIdEELN9__gnu_cxx12_Lock_policyE2EEC2Ev
FN:1087,_ZNSt12__shared_ptrIN2xt10xbroadcastINS0_7xscalarIdEESt5arrayImLm1EEEELN9__gnu_cxx12_Lock_policyE2EEC2Ev
FNDA:0,_ZNSt12__shared_ptrIN2xt10xbroadcastINS0_7xscalarIdEESt5arrayImLm1EEEELN9__gnu_cxx12_Lock_policyE2EEC2Ev
FN:1087,_ZNSt12__shared_ptrIN2xt10xgeneratorINS0_6detail7fn_implINS2_6eye_fnIbEEEEbSt6vectorImSaImEEEELN9__gnu_cxx12_Lock_policyE2EEC2Ev
FNDA:0,_ZNSt12__shared_ptrIN2xt10xgeneratorINS0_6detail7fn_implINS2_6eye_fnIbEEEEbSt6vectorImSaImEEEELN9__gnu_cxx12_Lock_policyE2EEC2Ev
FN:1087,_ZNSt12__shared_ptrIN2xt16xarray_containerINS0_7uvectorIdSaIdEEELNS0_11layout_typeE1ENS0_7svectorImLm4ESaImELb1EEENS0_22xtensor_expression_tagEEELN9__gnu_cxx12_Lock_policyE2EEC2Ev
FNDA:0,_ZNSt12__shared_ptrIN2xt16xarray_containerINS0_7uvectorIdSaIdEEELNS0_11layout_typeE1ENS0_7svectorImLm4ESaImELb1EEENS0_22xtensor_expression_tagEEELN9__gnu_cxx12_Lock_policyE2EEC2Ev
FN:1087,_ZNSt12__shared_ptrIN2xt10xgeneratorINS0_6detail7fn_implINS2_7diag_fnIRNS0_16xarray_containerINS0_7uvectorIdSaIdEEELNS0_11layout_typeE1ENS0_7svectorImLm4ESaImELb1EEENS0_22xtensor_expression_tagEEEEEEEdSt5arrayImLm2EEEELN9__gnu_cxx12_Lock_policyE2EEC2Ev
FNDA:0,_ZNSt12__shared_ptrIN2xt10xgeneratorINS0_6detail7fn_implINS2_7diag_fnIRNS0_16xarray_containerINS0_7uvectorIdSaIdEEELNS0_11layout_typeE1ENS0_7svectorImLm4ESaImELb1EEENS0_22xtensor_expression_tagEEEEEEEdSt5arrayImLm2EEEELN9__gnu_cxx12_Lock_policyE2EEC2Ev
FN:1149,_ZNSt12__shared_ptrIN2xt16xarray_containerINS0_7uvectorIdSaIdEEELNS0_11layout_typeE1ENS0_7svectorImLm4ESaImELb1EEENS0_22xtensor_expression_tagEEELN9__gnu_cxx12_Lock_policyE2EED2Ev
FNDA:0,_ZNSt12__shared_ptrIN2xt16xarray_containerINS0_7uvectorIdSaIdEEELNS0_11layout_typeE1ENS0_7svectorImLm4ESaImELb1EEENS0_22xtensor_expression_tagEEELN9__gnu_cxx12_Lock_policyE2EED2Ev
FN:1149,_ZNSt12__shared_ptrIN2xt10xgeneratorINS0_6detail7fn_implINS2_7diag_fnIRNS0_16xarray_containerINS0_7uvectorIdSaIdEEELNS0_11layout_typeE1ENS0_7svectorImLm4ESaImELb1EEENS0_22xtensor_expression_tagEEEEEEEdSt5arrayImLm2EEEELN9__gnu_cxx12_Lock_policyE2EED2Ev
FNDA:0,_ZNSt12__shared_ptrIN2xt10xgeneratorINS0_6detail7fn_implINS2_7diag_fnIRNS0_16xarray_containerINS0_7uvectorIdSaIdEEELNS0_11layout_typeE1ENS0_7svectorImLm4ESaImELb1EEENS0_22xtensor_expression_tagEEEEEEEdSt5arrayImLm2EEEELN9__gnu_cxx12_Lock_policyE2EED2Ev
FN:1149,_ZNSt12__shared_ptrIN2xt10xgeneratorINS0_6detail7fn_implINS2_6eye_fnIbEEEEbSt6vectorImSaImEEEELN9__gnu_cxx12_Lock_policyE2EED2Ev
FNDA:0,_ZNSt12__shared_ptrIN2xt10xgeneratorINS0_6detail7fn_implINS2_6eye_fnIbEEEEbSt6vectorImSaImEEEELN9__gnu_cxx12_Lock_policyE2EED2Ev
FN:1149,_ZNSt12__shared_ptrIN2xt10xbroadcastINS0_7xscalarIdEESt5arrayImLm1EEEELN9__gnu_cxx12_Lock_policyE2EED2Ev
FNDA:0,_ZNSt12__shared_ptrIN2xt10xbroadcastINS0_7xscalarIdEESt5arrayImLm1EEEELN9__gnu_cxx12_Lock_policyE2EED2Ev
FN:1149,_ZNSt12__shared_ptrIN2xt7xscalarIdEELN9__gnu_cxx12_Lock_policyE2EED2Ev
FNDA:0,_ZNSt12__shared_ptrIN2xt7xscalarIdEELN9__gnu_cxx12_Lock_policyE2EED2Ev
FN:1149,_ZNSt12__shared_ptrIN2xt9xfunctionINS0_6detail10multipliesEJNS0_7xscalarIdEERKNS0_16xarray_containerINS0_7uvectorIdSaIdEEELNS0_11layout_typeE1ENS0_7svectorImLm4ESaImELb1EEENS0_22xtensor_expression_tagEEEEEELN9__gnu_cxx12_Lock_policyE2EED2Ev
FNDA:0,_ZNSt12__shared_ptrIN2xt9xfunctionINS0_6detail10multipliesEJNS0_7xscalarIdEERKNS0_16xarray_containerINS0_7uvectorIdSaIdEEELNS0_11layout_typeE1ENS0_7svectorImLm4ESaImELb1EEENS0_22xtensor_expression_tagEEEEEELN9__gnu_cxx12_Lock_policyE2EED2Ev
FN:1149,_ZNSt12__shared_ptrIN2xt9xfunctionINS0_6detail5minusEJRKNS0_16xarray_containerINS0_7uvectorIdSaIdEEELNS0_11layout_typeE1ENS0_7svectorImLm4ESaImELb1EEENS0_22xtensor_expression_tagEEERKNS1_INS2_10multipliesEJNS0_7xscalarIdEESF_EEEEEELN9__gnu_cxx12_Lock_policyE2EED2Ev
FNDA:0,_ZNSt12__shared_ptrIN2xt9xfunctionINS0_6detail5minusEJRKNS0_16xarray_containerINS0_7uvectorIdSaIdEEELNS0_11layout_typeE1ENS0_7svectorImLm4ESaImELb1EEENS0_22xtensor_expression_tagEEERKNS1_INS2_10multipliesEJNS0_7xscalarIdEESF_EEEEEELN9__gnu_cxx12_Lock_policyE2EED2Ev
FN:1156,_ZNSt12__shared_ptrIN2xt16xarray_containerINS0_7uvectorIdSaIdEEELNS0_11layout_typeE1ENS0_7svectorImLm4ESaImELb1EEENS0_22xtensor_expression_tagEEELN9__gnu_cxx12_Lock_policyE2EEC2EOSD_
FNDA:0,_ZNSt12__shared_ptrIN2xt16xarray_containerINS0_7uvectorIdSaIdEEELNS0_11layout_typeE1ENS0_7svectorImLm4ESaImELb1EEENS0_22xtensor_expression_tagEEELN9__gnu_cxx12_Lock_policyE2EEC2EOSD_
FN:1243,_ZNSt12__shared_ptrIN2xt16xarray_containerINS0_7uvectorIdSaIdEEELNS0_11layout_typeE1ENS0_7svectorImLm4ESaImELb1EEENS0_22xtensor_expression_tagEEELN9__gnu_cxx12_Lock_policyE2EEaSEOSD_
FNDA:0,_ZNSt12__shared_ptrIN2xt16xarray_containerINS0_7uvectorIdSaIdEEELNS0_11layout_typeE1ENS0_7svectorImLm4ESaImELb1EEENS0_22xtensor_expression_tagEEELN9__gnu_cxx12_Lock_policyE2EEaSEOSD_
FN:1309,_ZNSt12__shared_ptrIN2xt16xarray_containerINS0_7uvectorIdSaIdEEELNS0_11layout_typeE1ENS0_7svectorImLm4ESaImELb1EEENS0_22xtensor_expression_tagEEELN9__gnu_cxx12_Lock_policyE2EE4swapERSD_
FNDA:0,_ZNSt12__shared_ptrIN2xt16xarray_containerINS0_7uvectorIdSaIdEEELNS0_11layout_typeE1ENS0_7svectorImLm4ESaImELb1EEENS0_22xtensor_expression_tagEEELN9__gnu_cxx12_Lock_policyE2EE4swapERSD_
DA:161,0
DA:165,0
DA:168,0
DA:180,0
DA:181,0
DA:184,0
DA:187,0
DA:587,0
DA:588,0
DA:699,0
DA:701,0
DA:702,0
DA:703,0
DA:728,0
DA:730,0
DA:731,0
DA:732,0
DA:733,0
DA:1087,0
DA:1088,0
DA:1089,0
DA:1087,0
DA:1088,0
DA:1089,0
DA:1087,0
DA:1088,0
DA:1089,0
DA:1087,0
DA:1088,0
DA:1089,0
DA:1087,0
DA:1088,0
DA:1089,0
DA:1087,0
DA:1088,0
DA:1089,0
DA:1087,0
DA:1088,0
DA:1089,0
DA:1149,0
DA:1149,0
DA:1149,0
DA:1149,0
DA:1149,0
DA:1149,0
DA:1149,0
DA:1156,0
DA:1157,0
DA:1159,0
DA:1160,0
DA:1161,0
DA:1243,0
DA:1245,0
DA:1246,0
DA:1309,0
DA:1311,0
DA:1312,0
DA:1313,0
end_of_record
SF:/usr/include/c++/11/ext/new_allocator.h
FN:79,_ZN9__gnu_cxx13new_allocatorIcEC2Ev
FNDA:0,_ZN9__gnu_cxx13new_allocatorIcEC2Ev
FN:79,_ZN9__gnu_cxx13new_allocatorImEC2Ev
FNDA:0,_ZN9__gnu_cxx13new_allocatorImEC2Ev
FN:79,_ZN9__gnu_cxx13new_allocatorIlEC2Ev
FNDA:0,_ZN9__gnu_cxx13new_allocatorIlEC2Ev
FN:79,_ZN9__gnu_cxx13new_allocatorIdEC2Ev
FNDA:0,_ZN9__gnu_cxx13new_allocatorIdEC2Ev
FN:82,_ZN9__gnu_cxx13new_allocatorIdEC2ERKS1_
FNDA:0,_ZN9__gnu_cxx13new_allocatorIdEC2ERKS1_
FN:82,_ZN9__gnu_cxx13new_allocatorImEC2ERKS1_
FNDA:0,_ZN9__gnu_cxx13new_allocatorImEC2ERKS1_
FN:82,_ZN9__gnu_cxx13new_allocatorIlEC2ERKS1_
FNDA:0,_ZN9__gnu_cxx13new_allocatorIlEC2ERKS1_
FN:103,_ZN9__gnu_cxx13new_allocatorIcE8allocateEmPKv
FNDA:0,_ZN9__gnu_cxx13new_allocatorIcE8allocateEmPKv
FN:103,_ZN9__gnu_cxx13new_allocatorIdE8allocateEmPKv
FNDA:0,_ZN9__gnu_cxx13new_allocatorIdE8allocateEmPKv
FN:103,_ZN9__gnu_cxx13new_allocatorImE8allocateEmPKv
FNDA:0,_ZN9__gnu_cxx13new_allocatorImE8allocateEmPKv
FN:103,_ZN9__gnu_cxx13new_allocatorIlE8allocateEmPKv
FNDA:0,_ZN9__gnu_cxx13new_allocatorIlE8allocateEmPKv
FN:126,_ZN9__gnu_cxx13new_allocatorImE10deallocateEPmm
FNDA:0,_ZN9__gnu_cxx13new_allocatorImE10deallocateEPmm
FN:126,_ZN9__gnu_cxx13new_allocatorIlE10deallocateEPlm
FNDA:0,_ZN9__gnu_cxx13new_allocatorIlE10deallocateEPlm
FN:126,_ZN9__gnu_cxx13new_allocatorIdE10deallocateEPdm
FNDA:0,_ZN9__gnu_cxx13new_allocatorIdE10deallocateEPdm
FN:126,_ZN9__gnu_cxx13new_allocatorIcE10deallocateEPcm
FNDA:0,_ZN9__gnu_cxx13new_allocatorIcE10deallocateEPcm
FN:191,_ZNK9__gnu_cxx13new_allocatorImE11_M_max_sizeEv
FNDA:0,_ZNK9__gnu_cxx13new_allocatorImE11_M_max_sizeEv
FN:191,_ZNK9__gnu_cxx13new_allocatorIdE11_M_max_sizeEv
FNDA:0,_ZNK9__gnu_cxx13new_allocatorIdE11_M_max_sizeEv
FN:191,_ZNK9__gnu_cxx13new_allocatorIlE11_M_max_sizeEv
FNDA:0,_ZNK9__gnu_cxx13new_allocatorIlE11_M_max_sizeEv
FN:191,_ZNK9__gnu_cxx13new_allocatorIcE11_M_max_sizeEv
FNDA:0,_ZNK9__gnu_cxx13new_allocatorIcE11_M_max_sizeEv
DA:79,0
DA:79,0
DA:79,0
DA:79,0
DA:82,0
DA:82,0
DA:82,0
DA:103,0
DA:105,0
DA:111,0
DA:121,0
DA:103,0
DA:105,0
DA:109,0
DA:110,0
DA:111,0
DA:121,0
DA:103,0
DA:105,0
DA:109,0
DA:110,0
DA:111,0
DA:121,0
DA:103,0
DA:105,0
DA:109,0
DA:110,0
DA:111,0
DA:121,0
DA:126,0
DA:139,0
DA:126,0
DA:139,0
DA:126,0
DA:139,0
DA:126,0
DA:139,0
DA:191,0
DA:194,0
DA:191,0
DA:194,0
DA:191,0
DA:194,0
DA:191,0
DA:194,0
end_of_record
SF:/workspace/.xmake/packages/x/xtensor/0.24.3/7589bb6431db4fba90e4d138dda37226/include/xtensor/xassign.hpp
FN:197,_ZN2xt18assign_xexpressionINS_16xarray_containerINS_7uvectorIdSaIdEEELNS_11layout_typeE1ENS_7svectorImLm4ESaImELb1EEENS_22xtensor_expression_tagEEENS_10xgeneratorINS_6detail7fn_implINSC_7diag_fnIRSA_EEEEdSt5arrayImLm2EEEEEEvRNS_11xexpressionIT_EERKNSL_IT0_EE
FNDA:0,_ZN2xt18assign_xexpressionINS_16xarray_containerINS_7uvectorIdSaIdEEELNS_11layout_typeE1ENS_7svectorImLm4ESaImELb1EEENS_22xtensor_expression_tagEEENS_10xgeneratorINS_6detail7fn_implINSC_7diag_fnIRSA_EEEEdSt5arrayImLm2EEEEEEvRNS_11xexpressionIT_EERKNSL_IT0_EE
FN:197,_ZN2xt18assign_xexpressionINS_16xarray_containerINS_7uvectorIdSaIdEEELNS_11layout_typeE1ENS_7svectorImLm4ESaImELb1EEENS_22xtensor_expression_tagEEENS_9xfunctionINS_6detail5minusEJRKSA_RKNSB_INSC_10multipliesEJNS_7xscalarIdEESF_EEEEEEEEvRNS_11xexpressionIT_EERKNSN_IT0_EE
FNDA:0,_ZN2xt18assign_xexpressionINS_16xarray_containerINS_7uvectorIdSaIdEEELNS_11layout_typeE1ENS_7svectorImLm4ESaImELb1EEENS_22xtensor_expression_tagEEENS_9xfunctionINS_6detail5minusEJRKSA_RKNSB_INSC_10multipliesEJNS_7xscalarIdEESF_EEEEEEEEvRNS_11xexpressionIT_EERKNSN_IT0_EE
FN:197,_ZN2xt18assign_xexpressionINS_16xarray_containerINS_7uvectorIdSaIdEEELNS_11layout_typeE1ENS_7svectorImLm4ESaImELb1EEENS_22xtensor_expression_tagEEENS_10xgeneratorINS_6detail7fn_implINSC_6eye_fnIbEEEEbSt6vectorImS7_EEEEEvRNS_11xexpressionIT_EERKNSK_IT0_EE
FNDA:0,_ZN2xt18assign_xexpressionINS_16xarray_containerINS_7uvectorIdSaIdEEELNS_11layout_typeE1ENS_7svectorImLm4ESaImELb1EEENS_22xtensor_expression_tagEEENS_10xgeneratorINS_6detail7fn_implINSC_6eye_fnIbEEEEbSt6vectorImS7_EEEEEvRNS_11xexpressionIT_EERKNSK_IT0_EE
FN:197,_ZN2xt18assign_xexpressionINS_16xarray_containerINS_7uvectorIdSaIdEEELNS_11layout_typeE1ENS_7svectorImLm4ESaImELb1EEENS_22xtensor_expression_tagEEENS_10xbroadcastINS_7xscalarIdEESt5arrayImLm1EEEEEEvRNS_11xexpressionIT_EERKNSH_IT0_EE
FNDA:0,_ZN2xt18assign_xexpressionINS_16xarray_containerINS_7uvectorIdSaIdEEELNS_11layout_typeE1ENS_7svectorImLm4ESaImELb1EEENS_22xtensor_expression_tagEEENS_10xbroadcastINS_7xscalarIdEESt5arrayImLm1EEEEEEvRNS_11xexpressionIT_EERKNSH_IT0_EE
FN:199,_ZZN2xt18assign_xexpressionINS_16xarray_containerINS_7uvectorIdSaIdEEELNS_11layout_typeE1ENS_7svectorImLm4ESaImELb1EEENS_22xtensor_expression_tagEEENS_10xbroadcastINS_7xscalarIdEESt5arrayImLm1EEEEEEvRNS_11xexpressionIT_EERKNSH_IT0_EEENKUlSI_E_clIN3xtl8identityEEEDaSI_
FNDA:0,_ZZN2xt18assign_xexpressionINS_16xarray_containerINS_7uvectorIdSaIdEEELNS_11layout_typeE1ENS_7svectorImLm4ESaImELb1EEENS_22xtensor_expression_tagEEENS_10xbroadcastINS_7xscalarIdEESt5arrayImLm1EEEEEEvRNS_11xexpressionIT_EERKNSH_IT0_EEENKUlSI_E_clIN3xtl8identityEEEDaSI_
FN:202,_ZZN2xt18assign_xexpressionINS_16xarray_containerINS_7uvectorIdSaIdEEELNS_11layout_typeE1ENS_7svectorImLm4ESaImELb1EEENS_22xtensor_expression_tagEEENS_9xfunctionINS_6detail5minusEJRKSA_RKNSB_INSC_10multipliesEJNS_7xscalarIdEESF_EEEEEEEEvRNS_11xexpressionIT_EERKNSN_IT0_EEENKUlSO_E0_clIN3xtl8identityEEEDaSO_
FNDA:0,_ZZN2xt18assign_xexpressionINS_16xarray_containerINS_7uvectorIdSaIdEEELNS_11layout_typeE1ENS_7svectorImLm4ESaImELb1EEENS_22xtensor_expression_tagEEENS_9xfunctionINS_6detail5minusEJRKSA_RKNSB_INSC_10multipliesEJNS_7xscalarIdEESF_EEEEEEEEvRNS_11xexpressionIT_EERKNSN_IT0_EEENKUlSO_E0_clIN3xtl8identityEEEDaSO_
FN:202,_ZZN2xt18assign_xexpressionINS_16xarray_containerINS_7uvectorIdSaIdEEELNS_11layout_typeE1ENS_7svectorImLm4ESaImELb1EEENS_22xtensor_expression_tagEEENS_10xgeneratorINS_6detail7fn_implINSC_7diag_fnIRSA_EEEEdSt5arrayImLm2EEEEEEvRNS_11xexpressionIT_EERKNSL_IT0_EEENKUlSM_E0_clIN3xtl8identityEEEDaSM_
FNDA:0,_ZZN2xt18assign_xexpressionINS_16xarray_containerINS_7uvectorIdSaIdEEELNS_11layout_typeE1ENS_7svectorImLm4ESaImELb1EEENS_22xtensor_expression_tagEEENS_10xgeneratorINS_6detail7fn_implINSC_7diag_fnIRSA_EEEEdSt5arrayImLm2EEEEEEvRNS_11xexpressionIT_EERKNSL_IT0_EEENKUlSM_E0_clIN3xtl8identityEEEDaSM_
FN:202,_ZZN2xt18assign_xexpressionINS_16xarray_containerINS_7uvectorIdSaIdEEELNS_11layout_typeE1ENS_7svectorImLm4ESaImELb1EEENS_22xtensor_expression_tagEEENS_10xgeneratorINS_6detail7fn_implINSC_6eye_fnIbEEEEbSt6vectorImS7_EEEEEvRNS_11xexpressionIT_EERKNSK_IT0_EEENKUlSL_E0_clIN3xtl8identityEEEDaSL_
FNDA:0,_ZZN2xt18assign_xexpressionINS_16xarray_containerINS_7uvectorIdSaIdEEELNS_11layout_typeE1ENS_7svectorImLm4ESaImELb1EEENS_22xtensor_expression_tagEEENS_10xgeneratorINS_6detail7fn_implINSC_6eye_fnIbEEEEbSt6vectorImS7_EEEEEvRNS_11xexpressionIT_EERKNSK_IT0_EEENKUlSL_E0_clIN3xtl8identityEEEDaSL_
FN:217,_ZN2xt22scalar_computed_assignINS_16xarray_containerINS_7uvectorIdSaIdEEELNS_11layout_typeE1ENS_7svectorImLm4ESaImELb1EEENS_22xtensor_expression_tagEEEdSt10multipliesIvEEEvRNS_11xexpressionIT_EERKT0_OT1_
FNDA:0,_ZN2xt22scalar_computed_assignINS_16xarray_containerINS_7uvectorIdSaIdEEELNS_11layout_typeE1ENS_7svectorImLm4ESaImELb1EEENS_22xtensor_expression_tagEEEdSt10multipliesIvEEEvRNS_11xexpressionIT_EERKT0_OT1_
FN:237,_ZN2xt6detail20linear_static_layoutINS_16xarray_containerINS_7uvectorIdSaIdEEELNS_11layout_typeE1ENS_7svectorImLm4ESaImELb1EEENS_22xtensor_expression_tagEEENS_9xfunctionINS0_5minusEJRKSB_RKNSC_INS0_10multipliesEJNS_7xscalarIdEESF_EEEEEEEEbv
FNDA:0,_ZN2xt6detail20linear_static_layoutINS_16xarray_containerINS_7uvectorIdSaIdEEELNS_11layout_typeE1ENS_7svectorImLm4ESaImELb1EEENS_22xtensor_expression_tagEEENS_9xfunctionINS0_5minusEJRKSB_RKNSC_INS0_10multipliesEJNS_7xscalarIdEESF_EEEEEEEEbv
FN:247,_ZN2xt6detail16is_linear_assignINS_16xarray_containerINS_7uvectorIdSaIdEEELNS_11layout_typeE1ENS_7svectorImLm4ESaImELb1EEENS_22xtensor_expression_tagEEENS_10xgeneratorINS0_7fn_implINS0_7diag_fnIRSB_EEEEdSt5arrayImLm2EEEEEENSt9enable_ifIXsrNS_11has_stridesIT_vEE5valueEbE4typeERKSN_RKT0_
FNDA:0,_ZN2xt6detail16is_linear_assignINS_16xarray_containerINS_7uvectorIdSaIdEEELNS_11layout_typeE1ENS_7svectorImLm4ESaImELb1EEENS_22xtensor_expression_tagEEENS_10xgeneratorINS0_7fn_implINS0_7diag_fnIRSB_EEEEdSt5arrayImLm2EEEEEENSt9enable_ifIXsrNS_11has_stridesIT_vEE5valueEbE4typeERKSN_RKT0_
FN:247,_ZN2xt6detail16is_linear_assignINS_16xarray_containerINS_7uvectorIdSaIdEEELNS_11layout_typeE1ENS_7svectorImLm4ESaImELb1EEENS_22xtensor_expression_tagEEENS_10xgeneratorINS0_7fn_implINS0_6eye_fnIbEEEEbSt6vectorImS8_EEEEENSt9enable_ifIXsrNS_11has_stridesIT_vEE5valueEbE4typeERKSM_RKT0_
FNDA:0,_ZN2xt6detail16is_linear_assignINS_16xarray_containerINS_7uvectorIdSaIdEEELNS_11layout_typeE1ENS_7svectorImLm4ESaImELb1EEENS_22xtensor_expression_tagEEENS_10xgeneratorINS0_7fn_implINS0_6eye_fnIbEEEEbSt6vectorImS8_EEEEENSt9enable_ifIXsrNS_11has_stridesIT_vEE5valueEbE4typeERKSM_RKT0_
FN:247,_ZN2xt6detail16is_linear_assignINS_16xarray_containerINS_7uvectorIdSaIdEEELNS_11layout_typeE1ENS_7svectorImLm4ESaImELb1EEENS_22xtensor_expression_tagEEENS_9xfunctionINS0_5minusEJRKSB_RKNSC_INS0_10multipliesEJNS_7xscalarIdEESF_EEEEEEEENSt9enable_ifIXsrNS_11has_stridesIT_vEE5valueEbE4typeERKSP_RKT0_
FNDA:0,_ZN2xt6detail16is_linear_assignINS_16xarray_containerINS_7uvectorIdSaIdEEELNS_11layout_typeE1ENS_7svectorImLm4ESaImELb1EEENS_22xtensor_expression_tagEEENS_9xfunctionINS0_5minusEJRKSB_RKNSC_INS0_10multipliesEJNS_7xscalarIdEESF_EEEEEEEENSt9enable_ifIXsrNS_11has_stridesIT_vEE5valueEbE4typeERKSP_RKT0_
FN:260,_ZN2xt6detail21linear_dynamic_layoutINS_16xarray_containerINS_7uvectorIdSaIdEEELNS_11layout_typeE1ENS_7svectorImLm4ESaImELb1EEENS_22xtensor_expression_tagEEENS_10xgeneratorINS0_7fn_implINS0_7diag_fnIRSB_EEEEdSt5arrayImLm2EEEEEEbRKT_RKT0_
FNDA:0,_ZN2xt6detail21linear_dynamic_layoutINS_16xarray_containerINS_7uvectorIdSaIdEEELNS_11layout_typeE1ENS_7svectorImLm4ESaImELb1EEENS_22xtensor_expression_tagEEENS_10xgeneratorINS0_7fn_implINS0_7diag_fnIRSB_EEEEdSt5arrayImLm2EEEEEEbRKT_RKT0_
FN:260,_ZN2xt6detail21linear_dynamic_layoutINS_16xarray_containerINS_7uvectorIdSaIdEEELNS_11layout_typeE1ENS_7svectorImLm4ESaImELb1EEENS_22xtensor_expression_tagEEENS_10xgeneratorINS0_7fn_implINS0_6eye_fnIbEEEEbSt6vectorImS8_EEEEEbRKT_RKT0_
FNDA:0,_ZN2xt6detail21linear_dynamic_layoutINS_16xarray_containerINS_7uvectorIdSaIdEEELNS_11layout_typeE1ENS_7svectorImLm4ESaImELb1EEENS_22xtensor_expression_tagEEENS_10xgeneratorINS0_7fn_implINS0_6eye_fnIbEEEEbSt6vectorImS8_EEEEEbRKT_RKT0_
FN:260,_ZN2xt6detail21linear_dynamic_layoutINS_16xarray_containerINS_7uvectorIdSaIdEEELNS_11layout_typeE1ENS_7svectorImLm4ESaImELb1EEENS_22xtensor_expression_tagEEENS_9xfunctionINS0_5minusEJRKSB_RKNSC_INS0_10multipliesEJNS_7xscalarIdEESF_EEEEEEEEbRKT_RKT0_
FNDA:0,_ZN2xt6detail21linear_dynamic_layoutINS_16xarray_containerINS_7uvectorIdSaIdEEELNS_11layout_typeE1ENS_7svectorImLm4ESaImELb1EEENS_22xtensor_expression_tagEEENS_9xfunctionINS0_5minusEJRKSB_RKNSC_INS0_10multipliesEJNS_7xscalarIdEESF_EEEEEEEEbRKT_RKT0_
FN:336,_ZN2xt14xassign_traitsINS_16xarray_containerINS_7uvectorIdSaIdEEELNS_11layout_typeE1ENS_7svectorImLm4ESaImELb1EEENS_22xtensor_expression_tagEEENS_10xgeneratorINS_6detail7fn_implINSC_7diag_fnIRSA_EEEEdSt5arrayImLm2EEEEE18is_bool_conversionEv
FNDA:0,_ZN2xt14xassign_traitsINS_16xarray_containerINS_7uvectorIdSaIdEEELNS_11layout_typeE1ENS_7svectorImLm4ESaImELb1EEENS_22xtensor_expression_tagEEENS_10xgeneratorINS_6detail7fn_implINSC_7diag_fnIRSA_EEEEdSt5arrayImLm2EEEEE18is_bool_conversionEv
FN:336,_ZN2xt14xassign_traitsINS_16xarray_containerINS_7uvectorIdSaIdEEELNS_11layout_typeE1ENS_7svectorImLm4ESaImELb1EEENS_22xtensor_expression_tagEEENS_9xfunctionINS_6detail5minusEJRKSA_RKNSB_INSC_10multipliesEJNS_7xscalarIdEESF_EEEEEEE18is_bool_conversionEv
FNDA:0,_ZN2xt14xassign_traitsINS_16xarray_containerINS_7uvectorIdSaIdEEELNS_11layout_typeE1ENS_7svectorImLm4ESaImELb1EEENS_22xtensor_expression_tagEEENS_9xfunctionINS_6detail5minusEJRKSA_RKNSB_INSC_10multipliesEJNS_7xscalarIdEESF_EEEEEEE18is_bool_conversionEv
FN:336,_ZN2xt14xassign_traitsINS_16xarray_containerINS_7uvectorIdSaIdEEELNS_11layout_typeE1ENS_7svectorImLm4ESaImELb1EEENS_22xtensor_expression_tagEEENS_10xgeneratorINS_6detail7fn_implINSC_6eye_fnIbEEEEbSt6vectorImS7_EEEE18is_bool_conversionEv
FNDA:0,_ZN2xt14xassign_traitsINS_16xarray_containerINS_7uvectorIdSaIdEEELNS_11layout_typeE1ENS_7svectorImLm4ESaImELb1EEENS_22xtensor_expression_tagEEENS_10xgeneratorINS_6detail7fn_implINSC_6eye_fnIbEEEEbSt6vectorImS7_EEEE18is_bool_conversionEv
FN:338,_ZN2xt14xassign_traitsINS_16xarray_containerINS_7uvectorIdSaIdEEELNS_11layout_typeE1ENS_7svectorImLm4ESaImELb1EEENS_22xtensor_expression_tagEEENS_10xgeneratorINS_6detail7fn_implINSC_6eye_fnIbEEEEbSt6vectorImS7_EEEE17convertible_typesEv
FNDA:0,_ZN2xt14xassign_traitsINS_16xarray_containerINS_7uvectorIdSaIdEEELNS_11layout_typeE1ENS_7svectorImLm4ESaImELb1EEENS_22xtensor_expression_tagEEENS_10xgeneratorINS_6detail7fn_implINSC_6eye_fnIbEEEEbSt6vectorImS7_EEEE17convertible_typesEv
FN:338,_ZN2xt14xassign_traitsINS_16xarray_containerINS_7uvectorIdSaIdEEELNS_11layout_typeE1ENS_7svectorImLm4ESaImELb1EEENS_22xtensor_expression_tagEEENS_10xgeneratorINS_6detail7fn_implINSC_7diag_fnIRSA_EEEEdSt5arrayImLm2EEEEE17convertible_typesEv
FNDA:0,_ZN2xt14xassign_traitsINS_16xarray_containerINS_7uvectorIdSaIdEEELNS_11layout_typeE1ENS_7svectorImLm4ESaImELb1EEENS_22xtensor_expression_tagEEENS_10xgeneratorINS_6detail7fn_implINSC_7diag_fnIRSA_EEEEdSt5arrayImLm2EEEEE17convertible_typesEv
FN:338,_ZN2xt14xassign_traitsINS_16xarray_containerINS_7uvectorIdSaIdEEELNS_11layout_typeE1ENS_7svectorImLm4ESaImELb1EEENS_22xtensor_expression_tagEEENS_9xfunctionINS_6detail5minusEJRKSA_RKNSB_INSC_10multipliesEJNS_7xscalarIdEESF_EEEEEEE17convertible_typesEv
FNDA:0,_ZN2xt14xassign_traitsINS_16xarray_containerINS_7uvectorIdSaIdEEELNS_11layout_typeE1ENS_7svectorImLm4ESaImELb1EEENS_22xtensor_expression_tagEEENS_9xfunctionINS_6detail5minusEJRKSA_RKNSB_INSC_10multipliesEJNS_7xscalarIdEESF_EEEEEEE17convertible_typesEv
FN:341,_ZN2xt14xassign_traitsINS_16xarray_containerINS_7uvectorIdSaIdEEELNS_11layout_typeE1ENS_7svectorImLm4ESaImELb1EEENS_22xtensor_expression_tagEEENS_10xgeneratorINS_6detail7fn_implINSC_6eye_fnIbEEEEbSt6vectorImS7_EEEE9use_xsimdEv
FNDA:0,_ZN2xt14xassign_traitsINS_16xarray_containerINS_7uvectorIdSaIdEEELNS_11layout_typeE1ENS_7svectorImLm4ESaImELb1EEENS_22xtensor_expression_tagEEENS_10xgeneratorINS_6detail7fn_implINSC_6eye_fnIbEEEEbSt6vectorImS7_EEEE9use_xsimdEv
FN:344,_ZN2xt14xassign_traitsINS_16xarray_containerINS_7uvectorIdSaIdEEELNS_11layout_typeE1ENS_7svectorImLm4ESaImELb1EEENS_22xtensor_expression_tagEEENS_10xgeneratorINS_6detail7fn_implINSC_6eye_fnIbEEEEbSt6vectorImS7_EEEE14simd_size_implIdEEbv
FNDA:0,_ZN2xt14xassign_traitsINS_16xarray_containerINS_7uvectorIdSaIdEEELNS_11layout_typeE1ENS_7svectorImLm4ESaImELb1EEENS_22xtensor_expression_tagEEENS_10xgeneratorINS_6detail7fn_implINSC_6eye_fnIbEEEEbSt6vectorImS7_EEEE14simd_size_implIdEEbv
FN:344,_ZN2xt14xassign_traitsINS_16xarray_containerINS_7uvectorIdSaIdEEELNS_11layout_typeE1ENS_7svectorImLm4ESaImELb1EEENS_22xtensor_expression_tagEEENS_10xgeneratorINS_6detail7fn_implINSC_6eye_fnIbEEEEbSt6vectorImS7_EEEE14simd_size_implIbEEbv
FNDA:0,_ZN2xt14xassign_traitsINS_16xarray_containerINS_7uvectorIdSaIdEEELNS_11layout_typeE1ENS_7svectorImLm4ESaImELb1EEENS_22xtensor_expression_tagEEENS_10xgeneratorINS_6detail7fn_implINSC_6eye_fnIbEEEEbSt6vectorImS7_EEEE14simd_size_implIbEEbv
FN:344,_ZN2xt14xassign_traitsINS_16xarray_containerINS_7uvectorIdSaIdEEELNS_11layout_typeE1ENS_7svectorImLm4ESaImELb1EEENS_22xtensor_expression_tagEEENS_10xgeneratorINS_6detail7fn_implINSC_7diag_fnIRSA_EEEEdSt5arrayImLm2EEEEE14simd_size_implIdEEbv
FNDA:0,_ZN2xt14xassign_traitsINS_16xarray_containerINS_7uvectorIdSaIdEEELNS_11layout_typeE1ENS_7svectorImLm4ESaImELb1EEENS_22xtensor_expression_tagEEENS_10xgeneratorINS_6detail7fn_implINSC_7diag_fnIRSA_EEEEdSt5arrayImLm2EEEEE14simd_size_implIdEEbv
FN:344,_ZN2xt14xassign_traitsINS_16xarray_containerINS_7uvectorIdSaIdEEELNS_11layout_typeE1ENS_7svectorImLm4ESaImELb1EEENS_22xtensor_expression_tagEEENS_9xfunctionINS_6detail5minusEJRKSA_RKNSB_INSC_10multipliesEJNS_7xscalarIdEESF_EEEEEEE14simd_size_implIdEEbv
FNDA:0,_ZN2xt14xassign_traitsINS_16xarray_containerINS_7uvectorIdSaIdEEELNS_11layout_typeE1ENS_7svectorImLm4ESaImELb1EEENS_22xtensor_expression_tagEEENS_9xfunctionINS_6detail5minusEJRKSA_RKNSB_INSC_10multipliesEJNS_7xscalarIdEESF_EEEEEEE14simd_size_implIdEEbv
FN:345,_ZN2xt14xassign_traitsINS_16xarray_containerINS_7uvectorIdSaIdEEELNS_11layout_typeE1ENS_7svectorImLm4ESaImELb1EEENS_22xtensor_expression_tagEEENS_10xgeneratorINS_6detail7fn_implINSC_7diag_fnIRSA_EEEEdSt5arrayImLm2EEEEE9simd_sizeEv
FNDA:0,_ZN2xt14xassign_traitsINS_16xarray_containerINS_7uvectorIdSaIdEEELNS_11layout_typeE1ENS_7svectorImLm4ESaImELb1EEENS_22xtensor_expression_tagEEENS_10xgeneratorINS_6detail7fn_implINSC_7diag_fnIRSA_EEEEdSt5arrayImLm2EEEEE9simd_sizeEv
FN:345,_ZN2xt14xassign_traitsINS_16xarray_containerINS_7uvectorIdSaIdEEELNS_11layout_typeE1ENS_7svectorImLm4ESaImELb1EEENS_22xtensor_expression_tagEEENS_9xfunctionINS_6detail5minusEJRKSA_RKNSB_INSC_10multipliesEJNS_7xscalarIdEESF_EEEEEEE9simd_sizeEv
FNDA:0,_ZN2xt14xassign_traitsINS_16xarray_containerINS_7uvectorIdSaIdEEELNS_11layout_typeE1ENS_7svectorImLm4ESaImELb1EEENS_22xtensor_expression_tagEEENS_9xfunctionINS_6detail5minusEJRKSA_RKNSB_INSC_10multipliesEJNS_7xscalarIdEESF_EEEEEEE9simd_sizeEv
FN:345,_ZN2xt14xassign_traitsINS_16xarray_containerINS_7uvectorIdSaIdEEELNS_11layout_typeE1ENS_7svectorImLm4ESaImELb1EEENS_22xtensor_expression_tagEEENS_10xgeneratorINS_6detail7fn_implINSC_6eye_fnIbEEEEbSt6vectorImS7_EEEE9simd_sizeEv
FNDA:0,_ZN2xt14xassign_traitsINS_16xarray_containerINS_7uvectorIdSaIdEEELNS_11layout_typeE1ENS_7svectorImLm4ESaImELb1EEENS_22xtensor_expression_tagEEENS_10xgeneratorINS_6detail7fn_implINSC_6eye_fnIbEEEEbSt6vectorImS7_EEEE9simd_sizeEv
FN:346,_ZN2xt14xassign_traitsINS_16xarray_containerINS_7uvectorIdSaIdEEELNS_11layout_typeE1ENS_7svectorImLm4ESaImELb1EEENS_22xtensor_expression_tagEEENS_10xgeneratorINS_6detail7fn_implINSC_7diag_fnIRSA_EEEEdSt5arrayImLm2EEEEE14simd_interfaceEv
FNDA:0,_ZN2xt14xassign_traitsINS_16xarray_containerINS_7uvectorIdSaIdEEELNS_11layout_typeE1ENS_7svectorImLm4ESaImELb1EEENS_22xtensor_expression_tagEEENS_10xgeneratorINS_6detail7fn_implINSC_7diag_fnIRSA_EEEEdSt5arrayImLm2EEEEE14simd_interfaceEv
FN:346,_ZN2xt14xassign_traitsINS_16xarray_containerINS_7uvectorIdSaIdEEELNS_11layout_typeE1ENS_7svectorImLm4ESaImELb1EEENS_22xtensor_expression_tagEEENS_10xgeneratorINS_6detail7fn_implINSC_6eye_fnIbEEEEbSt6vectorImS7_EEEE14simd_interfaceEv
FNDA:0,_ZN2xt14xassign_traitsINS_16xarray_containerINS_7uvectorIdSaIdEEELNS_11layout_typeE1ENS_7svectorImLm4ESaImELb1EEENS_22xtensor_expression_tagEEENS_10xgeneratorINS_6detail7fn_implINSC_6eye_fnIbEEEEbSt6vectorImS7_EEEE14simd_interfaceEv
FN:346,_ZN2xt14xassign_traitsINS_16xarray_containerINS_7uvectorIdSaIdEEELNS_11layout_typeE1ENS_7svectorImLm4ESaImELb1EEENS_22xtensor_expression_tagEEENS_9xfunctionINS_6detail5minusEJRKSA_RKNSB_INSC_10multipliesEJNS_7xscalarIdEESF_EEEEEEE14simd_interfaceEv
FNDA:0,_ZN2xt14xassign_traitsINS_16xarray_containerINS_7uvectorIdSaIdEEELNS_11layout_typeE1ENS_7svectorImLm4ESaImELb1EEENS_22xtensor_expression_tagEEENS_9xfunctionINS_6detail5minusEJRKSA_RKNSB_INSC_10multipliesEJNS_7xscalarIdEESF_EEEEEEE14simd_interfaceEv
FN:354,_ZN2xt14xassign_traitsINS_16xarray_containerINS_7uvectorIdSaIdEEELNS_11layout_typeE1ENS_7svectorImLm4ESaImELb1EEENS_22xtensor_expression_tagEEENS_9xfunctionINS_6detail5minusEJRKSA_RKNSB_INSC_10multipliesEJNS_7xscalarIdEESF_EEEEEEE11simd_assignEv
FNDA:0,_ZN2xt14xassign_traitsINS_16xarray_containerINS_7uvectorIdSaIdEEELNS_11layout_typeE1ENS_7svectorImLm4ESaImELb1EEENS_22xtensor_expression_tagEEENS_9xfunctionINS_6detail5minusEJRKSA_RKNSB_INSC_10multipliesEJNS_7xscalarIdEESF_EEEEEEE11simd_assignEv
FN:354,_ZN2xt14xassign_traitsINS_16xarray_containerINS_7uvectorIdSaIdEEELNS_11layout_typeE1ENS_7svectorImLm4ESaImELb1EEENS_22xtensor_expression_tagEEENS_10xgeneratorINS_6detail7fn_implINSC_7diag_fnIRSA_EEEEdSt5arrayImLm2EEEEE11simd_assignEv
FNDA:0,_ZN2xt14xassign_traitsINS_16xarray_containerINS_7uvectorIdSaIdEEELNS_11layout_typeE1ENS_7svectorImLm4ESaImELb1EEENS_22xtensor_expression_tagEEENS_10xgeneratorINS_6detail7fn_implINSC_7diag_fnIRSA_EEEEdSt5arrayImLm2EEEEE11simd_assignEv
FN:354,_ZN2xt14xassign_traitsINS_16xarray_containerINS_7uvectorIdSaIdEEELNS_11layout_typeE1ENS_7svectorImLm4ESaImELb1EEENS_22xtensor_expression_tagEEENS_10xgeneratorINS_6detail7fn_implINSC_6eye_fnIbEEEEbSt6vectorImS7_EEEE11simd_assignEv
FNDA:0,_ZN2xt14xassign_traitsINS_16xarray_containerINS_7uvectorIdSaIdEEELNS_11layout_typeE1ENS_7svectorImLm4ESaImELb1EEENS_22xtensor_expression_tagEEENS_10xgeneratorINS_6detail7fn_implINSC_6eye_fnIbEEEEbSt6vectorImS7_EEEE11simd_assignEv
FN:355,_ZN2xt14xassign_traitsINS_16xarray_containerINS_7uvectorIdSaIdEEELNS_11layout_typeE1ENS_7svectorImLm4ESaImELb1EEENS_22xtensor_expression_tagEEENS_10xgeneratorINS_6detail7fn_implINSC_7diag_fnIRSA_EEEEdSt5arrayImLm2EEEEE13linear_assignERKSA_RKSK_b
FNDA:0,_ZN2xt14xassign_traitsINS_16xarray_containerINS_7uvectorIdSaIdEEELNS_11layout_typeE1ENS_7svectorImLm4ESaImELb1EEENS_22xtensor_expression_tagEEENS_10xgeneratorINS_6detail7fn_implINSC_7diag_fnIRSA_EEEEdSt5arrayImLm2EEEEE13linear_assignERKSA_RKSK_b
FN:355,_ZN2xt14xassign_traitsINS_16xarray_containerINS_7uvectorIdSaIdEEELNS_11layout_typeE1ENS_7svectorImLm4ESaImELb1EEENS_22xtensor_expression_tagEEENS_9xfunctionINS_6detail5minusEJRKSA_RKNSB_INSC_10multipliesEJNS_7xscalarIdEESF_EEEEEEE13linear_assignESF_RKSM_b
FNDA:0,_ZN2xt14xassign_traitsINS_16xarray_containerINS_7uvectorIdSaIdEEELNS_11layout_typeE1ENS_7svectorImLm4ESaImELb1EEENS_22xtensor_expression_tagEEENS_9xfunctionINS_6detail5minusEJRKSA_RKNSB_INSC_10multipliesEJNS_7xscalarIdEESF_EEEEEEE13linear_assignESF_RKSM_b
FN:355,_ZN2xt14xassign_traitsINS_16xarray_containerINS_7uvectorIdSaIdEEELNS_11layout_typeE1ENS_7svectorImLm4ESaImELb1EEENS_22xtensor_expression_tagEEENS_10xgeneratorINS_6detail7fn_implINSC_6eye_fnIbEEEEbSt6vectorImS7_EEEE13linear_assignERKSA_RKSJ_b
FNDA:0,_ZN2xt14xassign_traitsINS_16xarray_containerINS_7uvectorIdSaIdEEELNS_11layout_typeE1ENS_7svectorImLm4ESaImELb1EEENS_22xtensor_expression_tagEEENS_10xgeneratorINS_6detail7fn_implINSC_6eye_fnIbEEEEbSt6vectorImS7_EEEE13linear_assignERKSA_RKSJ_b
FN:360,_ZN2xt14xassign_traitsINS_16xarray_containerINS_7uvectorIdSaIdEEELNS_11layout_typeE1ENS_7svectorImLm4ESaImELb1EEENS_22xtensor_expression_tagEEENS_9xfunctionINS_6detail5minusEJRKSA_RKNSB_INSC_10multipliesEJNS_7xscalarIdEESF_EEEEEEE18simd_linear_assignESF_RKSM_
FNDA:0,_ZN2xt14xassign_traitsINS_16xarray_containerINS_7uvectorIdSaIdEEELNS_11layout_typeE1ENS_7svectorImLm4ESaImELb1EEENS_22xtensor_expression_tagEEENS_9xfunctionINS_6detail5minusEJRKSA_RKNSB_INSC_10multipliesEJNS_7xscalarIdEESF_EEEEEEE18simd_linear_assignESF_RKSM_
FN:360,_ZN2xt14xassign_traitsINS_16xarray_containerINS_7uvectorIdSaIdEEELNS_11layout_typeE1ENS_7svectorImLm4ESaImELb1EEENS_22xtensor_expression_tagEEENS_10xgeneratorINS_6detail7fn_implINSC_6eye_fnIbEEEEbSt6vectorImS7_EEEE18simd_linear_assignERKSA_RKSJ_
FNDA:0,_ZN2xt14xassign_traitsINS_16xarray_containerINS_7uvectorIdSaIdEEELNS_11layout_typeE1ENS_7svectorImLm4ESaImELb1EEENS_22xtensor_expression_tagEEENS_10xgeneratorINS_6detail7fn_implINSC_6eye_fnIbEEEEbSt6vectorImS7_EEEE18simd_linear_assignERKSA_RKSJ_
FN:360,_ZN2xt14xassign_traitsINS_16xarray_containerINS_7uvectorIdSaIdEEELNS_11layout_typeE1ENS_7svectorImLm4ESaImELb1EEENS_22xtensor_expression_tagEEENS_10xgeneratorINS_6detail7fn_implINSC_7diag_fnIRSA_EEEEdSt5arrayImLm2EEEEE18simd_linear_assignERKSA_RKSK_
FNDA:0,_ZN2xt14xassign_traitsINS_16xarray_containerINS_7uvectorIdSaIdEEELNS_11layout_typeE1ENS_7svectorImLm4ESaImELb1EEENS_22xtensor_expression_tagEEENS_10xgeneratorINS_6detail7fn_implINSC_7diag_fnIRSA_EEEEdSt5arrayImLm2EEEEE18simd_linear_assignERKSA_RKSK_
FN:372,_ZN2xt25xexpression_assigner_baseINS_22xtensor_expression_tagEE11assign_dataINS_16xarray_containerINS_7uvectorIdSaIdEEELNS_11layout_typeE1ENS_7svectorImLm4ESaImELb1EEES1_EENS_9xfunctionINS_6detail5minusEJRKSC_RKNSD_INSE_10multipliesEJNS_7xscalarIdEESH_EEEEEEEEvRNS_11xexpressionIT_EERKNSP_IT0_EEb
FNDA:0,_ZN2xt25xexpression_assigner_baseINS_22xtensor_expression_tagEE11assign_dataINS_16xarray_containerINS_7uvectorIdSaIdEEELNS_11layout_typeE1ENS_7svectorImLm4ESaImELb1EEES1_EENS_9xfunctionINS_6detail5minusEJRKSC_RKNSD_INSE_10multipliesEJNS_7xscalarIdEESH_EEEEEEEEvRNS_11xexpressionIT_EERKNSP_IT0_EEb
FN:372,_ZN2xt25xexpression_assigner_baseINS_22xtensor_expression_tagEE11assign_dataINS_16xarray_containerINS_7uvectorIdSaIdEEELNS_11layout_typeE1ENS_7svectorImLm4ESaImELb1EEES1_EENS_10xgeneratorINS_6detail7fn_implINSE_7diag_fnIRSC_EEEEdSt5arrayImLm2EEEEEEvRNS_11xexpressionIT_EERKNSN_IT0_EEb
FNDA:0,_ZN2xt25xexpression_assigner_baseINS_22xtensor_expression_tagEE11assign_dataINS_16xarray_containerINS_7uvectorIdSaIdEEELNS_11layout_typeE1ENS_7svectorImLm4ESaImELb1EEES1_EENS_10xgeneratorINS_6detail7fn_implINSE_7diag_fnIRSC_EEEEdSt5arrayImLm2EEEEEEvRNS_11xexpressionIT_EERKNSN_IT0_EEb
FN:372,_ZN2xt25xexpression_assigner_baseINS_22xtensor_expression_tagEE11assign_dataINS_16xarray_containerINS_7uvectorIdSaIdEEELNS_11layout_typeE1ENS_7svectorImLm4ESaImELb1EEES1_EENS_10xgeneratorINS_6detail7fn_implINSE_6eye_fnIbEEEEbSt6vectorImSA_EEEEEvRNS_11xexpressionIT_EERKNSM_IT0_EEb
FNDA:0,_ZN2xt25xexpression_assigner_baseINS_22xtensor_expression_tagEE11assign_dataINS_16xarray_containerINS_7uvectorIdSaIdEEELNS_11layout_typeE1ENS_7svectorImLm4ESaImELb1EEES1_EENS_10xgeneratorINS_6detail7fn_implINSE_6eye_fnIbEEEEbSt6vectorImSA_EEEEEvRNS_11xexpressionIT_EERKNSM_IT0_EEb
FN:411,_ZN2xt20xexpression_assignerINS_22xtensor_expression_tagEE18assign_xexpressionINS_11xexpressionINS_16xarray_containerINS_7uvectorIdSaIdEEELNS_11layout_typeE1ENS_7svectorImLm4ESaImELb1EEES1_EEEENS4_INS_10xgeneratorINS_6detail7fn_implINSG_6eye_fnIbEEEEbSt6vectorImSB_EEEEEEEvRT_RKT0_
FNDA:0,_ZN2xt20xexpression_assignerINS_22xtensor_expression_tagEE18assign_xexpressionINS_11xexpressionINS_16xarray_containerINS_7uvectorIdSaIdEEELNS_11layout_typeE1ENS_7svectorImLm4ESaImELb1EEES1_EEEENS4_INS_10xgeneratorINS_6detail7fn_implINSG_6eye_fnIbEEEEbSt6vectorImSB_EEEEEEEvRT_RKT0_
FN:411,_ZN2xt20xexpression_assignerINS_22xtensor_expression_tagEE18assign_xexpressionINS_11xexpressionINS_16xarray_containerINS_7uvectorIdSaIdEEELNS_11layout_typeE1ENS_7svectorImLm4ESaImELb1EEES1_EEEENS4_INS_10xgeneratorINS_6detail7fn_implINSG_7diag_fnIRSD_EEEEdSt5arrayImLm2EEEEEEEEvRT_RKT0_
FNDA:0,_ZN2xt20xexpression_assignerINS_22xtensor_expression_tagEE18assign_xexpressionINS_11xexpressionINS_16xarray_containerINS_7uvectorIdSaIdEEELNS_11layout_typeE1ENS_7svectorImLm4ESaImELb1EEES1_EEEENS4_INS_10xgeneratorINS_6detail7fn_implINSG_7diag_fnIRSD_EEEEdSt5arrayImLm2EEEEEEEEvRT_RKT0_
FN:411,_ZN2xt20xexpression_assignerINS_22xtensor_expression_tagEE18assign_xexpressionINS_11xexpressionINS_16xarray_containerINS_7uvectorIdSaIdEEELNS_11layout_typeE1ENS_7svectorImLm4ESaImELb1EEES1_EEEENS4_INS_9xfunctionINS_6detail5minusEJRKSD_RKNSF_INSG_10multipliesEJNS_7xscalarIdEESJ_EEEEEEEEEEvRT_RKT0_
FNDA:0,_ZN2xt20xexpression_assignerINS_22xtensor_expression_tagEE18assign_xexpressionINS_11xexpressionINS_16xarray_containerINS_7uvectorIdSaIdEEELNS_11layout_typeE1ENS_7svectorImLm4ESaImELb1EEES1_EEEENS4_INS_9xfunctionINS_6detail5minusEJRKSD_RKNSF_INSG_10multipliesEJNS_7xscalarIdEESJ_EEEEEEEEEEvRT_RKT0_
FN:449,_ZN2xt20xexpression_assignerINS_22xtensor_expression_tagEE22scalar_computed_assignINS_16xarray_containerINS_7uvectorIdSaIdEEELNS_11layout_typeE1ENS_7svectorImLm4ESaImELb1EEES1_EEdSt10multipliesIvEEEvRNS_11xexpressionIT_EERKT0_OT1_
FNDA:0,_ZN2xt20xexpression_assignerINS_22xtensor_expression_tagEE22scalar_computed_assignINS_16xarray_containerINS_7uvectorIdSaIdEEELNS_11layout_typeE1ENS_7svectorImLm4ESaImELb1EEES1_EEdSt10multipliesIvEEEvRNS_11xexpressionIT_EERKT0_OT1_
FN:493,_ZN2xt20xexpression_assignerINS_22xtensor_expression_tagEE6resizeINS_16xarray_containerINS_7uvectorIdSaIdEEELNS_11layout_typeE1ENS_7svectorImLm4ESaImELb1EEES1_EENS_10xgeneratorINS_6detail7fn_implINSE_7diag_fnIRSC_EEEEdSt5arrayImLm2EEEEEEbRT_RKT0_
FNDA:0,_ZN2xt20xexpression_assignerINS_22xtensor_expression_tagEE6resizeINS_16xarray_containerINS_7uvectorIdSaIdEEELNS_11layout_typeE1ENS_7svectorImLm4ESaImELb1EEES1_EENS_10xgeneratorINS_6detail7fn_implINSE_7diag_fnIRSC_EEEEdSt5arrayImLm2EEEEEEbRT_RKT0_
FN:493,_ZN2xt20xexpression_assignerINS_22xtensor_expression_tagEE6resizeINS_16xarray_containerINS_7uvectorIdSaIdEEELNS_11layout_typeE1ENS_7svectorImLm4ESaImELb1EEES1_EENS_10xgeneratorINS_6detail7fn_implINSE_6eye_fnIbEEEEbSt6vectorImSA_EEEEEbRT_RKT0_
FNDA:0,_ZN2xt20xexpression_assignerINS_22xtensor_expression_tagEE6resizeINS_16xarray_containerINS_7uvectorIdSaIdEEELNS_11layout_typeE1ENS_7svectorImLm4ESaImELb1EEES1_EENS_10xgeneratorINS_6detail7fn_implINSE_6eye_fnIbEEEEbSt6vectorImSA_EEEEEbRT_RKT0_
FN:504,_ZN2xt20xexpression_assignerINS_22xtensor_expression_tagEE6resizeINS_16xarray_containerINS_7uvectorIdSaIdEEELNS_11layout_typeE1ENS_7svectorImLm4ESaImELb1EEES1_EENS_6detail5minusEJRKSC_RKNS_9xfunctionINSD_10multipliesEJNS_7xscalarIdEESG_EEEEEEbRT_RKNSH_IT0_JDpT1_EEE
FNDA:0,_ZN2xt20xexpression_assignerINS_22xtensor_expression_tagEE6resizeINS_16xarray_containerINS_7uvectorIdSaIdEEELNS_11layout_typeE1ENS_7svectorImLm4ESaImELb1EEES1_EENS_6detail5minusEJRKSC_RKNS_9xfunctionINSD_10multipliesEJNS_7xscalarIdEESG_EEEEEEbRT_RKNSH_IT0_JDpT1_EEE
FN:516,_ZZN2xt20xexpression_assignerINS_22xtensor_expression_tagEE6resizeINS_16xarray_containerINS_7uvectorIdSaIdEEELNS_11layout_typeE1ENS_7svectorImLm4ESaImELb1EEES1_EENS_6detail5minusEJRKSC_RKNS_9xfunctionINSD_10multipliesEJNS_7xscalarIdEESG_EEEEEEbRT_RKNSH_IT0_JDpT1_EEEENKUlSO_E0_clIN3xtl8identityEEEDaSO_
FNDA:0,_ZZN2xt20xexpression_assignerINS_22xtensor_expression_tagEE6resizeINS_16xarray_containerINS_7uvectorIdSaIdEEELNS_11layout_typeE1ENS_7svectorImLm4ESaImELb1EEES1_EENS_6detail5minusEJRKSC_RKNS_9xfunctionINSD_10multipliesEJNS_7xscalarIdEESG_EEEEEEbRT_RKNSH_IT0_JDpT1_EEEENKUlSO_E0_clIN3xtl8identityEEEDaSO_
FN:564,_ZN2xt16stepper_assignerINS_16xarray_containerINS_7uvectorIdSaIdEEELNS_11layout_typeE1ENS_7svectorImLm4ESaImELb1EEENS_22xtensor_expression_tagEEENS_10xgeneratorINS_6detail7fn_implINSC_7diag_fnIRSA_EEEEdSt5arrayImLm2EEEELS5_1EEC2ESF_RKSK_
FNDA:0,_ZN2xt16stepper_assignerINS_16xarray_containerINS_7uvectorIdSaIdEEELNS_11layout_typeE1ENS_7svectorImLm4ESaImELb1EEENS_22xtensor_expression_tagEEENS_10xgeneratorINS_6detail7fn_implINSC_7diag_fnIRSA_EEEEdSt5arrayImLm2EEEELS5_1EEC2ESF_RKSK_
FN:564,_ZN2xt16stepper_assignerINS_16xarray_containerINS_7uvectorIdSaIdEEELNS_11layout_typeE1ENS_7svectorImLm4ESaImELb1EEENS_22xtensor_expression_tagEEENS_10xgeneratorINS_6detail7fn_implINSC_6eye_fnIbEEEEbSt6vectorImS7_EEELS5_1EEC2ERSA_RKSJ_
FNDA:0,_ZN2xt16stepper_assignerINS_16xarray_containerINS_7uvectorIdSaIdEEELNS_11layout_typeE1ENS_7svectorImLm4ESaImELb1EEENS_22xtensor_expression_tagEEENS_10xgeneratorINS_6detail7fn_implINSC_6eye_fnIbEEEEbSt6vectorImS7_EEELS5_1EEC2ERSA_RKSJ_
FN:564,_ZN2xt16stepper_assignerINS_16xarray_containerINS_7uvectorIdSaIdEEELNS_11layout_typeE1ENS_7svectorImLm4ESaImELb1EEENS_22xtensor_expression_tagEEENS_9xfunctionINS_6detail5minusEJRKSA_RKNSB_INSC_10multipliesEJNS_7xscalarIdEESF_EEEEEELS5_1EEC2ERSA_RKSM_
FNDA:0,_ZN2xt16stepper_assignerINS_16xarray_containerINS_7uvectorIdSaIdEEELNS_11layout_typeE1ENS_7svectorImLm4ESaImELb1EEENS_22xtensor_expression_tagEEENS_9xfunctionINS_6detail5minusEJRKSA_RKNSB_INSC_10multipliesEJNS_7xscalarIdEESF_EEEEEELS5_1EEC2ERSA_RKSM_
FN:572,_ZN2xt16stepper_assignerINS_16xarray_containerINS_7uvectorIdSaIdEEELNS_11layout_typeE1ENS_7svectorImLm4ESaImELb1EEENS_22xtensor_expression_tagEEENS_10xgeneratorINS_6detail7fn_implINSC_7diag_fnIRSA_EEEEdSt5arrayImLm2EEEELS5_1EE3runEv
FNDA:0,_ZN2xt16stepper_assignerINS_16xarray_containerINS_7uvectorIdSaIdEEELNS_11layout_typeE1ENS_7svectorImLm4ESaImELb1EEENS_22xtensor_expression_tagEEENS_10xgeneratorINS_6detail7fn_implINSC_7diag_fnIRSA_EEEEdSt5arrayImLm2EEEELS5_1EE3runEv
FN:572,_ZN2xt16stepper_assignerINS_16xarray_containerINS_7uvectorIdSaIdEEELNS_11layout_typeE1ENS_7svectorImLm4ESaImELb1EEENS_22xtensor_expression_tagEEENS_10xgeneratorINS_6detail7fn_implINSC_6eye_fnIbEEEEbSt6vectorImS7_EEELS5_1EE3runEv
FNDA:0,_ZN2xt16stepper_assignerINS_16xarray_containerINS_7uvectorIdSaIdEEELNS_11layout_typeE1ENS_7svectorImLm4ESaImELb1EEENS_22xtensor_expression_tagEEENS_10xgeneratorINS_6detail7fn_implINSC_6eye_fnIbEEEEbSt6vectorImS7_EEELS5_1EE3runEv
FN:572,_ZN2xt16stepper_assignerINS_16xarray_containerINS_7uvectorIdSaIdEEELNS_11layout_typeE1ENS_7svectorImLm4ESaImELb1EEENS_22xtensor_expression_tagEEENS_9xfunctionINS_6detail5minusEJRKSA_RKNSB_INSC_10multipliesEJNS_7xscalarIdEESF_EEEEEELS5_1EE3runEv
FNDA:0,_ZN2xt16stepper_assignerINS_16xarray_containerINS_7uvectorIdSaIdEEELNS_11layout_typeE1ENS_7svectorImLm4ESaImELb1EEENS_22xtensor_expression_tagEEENS_9xfunctionINS_6detail5minusEJRKSA_RKNSB_INSC_10multipliesEJNS_7xscalarIdEESF_EEEEEELS5_1EE3runEv
FN:588,_ZN2xt16stepper_assignerINS_16xarray_containerINS_7uvectorIdSaIdEEELNS_11layout_typeE1ENS_7svectorImLm4ESaImELb1EEENS_22xtensor_expression_tagEEENS_9xfunctionINS_6detail5minusEJRKSA_RKNSB_INSC_10multipliesEJNS_7xscalarIdEESF_EEEEEELS5_1EE4stepEm
FNDA:0,_ZN2xt16stepper_assignerINS_16xarray_containerINS_7uvectorIdSaIdEEELNS_11layout_typeE1ENS_7svectorImLm4ESaImELb1EEENS_22xtensor_expression_tagEEENS_9xfunctionINS_6detail5minusEJRKSA_RKNSB_INSC_10multipliesEJNS_7xscalarIdEESF_EEEEEELS5_1EE4stepEm
FN:588,_ZN2xt16stepper_assignerINS_16xarray_containerINS_7uvectorIdSaIdEEELNS_11layout_typeE1ENS_7svectorImLm4ESaImELb1EEENS_22xtensor_expression_tagEEENS_10xgeneratorINS_6detail7fn_implINSC_7diag_fnIRSA_EEEEdSt5arrayImLm2EEEELS5_1EE4stepEm
FNDA:0,_ZN2xt16stepper_assignerINS_16xarray_containerINS_7uvectorIdSaIdEEELNS_11layout_typeE1ENS_7svectorImLm4ESaImELb1EEENS_22xtensor_expression_tagEEENS_10xgeneratorINS_6detail7fn_implINSC_7diag_fnIRSA_EEEEdSt5arrayImLm2EEEELS5_1EE4stepEm
FN:588,_ZN2xt16stepper_assignerINS_16xarray_containerINS_7uvectorIdSaIdEEELNS_11layout_typeE1ENS_7svectorImLm4ESaImELb1EEENS_22xtensor_expression_tagEEENS_10xgeneratorINS_6detail7fn_implINSC_6eye_fnIbEEEEbSt6vectorImS7_EEELS5_1EE4stepEm
FNDA:0,_ZN2xt16stepper_assignerINS_16xarray_containerINS_7uvectorIdSaIdEEELNS_11layout_typeE1ENS_7svectorImLm4ESaImELb1EEENS_22xtensor_expression_tagEEENS_10xgeneratorINS_6detail7fn_implINSC_6eye_fnIbEEEEbSt6vectorImS7_EEELS5_1EE4stepEm
FN:602,_ZN2xt16stepper_assignerINS_16xarray_containerINS_7uvectorIdSaIdEEELNS_11layout_typeE1ENS_7svectorImLm4ESaImELb1EEENS_22xtensor_expression_tagEEENS_9xfunctionINS_6detail5minusEJRKSA_RKNSB_INSC_10multipliesEJNS_7xscalarIdEESF_EEEEEELS5_1EE5resetEm
FNDA:0,_ZN2xt16stepper_assignerINS_16xarray_containerINS_7uvectorIdSaIdEEELNS_11layout_typeE1ENS_7svectorImLm4ESaImELb1EEENS_22xtensor_expression_tagEEENS_9xfunctionINS_6detail5minusEJRKSA_RKNSB_INSC_10multipliesEJNS_7xscalarIdEESF_EEEEEELS5_1EE5resetEm
FN:602,_ZN2xt16stepper_assignerINS_16xarray_containerINS_7uvectorIdSaIdEEELNS_11layout_typeE1ENS_7svectorImLm4ESaImELb1EEENS_22xtensor_expression_tagEEENS_10xgeneratorINS_6detail7fn_implINSC_7diag_fnIRSA_EEEEdSt5arrayImLm2EEEELS5_1EE5resetEm
FNDA:0,_ZN2xt16stepper_assignerINS_16xarray_containerINS_7uvectorIdSaIdEEELNS_11layout_typeE1ENS_7svectorImLm4ESaImELb1EEENS_22xtensor_expression_tagEEENS_10xgeneratorINS_6detail7fn_implINSC_7diag_fnIRSA_EEEEdSt5arrayImLm2EEEELS5_1EE5resetEm
FN:602,_ZN2xt16stepper_assignerINS_16xarray_containerINS_7uvectorIdSaIdEEELNS_11layout_typeE1ENS_7svectorImLm4ESaImELb1EEENS_22xtensor_expression_tagEEENS_10xgeneratorINS_6detail7fn_implINSC_6eye_fnIbEEEEbSt6vectorImS7_EEELS5_1EE5resetEm
FNDA:0,_ZN2xt16stepper_assignerINS_16xarray_containerINS_7uvectorIdSaIdEEELNS_11layout_typeE1ENS_7svectorImLm4ESaImELb1EEENS_22xtensor_expression_tagEEENS_10xgeneratorINS_6detail7fn_implINSC_6eye_fnIbEEEEbSt6vectorImS7_EEELS5_1EE5resetEm
FN:609,_ZN2xt16stepper_assignerINS_16xarray_containerINS_7uvectorIdSaIdEEELNS_11layout_typeE1ENS_7svectorImLm4ESaImELb1EEENS_22xtensor_expression_tagEEENS_10xgeneratorINS_6detail7fn_implINSC_7diag_fnIRSA_EEEEdSt5arrayImLm2EEEELS5_1EE6to_endES5_
FNDA:0,_ZN2xt16stepper_assignerINS_16xarray_containerINS_7uvectorIdSaIdEEELNS_11layout_typeE1ENS_7svectorImLm4ESaImELb1EEENS_22xtensor_expression_tagEEENS_10xgeneratorINS_6detail7fn_implINSC_7diag_fnIRSA_EEEEdSt5arrayImLm2EEEELS5_1EE6to_endES5_
FN:609,_ZN2xt16stepper_assignerINS_16xarray_containerINS_7uvectorIdSaIdEEELNS_11layout_typeE1ENS_7svectorImLm4ESaImELb1EEENS_22xtensor_expression_tagEEENS_10xgeneratorINS_6detail7fn_implINSC_6eye_fnIbEEEEbSt6vectorImS7_EEELS5_1EE6to_endES5_
FNDA:0,_ZN2xt16stepper_assignerINS_16xarray_containerINS_7uvectorIdSaIdEEELNS_11layout_typeE1ENS_7svectorImLm4ESaImELb1EEENS_22xtensor_expression_tagEEENS_10xgeneratorINS_6detail7fn_implINSC_6eye_fnIbEEEEbSt6vectorImS7_EEELS5_1EE6to_endES5_
FN:609,_ZN2xt16stepper_assignerINS_16xarray_containerINS_7uvectorIdSaIdEEELNS_11layout_typeE1ENS_7svectorImLm4ESaImELb1EEENS_22xtensor_expression_tagEEENS_9xfunctionINS_6detail5minusEJRKSA_RKNSB_INSC_10multipliesEJNS_7xscalarIdEESF_EEEEEELS5_1EE6to_endES5_
FNDA:0,_ZN2xt16stepper_assignerINS_16xarray_containerINS_7uvectorIdSaIdEEELNS_11layout_typeE1ENS_7svectorImLm4ESaImELb1EEENS_22xtensor_expression_tagEEENS_9xfunctionINS_6detail5minusEJRKSA_RKNSB_INSC_10multipliesEJNS_7xscalarIdEESF_EEEEEELS5_1EE6to_endES5_
FN:696,_ZN2xt15linear_assignerILb0EE3runINS_16xarray_containerINS_7uvectorIdSaIdEEELNS_11layout_typeE1ENS_7svectorImLm4ESaImELb1EEENS_22xtensor_expression_tagEEENS_10xgeneratorINS_6detail7fn_implINSE_7diag_fnIRSC_EEEEdSt5arrayImLm2EEEEEEvRT_RKT0_
FNDA:0,_ZN2xt15linear_assignerILb0EE3runINS_16xarray_containerINS_7uvectorIdSaIdEEELNS_11layout_typeE1ENS_7svectorImLm4ESaImELb1EEENS_22xtensor_expression_tagEEENS_10xgeneratorINS_6detail7fn_implINSE_7diag_fnIRSC_EEEEdSt5arrayImLm2EEEEEEvRT_RKT0_
FN:696,_ZN2xt15linear_assignerILb0EE3runINS_16xarray_containerINS_7uvectorIdSaIdEEELNS_11layout_typeE1ENS_7svectorImLm4ESaImELb1EEENS_22xtensor_expression_tagEEENS_9xfunctionINS_6detail5minusEJRKSC_RKNSD_INSE_10multipliesEJNS_7xscalarIdEESH_EEEEEEEEvRT_RKT0_
FNDA:0,_ZN2xt15linear_assignerILb0EE3runINS_16xarray_containerINS_7uvectorIdSaIdEEELNS_11layout_typeE1ENS_7svectorImLm4ESaImELb1EEENS_22xtensor_expression_tagEEENS_9xfunctionINS_6detail5minusEJRKSC_RKNSD_INSE_10multipliesEJNS_7xscalarIdEESH_EEEEEEEEvRT_RKT0_
FN:696,_ZN2xt15linear_assignerILb0EE3runINS_16xarray_containerINS_7uvectorIdSaIdEEELNS_11layout_typeE1ENS_7svectorImLm4ESaImELb1EEENS_22xtensor_expression_tagEEENS_10xgeneratorINS_6detail7fn_implINSE_6eye_fnIbEEEEbSt6vectorImS9_EEEEEvRT_RKT0_
FNDA:0,_ZN2xt15linear_assignerILb0EE3runINS_16xarray_containerINS_7uvectorIdSaIdEEELNS_11layout_typeE1ENS_7svectorImLm4ESaImELb1EEENS_22xtensor_expression_tagEEENS_10xgeneratorINS_6detail7fn_implINSE_6eye_fnIbEEEEbSt6vectorImS9_EEEEEvRT_RKT0_
FN:707,_ZN2xt15linear_assignerILb0EE8run_implINS_16xarray_containerINS_7uvectorIdSaIdEEELNS_11layout_typeE1ENS_7svectorImLm4ESaImELb1EEENS_22xtensor_expression_tagEEENS_10xgeneratorINS_6detail7fn_implINSE_6eye_fnIbEEEEbSt6vectorImS9_EEEEEvRT_RKT0_St17integral_constantIbLb1EE
FNDA:0,_ZN2xt15linear_assignerILb0EE8run_implINS_16xarray_containerINS_7uvectorIdSaIdEEELNS_11layout_typeE1ENS_7svectorImLm4ESaImELb1EEENS_22xtensor_expression_tagEEENS_10xgeneratorINS_6detail7fn_implINSE_6eye_fnIbEEEEbSt6vectorImS9_EEEEEvRT_RKT0_St17integral_constantIbLb1EE
FN:707,_ZN2xt15linear_assignerILb0EE8run_implINS_16xarray_containerINS_7uvectorIdSaIdEEELNS_11layout_typeE1ENS_7svectorImLm4ESaImELb1EEENS_22xtensor_expression_tagEEENS_10xgeneratorINS_6detail7fn_implINSE_7diag_fnIRSC_EEEEdSt5arrayImLm2EEEEEEvRT_RKT0_St17integral_constantIbLb1EE
FNDA:0,_ZN2xt15linear_assignerILb0EE8run_implINS_16xarray_containerINS_7uvectorIdSaIdEEELNS_11layout_typeE1ENS_7svectorImLm4ESaImELb1EEENS_22xtensor_expression_tagEEENS_10xgeneratorINS_6detail7fn_implINSE_7diag_fnIRSC_EEEEdSt5arrayImLm2EEEEEEvRT_RKT0_St17integral_constantIbLb1EE
FN:707,_ZN2xt15linear_assignerILb0EE8run_implINS_16xarray_containerINS_7uvectorIdSaIdEEELNS_11layout_typeE1ENS_7svectorImLm4ESaImELb1EEENS_22xtensor_expression_tagEEENS_9xfunctionINS_6detail5minusEJRKSC_RKNSD_INSE_10multipliesEJNS_7xscalarIdEESH_EEEEEEEEvRT_RKT0_St17integral_constantIbLb1EE
FNDA:0,_ZN2xt15linear_assignerILb0EE8run_implINS_16xarray_containerINS_7uvectorIdSaIdEEELNS_11layout_typeE1ENS_7svectorImLm4ESaImELb1EEENS_22xtensor_expression_tagEEENS_9xfunctionINS_6detail5minusEJRKSC_RKNSD_INSE_10multipliesEJNS_7xscalarIdEESH_EEEEEEEEvRT_RKT0_St17integral_constantIbLb1EE
DA:197,0
DA:199,0
DA:207,0
DA:197,0
DA:199,0
DA:207,0
DA:197,0
DA:199,0
DA:207,0
DA:197,0
DA:199,0
DA:207,0
DA:199,0
DA:201,0
DA:202,0
DA:202,0
DA:202,0
DA:205,0
DA:217,0
DA:220,0
DA:221,0
DA:237,0
DA:242,0
DA:243,0
DA:247,0
DA:249,0
DA:250,0
DA:247,0
DA:250,0
DA:247,0
DA:250,0
DA:260,0
DA:262,0
DA:263,0
DA:264,0
DA:260,0
DA:262,0
DA:263,0
DA:264,0
DA:260,0
DA:262,0
DA:263,0
DA:264,0
DA:336,0
DA:336,0
DA:336,0
DA:338,0
DA:339,0
DA:338,0
DA:339,0
DA:338,0
DA:339,0
DA:341,0
DA:344,0
DA:344,0
DA:344,0
DA:344,0
DA:345,0
DA:345,0
DA:345,0
DA:346,0
DA:347,0
DA:346,0
DA:347,0
DA:346,0
DA:347,0
DA:354,0
DA:354,0
DA:354,0
DA:355,0
DA:355,0
DA:355,0
DA:360,0
DA:361,0
DA:360,0
DA:361,0
DA:360,0
DA:361,0
DA:372,0
DA:374,0
DA:375,0
DA:378,0
DA:379,0
DA:380,0
DA:381,0
DA:382,0
DA:384,0
DA:391,0
DA:395,0
DA:404,0
DA:405,0
DA:406,0
DA:407,0
DA:372,0
DA:374,0
DA:375,0
DA:378,0
DA:379,0
DA:380,0
DA:381,0
DA:382,0
DA:384,0
DA:391,0
DA:395,0
DA:404,0
DA:405,0
DA:406,0
DA:407,0
DA:372,0
DA:374,0
DA:375,0
DA:378,0
DA:379,0
DA:380,0
DA:381,0
DA:382,0
DA:384,0
DA:391,0
DA:395,0
DA:404,0
DA:405,0
DA:406,0
DA:407,0
DA:411,0
DA:413,0
DA:414,0
DA:415,0
DA:411,0
DA:413,0
DA:414,0
DA:415,0
DA:411,0
DA:413,0
DA:414,0
DA:415,0
DA:449,0
DA:451,0
DA:453,0
DA:454,0
DA:456,0
DA:457,0
DA:459,0
DA:493,0
DA:498,0
DA:499,0
DA:493,0
DA:498,0
DA:499,0
DA:504,0
DA:506,0
DA:516,0
DA:520,0
DA:521,0
DA:522,0
DA:523,0
DA:524,0
DA:525,0
DA:526,0
DA:564,0
DA:565,0
DA:566,0
DA:567,0
DA:569,0
DA:564,0
DA:565,0
DA:566,0
DA:567,0
DA:569,0
DA:564,0
DA:565,0
DA:566,0
DA:567,0
DA:569,0
DA:572,0
DA:577,0
DA:579,0
DA:580,0
DA:582,0
DA:583,0
DA:585,0
DA:572,0
DA:577,0
DA:579,0
DA:580,0
DA:582,0
DA:583,0
DA:585,0
DA:572,0
DA:577,0
DA:579,0
DA:580,0
DA:582,0
DA:583,0
DA:585,0
DA:588,0
DA:590,0
DA:591,0
DA:592,0
DA:588,0
DA:590,0
DA:591,0
DA:592,0
DA:588,0
DA:590,0
DA:591,0
DA:592,0
DA:602,0
DA:604,0
DA:605,0
DA:606,0
DA:602,0
DA:604,0
DA:605,0
DA:606,0
DA:602,0
DA:604,0
DA:605,0
DA:606,0
DA:609,0
DA:611,0
DA:612,0
DA:613,0
DA:609,0
DA:611,0
DA:612,0
DA:613,0
DA:609,0
DA:611,0
DA:612,0
DA:613,0
DA:696,0
DA:703,0
DA:704,0
DA:696,0
DA:703,0
DA:704,0
DA:696,0
DA:703,0
DA:704,0
DA:707,0
DA:707,0
DA:707,0
DA:711,0
DA:712,0
DA:713,0
DA:727,0
DA:729,0
DA:730,0
DA:731,0
DA:734,0
end_of_record
SF:/workspace/.xmake/packages/x/xtensor/0.24.3/7589bb6431db4fba90e4d138dda37226/include/xtensor/xgenerator.hpp
FN:213,_ZN2xt10xgeneratorINS_6detail7fn_implINS1_7diag_fnIRNS_16xarray_containerINS_7uvectorIdSaIdEEELNS_11layout_typeE1ENS_7svectorImLm4ESaImELb1EEENS_22xtensor_expression_tagEEEEEEEdSt5arrayImLm2EEEC2ISG_EEOT_RKSI_
FNDA:0,_ZN2xt10xgeneratorINS_6detail7fn_implINS1_7diag_fnIRNS_16xarray_containerINS_7uvectorIdSaIdEEELNS_11layout_typeE1ENS_7svectorImLm4ESaImELb1EEENS_22xtensor_expression_tagEEEEEEEdSt5arrayImLm2EEEC2ISG_EEOT_RKSI_
FN:213,_ZN2xt10xgeneratorINS_6detail7fn_implINS1_6eye_fnIbEEEEbSt6vectorImSaImEEEC2IS5_EEOT_RKS8_
FNDA:0,_ZN2xt10xgeneratorINS_6detail7fn_implINS1_6eye_fnIbEEEEbSt6vectorImSaImEEEC2IS5_EEOT_RKS8_
FN:227,_ZNK2xt10xgeneratorINS_6detail7fn_implINS1_7diag_fnIRNS_16xarray_containerINS_7uvectorIdSaIdEEELNS_11layout_typeE1ENS_7svectorImLm4ESaImELb1EEENS_22xtensor_expression_tagEEEEEEEdSt5arrayImLm2EEE5shapeEv
FNDA:0,_ZNK2xt10xgeneratorINS_6detail7fn_implINS1_7diag_fnIRNS_16xarray_containerINS_7uvectorIdSaIdEEELNS_11layout_typeE1ENS_7svectorImLm4ESaImELb1EEENS_22xtensor_expression_tagEEEEEEEdSt5arrayImLm2EEE5shapeEv
FN:227,_ZNK2xt10xgeneratorINS_6detail7fn_implINS1_6eye_fnIbEEEEbSt6vectorImSaImEEE5shapeEv
FNDA:0,_ZNK2xt10xgeneratorINS_6detail7fn_implINS1_6eye_fnIbEEEEbSt6vectorImSaImEEE5shapeEv
FN:233,_ZNK2xt10xgeneratorINS_6detail7fn_implINS1_6eye_fnIbEEEEbSt6vectorImSaImEEE6layoutEv
FNDA:0,_ZNK2xt10xgeneratorINS_6detail7fn_implINS1_6eye_fnIbEEEEbSt6vectorImSaImEEE6layoutEv
FN:233,_ZNK2xt10xgeneratorINS_6detail7fn_implINS1_7diag_fnIRNS_16xarray_containerINS_7uvectorIdSaIdEEELNS_11layout_typeE1ENS_7svectorImLm4ESaImELb1EEENS_22xtensor_expression_tagEEEEEEEdSt5arrayImLm2EEE6layoutEv
FNDA:0,_ZNK2xt10xgeneratorINS_6detail7fn_implINS1_7diag_fnIRNS_16xarray_containerINS_7uvectorIdSaIdEEELNS_11layout_typeE1ENS_7svectorImLm4ESaImELb1EEENS_22xtensor_expression_tagEEEEEEEdSt5arrayImLm2EEE6layoutEv
FN:239,_ZNK2xt10xgeneratorINS_6detail7fn_implINS1_6eye_fnIbEEEEbSt6vectorImSaImEEE13is_contiguousEv
FNDA:0,_ZNK2xt10xgeneratorINS_6detail7fn_implINS1_6eye_fnIbEEEEbSt6vectorImSaImEEE13is_contiguousEv
FN:239,_ZNK2xt10xgeneratorINS_6detail7fn_implINS1_7diag_fnIRNS_16xarray_containerINS_7uvectorIdSaIdEEELNS_11layout_typeE1ENS_7svectorImLm4ESaImELb1EEENS_22xtensor_expression_tagEEEEEEEdSt5arrayImLm2EEE13is_contiguousEv
FNDA:0,_ZNK2xt10xgeneratorINS_6detail7fn_implINS1_7diag_fnIRNS_16xarray_containerINS_7uvectorIdSaIdEEELNS_11layout_typeE1ENS_7svectorImLm4ESaImELb1EEENS_22xtensor_expression_tagEEEEEEEdSt5arrayImLm2EEE13is_contiguousEv
FN:299,_ZNK2xt10xgeneratorINS_6detail7fn_implINS1_6eye_fnIbEEEEbSt6vectorImSaImEEE7elementIPKmEEbT_SD_
FNDA:0,_ZNK2xt10xgeneratorINS_6detail7fn_implINS1_6eye_fnIbEEEEbSt6vectorImSaImEEE7elementIPKmEEbT_SD_
FN:299,_ZNK2xt10xgeneratorINS_6detail7fn_implINS1_7diag_fnIRNS_16xarray_containerINS_7uvectorIdSaIdEEELNS_11layout_typeE1ENS_7svectorImLm4ESaImELb1EEENS_22xtensor_expression_tagEEEEEEEdSt5arrayImLm2EEE7elementIPKmEEdT_SN_
FNDA:0,_ZNK2xt10xgeneratorINS_6detail7fn_implINS1_7diag_fnIRNS_16xarray_containerINS_7uvectorIdSaIdEEELNS_11layout_typeE1ENS_7svectorImLm4ESaImELb1EEENS_22xtensor_expression_tagEEEEEEEdSt5arrayImLm2EEE7elementIPKmEEdT_SN_
FN:331,_ZNK2xt10xgeneratorINS_6detail7fn_implINS1_6eye_fnIbEEEEbSt6vectorImSaImEEE17has_linear_assignINS_7svectorIlLm4ESaIlELb1EEEEEbRKT_
FNDA:0,_ZNK2xt10xgeneratorINS_6detail7fn_implINS1_6eye_fnIbEEEEbSt6vectorImSaImEEE17has_linear_assignINS_7svectorIlLm4ESaIlELb1EEEEEbRKT_
FN:331,_ZNK2xt10xgeneratorINS_6detail7fn_implINS1_7diag_fnIRNS_16xarray_containerINS_7uvectorIdSaIdEEELNS_11layout_typeE1ENS_7svectorImLm4ESaImELb1EEENS_22xtensor_expression_tagEEEEEEEdSt5arrayImLm2EEE17has_linear_assignINS9_IlLm4ESaIlELb1EEEEEbRKT_
FNDA:0,_ZNK2xt10xgeneratorINS_6detail7fn_implINS1_7diag_fnIRNS_16xarray_containerINS_7uvectorIdSaIdEEELNS_11layout_typeE1ENS_7svectorImLm4ESaImELb1EEENS_22xtensor_expression_tagEEEEEEEdSt5arrayImLm2EEE17has_linear_assignINS9_IlLm4ESaIlELb1EEEEEbRKT_
FN:339,_ZNK2xt10xgeneratorINS_6detail7fn_implINS1_7diag_fnIRNS_16xarray_containerINS_7uvectorIdSaIdEEELNS_11layout_typeE1ENS_7svectorImLm4ESaImELb1EEENS_22xtensor_expression_tagEEEEEEEdSt5arrayImLm2EEE13stepper_beginISI_EENS_16xindexed_stepperISJ_Lb1EEERKT_
FNDA:0,_ZNK2xt10xgeneratorINS_6detail7fn_implINS1_7diag_fnIRNS_16xarray_containerINS_7uvectorIdSaIdEEELNS_11layout_typeE1ENS_7svectorImLm4ESaImELb1EEENS_22xtensor_expression_tagEEEEEEEdSt5arrayImLm2EEE13stepper_beginISI_EENS_16xindexed_stepperISJ_Lb1EEERKT_
FN:339,_ZNK2xt10xgeneratorINS_6detail7fn_implINS1_7diag_fnIRNS_16xarray_containerINS_7uvectorIdSaIdEEELNS_11layout_typeE1ENS_7svectorImLm4ESaImELb1EEENS_22xtensor_expression_tagEEEEEEEdSt5arrayImLm2EEE13stepper_beginISB_EENS_16xindexed_stepperISJ_Lb1EEERKT_
FNDA:0,_ZNK2xt10xgeneratorINS_6detail7fn_implINS1_7diag_fnIRNS_16xarray_containerINS_7uvectorIdSaIdEEELNS_11layout_typeE1ENS_7svectorImLm4ESaImELb1EEENS_22xtensor_expression_tagEEEEEEEdSt5arrayImLm2EEE13stepper_beginISB_EENS_16xindexed_stepperISJ_Lb1EEERKT_
FN:339,_ZNK2xt10xgeneratorINS_6detail7fn_implINS1_6eye_fnIbEEEEbSt6vectorImSaImEEE13stepper_beginINS_7svectorImLm4ES7_Lb1EEEEENS_16xindexed_stepperIS9_Lb1EEERKT_
FNDA:0,_ZNK2xt10xgeneratorINS_6detail7fn_implINS1_6eye_fnIbEEEEbSt6vectorImSaImEEE13stepper_beginINS_7svectorImLm4ES7_Lb1EEEEENS_16xindexed_stepperIS9_Lb1EEERKT_
FN:339,_ZNK2xt10xgeneratorINS_6detail7fn_implINS1_6eye_fnIbEEEEbSt6vectorImSaImEEE13stepper_beginIS8_EENS_16xindexed_stepperIS9_Lb1EEERKT_
FNDA:0,_ZNK2xt10xgeneratorINS_6detail7fn_implINS1_6eye_fnIbEEEEbSt6vectorImSaImEEE13stepper_beginIS8_EENS_16xindexed_stepperIS9_Lb1EEERKT_
FN:488,_ZN2xt6detail15make_xgeneratorINS0_7fn_implINS0_7diag_fnIRNS_16xarray_containerINS_7uvectorIdSaIdEEELNS_11layout_typeE1ENS_7svectorImLm4ESaImELb1EEENS_22xtensor_expression_tagEEEEEEEmLm2EEEDaOT_RAT1__KT0_
FNDA:0,_ZN2xt6detail15make_xgeneratorINS0_7fn_implINS0_7diag_fnIRNS_16xarray_containerINS_7uvectorIdSaIdEEELNS_11layout_typeE1ENS_7svectorImLm4ESaImELb1EEENS_22xtensor_expression_tagEEEEEEEmLm2EEEDaOT_RAT1__KT0_
FN:496,_ZN2xt6detail15make_xgeneratorINS0_7fn_implINS0_6eye_fnIbEEEERKSt6vectorImSaImEEEEDaOT_OT0_
FNDA:0,_ZN2xt6detail15make_xgeneratorINS0_7fn_implINS0_6eye_fnIbEEEERKSt6vectorImSaImEEEEDaOT_OT0_
DA:213,0
DA:214,0
DA:216,0
DA:213,0
DA:214,0
DA:216,0
DA:227,0
DA:229,0
DA:227,0
DA:229,0
DA:233,0
DA:235,0
DA:233,0
DA:235,0
DA:239,0
DA:241,0
DA:239,0
DA:241,0
DA:299,0
DA:303,0
DA:299,0
DA:303,0
DA:331,0
DA:333,0
DA:331,0
DA:333,0
DA:339,0
DA:341,0
DA:342,0
DA:339,0
DA:341,0
DA:342,0
DA:339,0
DA:341,0
DA:342,0
DA:339,0
DA:341,0
DA:342,0
DA:488,0
DA:492,0
DA:496,0
DA:499,0
end_of_record
SF:/workspace/.xmake/packages/x/xtensor/0.24.3/7589bb6431db4fba90e4d138dda37226/include/xtensor/xfunction.hpp
FN:53,_ZN2xt6detail20xfunction_cache_implINS_7svectorImLm4ESaImELb1EEENS0_13promote_indexIJSt5arrayImLm0EES4_EEEEC2Ev
FNDA:0,_ZN2xt6detail20xfunction_cache_implINS_7svectorImLm4ESaImELb1EEENS0_13promote_indexIJSt5arrayImLm0EES4_EEEEC2Ev
FN:53,_ZN2xt6detail20xfunction_cache_implINS_7svectorImLm4ESaImELb1EEENS0_13promote_indexIJS4_S4_EEEEC2Ev
FNDA:0,_ZN2xt6detail20xfunction_cache_implINS_7svectorImLm4ESaImELb1EEENS0_13promote_indexIJS4_S4_EEEEC2Ev
FN:250,_ZN2xt9xfunctionINS_6detail10multipliesEJNS_7xscalarIdEERKNS_16xarray_containerINS_7uvectorIdSaIdEEELNS_11layout_typeE1ENS_7svectorImLm4ESaImELb1EEENS_22xtensor_expression_tagEEEEED2Ev
FNDA:0,_ZN2xt9xfunctionINS_6detail10multipliesEJNS_7xscalarIdEERKNS_16xarray_containerINS_7uvectorIdSaIdEEELNS_11layout_typeE1ENS_7svectorImLm4ESaImELb1EEENS_22xtensor_expression_tagEEEEED2Ev
FN:250,_ZN2xt9xfunctionINS_6detail5minusEJRKNS_16xarray_containerINS_7uvectorIdSaIdEEELNS_11layout_typeE1ENS_7svectorImLm4ESaImELb1EEENS_22xtensor_expression_tagEEERKNS0_INS1_10multipliesEJNS_7xscalarIdEESE_EEEEED2Ev
FNDA:0,_ZN2xt9xfunctionINS_6detail5minusEJRKNS_16xarray_containerINS_7uvectorIdSaIdEEELNS_11layout_typeE1ENS_7svectorImLm4ESaImELb1EEENS_22xtensor_expression_tagEEERKNS0_INS1_10multipliesEJNS_7xscalarIdEESE_EEEEED2Ev
FN:501,_ZN2xt9xfunctionINS_6detail10multipliesEJNS_7xscalarIdEERKNS_16xarray_containerINS_7uvectorIdSaIdEEELNS_11layout_typeE1ENS_7svectorImLm4ESaImELb1EEENS_22xtensor_expression_tagEEEEEC2IS2_JdRSE_EvEEOT_DpOT0_
FNDA:0,_ZN2xt9xfunctionINS_6detail10multipliesEJNS_7xscalarIdEERKNS_16xarray_containerINS_7uvectorIdSaIdEEELNS_11layout_typeE1ENS_7svectorImLm4ESaImELb1EEENS_22xtensor_expression_tagEEEEEC2IS2_JdRSE_EvEEOT_DpOT0_
FN:501,_ZN2xt9xfunctionINS_6detail5minusEJRKNS_16xarray_containerINS_7uvectorIdSaIdEEELNS_11layout_typeE1ENS_7svectorImLm4ESaImELb1EEENS_22xtensor_expression_tagEEERKNS0_INS1_10multipliesEJNS_7xscalarIdEESE_EEEEEC2IS2_JRSC_SK_EvEEOT_DpOT0_
FNDA:0,_ZN2xt9xfunctionINS_6detail5minusEJRKNS_16xarray_containerINS_7uvectorIdSaIdEEELNS_11layout_typeE1ENS_7svectorImLm4ESaImELb1EEENS_22xtensor_expression_tagEEERKNS0_INS1_10multipliesEJNS_7xscalarIdEESE_EEEEEC2IS2_JRSC_SK_EvEEOT_DpOT0_
FN:523,_ZNK2xt9xfunctionINS_6detail5minusEJRKNS_16xarray_containerINS_7uvectorIdSaIdEEELNS_11layout_typeE1ENS_7svectorImLm4ESaImELb1EEENS_22xtensor_expression_tagEEERKNS0_INS1_10multipliesEJNS_7xscalarIdEESE_EEEEE9dimensionEv
FNDA:0,_ZNK2xt9xfunctionINS_6detail5minusEJRKNS_16xarray_containerINS_7uvectorIdSaIdEEELNS_11layout_typeE1ENS_7svectorImLm4ESaImELb1EEENS_22xtensor_expression_tagEEERKNS0_INS1_10multipliesEJNS_7xscalarIdEESE_EEEEE9dimensionEv
FN:523,_ZNK2xt9xfunctionINS_6detail10multipliesEJNS_7xscalarIdEERKNS_16xarray_containerINS_7uvectorIdSaIdEEELNS_11layout_typeE1ENS_7svectorImLm4ESaImELb1EEENS_22xtensor_expression_tagEEEEE9dimensionEv
FNDA:0,_ZNK2xt9xfunctionINS_6detail10multipliesEJNS_7xscalarIdEERKNS_16xarray_containerINS_7uvectorIdSaIdEEELNS_11layout_typeE1ENS_7svectorImLm4ESaImELb1EEENS_22xtensor_expression_tagEEEEE9dimensionEv
FN:560,_ZNK2xt9xfunctionINS_6detail5minusEJRKNS_16xarray_containerINS_7uvectorIdSaIdEEELNS_11layout_typeE1ENS_7svectorImLm4ESaImELb1EEENS_22xtensor_expression_tagEEERKNS0_INS1_10multipliesEJNS_7xscalarIdEESE_EEEEE6layoutEv
FNDA:0,_ZNK2xt9xfunctionINS_6detail5minusEJRKNS_16xarray_containerINS_7uvectorIdSaIdEEELNS_11layout_typeE1ENS_7svectorImLm4ESaImELb1EEENS_22xtensor_expression_tagEEERKNS0_INS1_10multipliesEJNS_7xscalarIdEESE_EEEEE6layoutEv
FN:560,_ZNK2xt9xfunctionINS_6detail10multipliesEJNS_7xscalarIdEERKNS_16xarray_containerINS_7uvectorIdSaIdEEELNS_11layout_typeE1ENS_7svectorImLm4ESaImELb1EEENS_22xtensor_expression_tagEEEEE6layoutEv
FNDA:0,_ZNK2xt9xfunctionINS_6detail10multipliesEJNS_7xscalarIdEERKNS_16xarray_containerINS_7uvectorIdSaIdEEELNS_11layout_typeE1ENS_7svectorImLm4ESaImELb1EEENS_22xtensor_expression_tagEEEEE6layoutEv
FN:566,_ZNK2xt9xfunctionINS_6detail5minusEJRKNS_16xarray_containerINS_7uvectorIdSaIdEEELNS_11layout_typeE1ENS_7svectorImLm4ESaImELb1EEENS_22xtensor_expression_tagEEERKNS0_INS1_10multipliesEJNS_7xscalarIdEESE_EEEEE13is_contiguousEv
FNDA:0,_ZNK2xt9xfunctionINS_6detail5minusEJRKNS_16xarray_containerINS_7uvectorIdSaIdEEELNS_11layout_typeE1ENS_7svectorImLm4ESaImELb1EEENS_22xtensor_expression_tagEEERKNS0_INS1_10multipliesEJNS_7xscalarIdEESE_EEEEE13is_contiguousEv
FN:566,_ZNK2xt9xfunctionINS_6detail10multipliesEJNS_7xscalarIdEERKNS_16xarray_containerINS_7uvectorIdSaIdEEELNS_11layout_typeE1ENS_7svectorImLm4ESaImELb1EEENS_22xtensor_expression_tagEEEEE13is_contiguousEv
FNDA:0,_ZNK2xt9xfunctionINS_6detail10multipliesEJNS_7xscalarIdEERKNS_16xarray_containerINS_7uvectorIdSaIdEEELNS_11layout_typeE1ENS_7svectorImLm4ESaImELb1EEENS_22xtensor_expression_tagEEEEE13is_contiguousEv
FN:568,_ZZNK2xt9xfunctionINS_6detail5minusEJRKNS_16xarray_containerINS_7uvectorIdSaIdEEELNS_11layout_typeE1ENS_7svectorImLm4ESaImELb1EEENS_22xtensor_expression_tagEEERKNS0_INS1_10multipliesEJNS_7xscalarIdEESE_EEEEE13is_contiguousEvENKUlbRKT_E_clISI_EEDabSO_
FNDA:0,_ZZNK2xt9xfunctionINS_6detail5minusEJRKNS_16xarray_containerINS_7uvectorIdSaIdEEELNS_11layout_typeE1ENS_7svectorImLm4ESaImELb1EEENS_22xtensor_expression_tagEEERKNS0_INS1_10multipliesEJNS_7xscalarIdEESE_EEEEE13is_contiguousEvENKUlbRKT_E_clISI_EEDabSO_
FN:568,_ZZNK2xt9xfunctionINS_6detail5minusEJRKNS_16xarray_containerINS_7uvectorIdSaIdEEELNS_11layout_typeE1ENS_7svectorImLm4ESaImELb1EEENS_22xtensor_expression_tagEEERKNS0_INS1_10multipliesEJNS_7xscalarIdEESE_EEEEE13is_contiguousEvENKUlbRKT_E_clISC_EEDabSO_
FNDA:0,_ZZNK2xt9xfunctionINS_6detail5minusEJRKNS_16xarray_containerINS_7uvectorIdSaIdEEELNS_11layout_typeE1ENS_7svectorImLm4ESaImELb1EEENS_22xtensor_expression_tagEEERKNS0_INS1_10multipliesEJNS_7xscalarIdEESE_EEEEE13is_contiguousEvENKUlbRKT_E_clISC_EEDabSO_
FN:568,_ZZNK2xt9xfunctionINS_6detail10multipliesEJNS_7xscalarIdEERKNS_16xarray_containerINS_7uvectorIdSaIdEEELNS_11layout_typeE1ENS_7svectorImLm4ESaImELb1EEENS_22xtensor_expression_tagEEEEE13is_contiguousEvENKUlbRKT_E_clIS4_EEDabSK_
FNDA:0,_ZZNK2xt9xfunctionINS_6detail10multipliesEJNS_7xscalarIdEERKNS_16xarray_containerINS_7uvectorIdSaIdEEELNS_11layout_typeE1ENS_7svectorImLm4ESaImELb1EEENS_22xtensor_expression_tagEEEEE13is_contiguousEvENKUlbRKT_E_clIS4_EEDabSK_
FN:568,_ZZNK2xt9xfunctionINS_6detail10multipliesEJNS_7xscalarIdEERKNS_16xarray_containerINS_7uvectorIdSaIdEEELNS_11layout_typeE1ENS_7svectorImLm4ESaImELb1EEENS_22xtensor_expression_tagEEEEE13is_contiguousEvENKUlbRKT_E_clISE_EEDabSK_
FNDA:0,_ZZNK2xt9xfunctionINS_6detail10multipliesEJNS_7xscalarIdEERKNS_16xarray_containerINS_7uvectorIdSaIdEEELNS_11layout_typeE1ENS_7svectorImLm4ESaImELb1EEENS_22xtensor_expression_tagEEEEE13is_contiguousEvENKUlbRKT_E_clISE_EEDabSK_
FN:660,_ZNK2xt9xfunctionINS_6detail10multipliesEJNS_7xscalarIdEERKNS_16xarray_containerINS_7uvectorIdSaIdEEELNS_11layout_typeE1ENS_7svectorImLm4ESaImELb1EEENS_22xtensor_expression_tagEEEEE15broadcast_shapeISC_EEbRT_b
FNDA:0,_ZNK2xt9xfunctionINS_6detail10multipliesEJNS_7xscalarIdEERKNS_16xarray_containerINS_7uvectorIdSaIdEEELNS_11layout_typeE1ENS_7svectorImLm4ESaImELb1EEENS_22xtensor_expression_tagEEEEE15broadcast_shapeISC_EEbRT_b
FN:660,_ZNK2xt9xfunctionINS_6detail5minusEJRKNS_16xarray_containerINS_7uvectorIdSaIdEEELNS_11layout_typeE1ENS_7svectorImLm4ESaImELb1EEENS_22xtensor_expression_tagEEERKNS0_INS1_10multipliesEJNS_7xscalarIdEESE_EEEEE15broadcast_shapeISA_EEbRT_b
FNDA:0,_ZNK2xt9xfunctionINS_6detail5minusEJRKNS_16xarray_containerINS_7uvectorIdSaIdEEELNS_11layout_typeE1ENS_7svectorImLm4ESaImELb1EEENS_22xtensor_expression_tagEEERKNS0_INS1_10multipliesEJNS_7xscalarIdEESE_EEEEE15broadcast_shapeISA_EEbRT_b
FN:670,_ZZNK2xt9xfunctionINS_6detail10multipliesEJNS_7xscalarIdEERKNS_16xarray_containerINS_7uvectorIdSaIdEEELNS_11layout_typeE1ENS_7svectorImLm4ESaImELb1EEENS_22xtensor_expression_tagEEEEE15broadcast_shapeISC_EEbRT_bENKUlbOSJ_E_clIRKS4_EEDabSL_
FNDA:0,_ZZNK2xt9xfunctionINS_6detail10multipliesEJNS_7xscalarIdEERKNS_16xarray_containerINS_7uvectorIdSaIdEEELNS_11layout_typeE1ENS_7svectorImLm4ESaImELb1EEENS_22xtensor_expression_tagEEEEE15broadcast_shapeISC_EEbRT_bENKUlbOSJ_E_clIRKS4_EEDabSL_
FN:670,_ZZNK2xt9xfunctionINS_6detail10multipliesEJNS_7xscalarIdEERKNS_16xarray_containerINS_7uvectorIdSaIdEEELNS_11layout_typeE1ENS_7svectorImLm4ESaImELb1EEENS_22xtensor_expression_tagEEEEE15broadcast_shapeISC_EEbRT_bENKUlbOSJ_E_clISG_EEDabSL_
FNDA:0,_ZZNK2xt9xfunctionINS_6detail10multipliesEJNS_7xscalarIdEERKNS_16xarray_containerINS_7uvectorIdSaIdEEELNS_11layout_typeE1ENS_7svectorImLm4ESaImELb1EEENS_22xtensor_expression_tagEEEEE15broadcast_shapeISC_EEbRT_bENKUlbOSJ_E_clISG_EEDabSL_
FN:670,_ZZNK2xt9xfunctionINS_6detail5minusEJRKNS_16xarray_containerINS_7uvectorIdSaIdEEELNS_11layout_typeE1ENS_7svectorImLm4ESaImELb1EEENS_22xtensor_expression_tagEEERKNS0_INS1_10multipliesEJNS_7xscalarIdEESE_EEEEE15broadcast_shapeISA_EEbRT_bENKUlbOSN_E_clISK_EEDabSP_
FNDA:0,_ZZNK2xt9xfunctionINS_6detail5minusEJRKNS_16xarray_containerINS_7uvectorIdSaIdEEELNS_11layout_typeE1ENS_7svectorImLm4ESaImELb1EEENS_22xtensor_expression_tagEEERKNS0_INS1_10multipliesEJNS_7xscalarIdEESE_EEEEE15broadcast_shapeISA_EEbRT_bENKUlbOSN_E_clISK_EEDabSP_
FN:670,_ZZNK2xt9xfunctionINS_6detail5minusEJRKNS_16xarray_containerINS_7uvectorIdSaIdEEELNS_11layout_typeE1ENS_7svectorImLm4ESaImELb1EEENS_22xtensor_expression_tagEEERKNS0_INS1_10multipliesEJNS_7xscalarIdEESE_EEEEE15broadcast_shapeISA_EEbRT_bENKUlbOSN_E_clISE_EEDabSP_
FNDA:0,_ZZNK2xt9xfunctionINS_6detail5minusEJRKNS_16xarray_containerINS_7uvectorIdSaIdEEELNS_11layout_typeE1ENS_7svectorImLm4ESaImELb1EEENS_22xtensor_expression_tagEEERKNS0_INS1_10multipliesEJNS_7xscalarIdEESE_EEEEE15broadcast_shapeISA_EEbRT_bENKUlbOSN_E_clISE_EEDabSP_
FN:682,_ZNK2xt9xfunctionINS_6detail5minusEJRKNS_16xarray_containerINS_7uvectorIdSaIdEEELNS_11layout_typeE1ENS_7svectorImLm4ESaImELb1EEENS_22xtensor_expression_tagEEERKNS0_INS1_10multipliesEJNS_7xscalarIdEESE_EEEEE17has_linear_assignINS8_IlLm4ESaIlELb1EEEEEbRKT_
FNDA:0,_ZNK2xt9xfunctionINS_6detail5minusEJRKNS_16xarray_containerINS_7uvectorIdSaIdEEELNS_11layout_typeE1ENS_7svectorImLm4ESaImELb1EEENS_22xtensor_expression_tagEEERKNS0_INS1_10multipliesEJNS_7xscalarIdEESE_EEEEE17has_linear_assignINS8_IlLm4ESaIlELb1EEEEEbRKT_
FN:682,_ZNK2xt9xfunctionINS_6detail10multipliesEJNS_7xscalarIdEERKNS_16xarray_containerINS_7uvectorIdSaIdEEELNS_11layout_typeE1ENS_7svectorImLm4ESaImELb1EEENS_22xtensor_expression_tagEEEEE17has_linear_assignINSA_IlLm4ESaIlELb1EEEEEbRKT_
FNDA:0,_ZNK2xt9xfunctionINS_6detail10multipliesEJNS_7xscalarIdEERKNS_16xarray_containerINS_7uvectorIdSaIdEEELNS_11layout_typeE1ENS_7svectorImLm4ESaImELb1EEENS_22xtensor_expression_tagEEEEE17has_linear_assignINSA_IlLm4ESaIlELb1EEEEEbRKT_
FN:684,_ZZNK2xt9xfunctionINS_6detail5minusEJRKNS_16xarray_containerINS_7uvectorIdSaIdEEELNS_11layout_typeE1ENS_7svectorImLm4ESaImELb1EEENS_22xtensor_expression_tagEEERKNS0_INS1_10multipliesEJNS_7xscalarIdEESE_EEEEE17has_linear_assignINS8_IlLm4ESaIlELb1EEEEEbRKT_ENKUlbOSP_E_clISK_EEDabSS_
FNDA:0,_ZZNK2xt9xfunctionINS_6detail5minusEJRKNS_16xarray_containerINS_7uvectorIdSaIdEEELNS_11layout_typeE1ENS_7svectorImLm4ESaImELb1EEENS_22xtensor_expression_tagEEERKNS0_INS1_10multipliesEJNS_7xscalarIdEESE_EEEEE17has_linear_assignINS8_IlLm4ESaIlELb1EEEEEbRKT_ENKUlbOSP_E_clISK_EEDabSS_
FN:684,_ZZNK2xt9xfunctionINS_6detail10multipliesEJNS_7xscalarIdEERKNS_16xarray_containerINS_7uvectorIdSaIdEEELNS_11layout_typeE1ENS_7svectorImLm4ESaImELb1EEENS_22xtensor_expression_tagEEEEE17has_linear_assignINSA_IlLm4ESaIlELb1EEEEEbRKT_ENKUlbOSL_E_clISG_EEDabSO_
FNDA:0,_ZZNK2xt9xfunctionINS_6detail10multipliesEJNS_7xscalarIdEERKNS_16xarray_containerINS_7uvectorIdSaIdEEELNS_11layout_typeE1ENS_7svectorImLm4ESaImELb1EEENS_22xtensor_expression_tagEEEEE17has_linear_assignINSA_IlLm4ESaIlELb1EEEEEbRKT_ENKUlbOSL_E_clISG_EEDabSO_
FN:684,_ZZNK2xt9xfunctionINS_6detail10multipliesEJNS_7xscalarIdEERKNS_16xarray_containerINS_7uvectorIdSaIdEEELNS_11layout_typeE1ENS_7svectorImLm4ESaImELb1EEENS_22xtensor_expression_tagEEEEE17has_linear_assignINSA_IlLm4ESaIlELb1EEEEEbRKT_ENKUlbOSL_E_clIRKS4_EEDabSO_
FNDA:0,_ZZNK2xt9xfunctionINS_6detail10multipliesEJNS_7xscalarIdEERKNS_16xarray_containerINS_7uvectorIdSaIdEEELNS_11layout_typeE1ENS_7svectorImLm4ESaImELb1EEENS_22xtensor_expression_tagEEEEE17has_linear_assignINSA_IlLm4ESaIlELb1EEEEEbRKT_ENKUlbOSL_E_clIRKS4_EEDabSO_
FN:684,_ZZNK2xt9xfunctionINS_6detail5minusEJRKNS_16xarray_containerINS_7uvectorIdSaIdEEELNS_11layout_typeE1ENS_7svectorImLm4ESaImELb1EEENS_22xtensor_expression_tagEEERKNS0_INS1_10multipliesEJNS_7xscalarIdEESE_EEEEE17has_linear_assignINS8_IlLm4ESaIlELb1EEEEEbRKT_ENKUlbOSP_E_clISE_EEDabSS_
FNDA:0,_ZZNK2xt9xfunctionINS_6detail5minusEJRKNS_16xarray_containerINS_7uvectorIdSaIdEEELNS_11layout_typeE1ENS_7svectorImLm4ESaImELb1EEENS_22xtensor_expression_tagEEERKNS0_INS1_10multipliesEJNS_7xscalarIdEESE_EEEEE17has_linear_assignINS8_IlLm4ESaIlELb1EEEEEbRKT_ENKUlbOSP_E_clISE_EEDabSS_
FN:702,_ZNK2xt9xfunctionINS_6detail10multipliesEJNS_7xscalarIdEERKNS_16xarray_containerINS_7uvectorIdSaIdEEELNS_11layout_typeE1ENS_7svectorImLm4ESaImELb1EEENS_22xtensor_expression_tagEEEEE13linear_cbeginEv
FNDA:0,_ZNK2xt9xfunctionINS_6detail10multipliesEJNS_7xscalarIdEERKNS_16xarray_containerINS_7uvectorIdSaIdEEELNS_11layout_typeE1ENS_7svectorImLm4ESaImELb1EEENS_22xtensor_expression_tagEEEEE13linear_cbeginEv
FN:702,_ZNK2xt9xfunctionINS_6detail5minusEJRKNS_16xarray_containerINS_7uvectorIdSaIdEEELNS_11layout_typeE1ENS_7svectorImLm4ESaImELb1EEENS_22xtensor_expression_tagEEERKNS0_INS1_10multipliesEJNS_7xscalarIdEESE_EEEEE13linear_cbeginEv
FNDA:0,_ZNK2xt9xfunctionINS_6detail5minusEJRKNS_16xarray_containerINS_7uvectorIdSaIdEEELNS_11layout_typeE1ENS_7svectorImLm4ESaImELb1EEENS_22xtensor_expression_tagEEERKNS0_INS1_10multipliesEJNS_7xscalarIdEESE_EEEEE13linear_cbeginEv
FN:704,_ZZNK2xt9xfunctionINS_6detail10multipliesEJNS_7xscalarIdEERKNS_16xarray_containerINS_7uvectorIdSaIdEEELNS_11layout_typeE1ENS_7svectorImLm4ESaImELb1EEENS_22xtensor_expression_tagEEEEE13linear_cbeginEvENKUlRKT_E_clIS4_EEDaSK_
FNDA:0,_ZZNK2xt9xfunctionINS_6detail10multipliesEJNS_7xscalarIdEERKNS_16xarray_containerINS_7uvectorIdSaIdEEELNS_11layout_typeE1ENS_7svectorImLm4ESaImELb1EEENS_22xtensor_expression_tagEEEEE13linear_cbeginEvENKUlRKT_E_clIS4_EEDaSK_
FN:704,_ZZNK2xt9xfunctionINS_6detail10multipliesEJNS_7xscalarIdEERKNS_16xarray_containerINS_7uvectorIdSaIdEEELNS_11layout_typeE1ENS_7svectorImLm4ESaImELb1EEENS_22xtensor_expression_tagEEEEE13linear_cbeginEvENKUlRKT_E_clISE_EEDaSK_
FNDA:0,_ZZNK2xt9xfunctionINS_6detail10multipliesEJNS_7xscalarIdEERKNS_16xarray_containerINS_7uvectorIdSaIdEEELNS_11layout_typeE1ENS_7svectorImLm4ESaImELb1EEENS_22xtensor_expression_tagEEEEE13linear_cbeginEvENKUlRKT_E_clISE_EEDaSK_
FN:704,_ZZNK2xt9xfunctionINS_6detail5minusEJRKNS_16xarray_containerINS_7uvectorIdSaIdEEELNS_11layout_typeE1ENS_7svectorImLm4ESaImELb1EEENS_22xtensor_expression_tagEEERKNS0_INS1_10multipliesEJNS_7xscalarIdEESE_EEEEE13linear_cbeginEvENKUlRKT_E_clISI_EEDaSO_
FNDA:0,_ZZNK2xt9xfunctionINS_6detail5minusEJRKNS_16xarray_containerINS_7uvectorIdSaIdEEELNS_11layout_typeE1ENS_7svectorImLm4ESaImELb1EEENS_22xtensor_expression_tagEEERKNS0_INS1_10multipliesEJNS_7xscalarIdEESE_EEEEE13linear_cbeginEvENKUlRKT_E_clISI_EEDaSO_
FN:704,_ZZNK2xt9xfunctionINS_6detail5minusEJRKNS_16xarray_containerINS_7uvectorIdSaIdEEELNS_11layout_typeE1ENS_7svectorImLm4ESaImELb1EEENS_22xtensor_expression_tagEEERKNS0_INS1_10multipliesEJNS_7xscalarIdEESE_EEEEE13linear_cbeginEvENKUlRKT_E_clISC_EEDaSO_
FNDA:0,_ZZNK2xt9xfunctionINS_6detail5minusEJRKNS_16xarray_containerINS_7uvectorIdSaIdEEELNS_11layout_typeE1ENS_7svectorImLm4ESaImELb1EEENS_22xtensor_expression_tagEEERKNS0_INS1_10multipliesEJNS_7xscalarIdEESE_EEEEE13linear_cbeginEvENKUlRKT_E_clISC_EEDaSO_
FN:741,_ZNK2xt9xfunctionINS_6detail10multipliesEJNS_7xscalarIdEERKNS_16xarray_containerINS_7uvectorIdSaIdEEELNS_11layout_typeE1ENS_7svectorImLm4ESaImELb1EEENS_22xtensor_expression_tagEEEEE13stepper_beginISC_EENS_17xfunction_stepperIS2_JS4_SG_EEERKT_
FNDA:0,_ZNK2xt9xfunctionINS_6detail10multipliesEJNS_7xscalarIdEERKNS_16xarray_containerINS_7uvectorIdSaIdEEELNS_11layout_typeE1ENS_7svectorImLm4ESaImELb1EEENS_22xtensor_expression_tagEEEEE13stepper_beginISC_EENS_17xfunction_stepperIS2_JS4_SG_EEERKT_
FN:741,_ZNK2xt9xfunctionINS_6detail5minusEJRKNS_16xarray_containerINS_7uvectorIdSaIdEEELNS_11layout_typeE1ENS_7svectorImLm4ESaImELb1EEENS_22xtensor_expression_tagEEERKNS0_INS1_10multipliesEJNS_7xscalarIdEESE_EEEEE13stepper_beginISA_EENS_17xfunction_stepperIS2_JSE_SK_EEERKT_
FNDA:0,_ZNK2xt9xfunctionINS_6detail5minusEJRKNS_16xarray_containerINS_7uvectorIdSaIdEEELNS_11layout_typeE1ENS_7svectorImLm4ESaImELb1EEENS_22xtensor_expression_tagEEERKNS0_INS1_10multipliesEJNS_7xscalarIdEESE_EEEEE13stepper_beginISA_EENS_17xfunction_stepperIS2_JSE_SK_EEERKT_
FN:743,_ZZNK2xt9xfunctionINS_6detail5minusEJRKNS_16xarray_containerINS_7uvectorIdSaIdEEELNS_11layout_typeE1ENS_7svectorImLm4ESaImELb1EEENS_22xtensor_expression_tagEEERKNS0_INS1_10multipliesEJNS_7xscalarIdEESE_EEEEE13stepper_beginISA_EENS_17xfunction_stepperIS2_JSE_SK_EEERKT_ENKUlSR_E_clISC_EEDaSR_
FNDA:0,_ZZNK2xt9xfunctionINS_6detail5minusEJRKNS_16xarray_containerINS_7uvectorIdSaIdEEELNS_11layout_typeE1ENS_7svectorImLm4ESaImELb1EEENS_22xtensor_expression_tagEEERKNS0_INS1_10multipliesEJNS_7xscalarIdEESE_EEEEE13stepper_beginISA_EENS_17xfunction_stepperIS2_JSE_SK_EEERKT_ENKUlSR_E_clISC_EEDaSR_
FN:743,_ZZNK2xt9xfunctionINS_6detail10multipliesEJNS_7xscalarIdEERKNS_16xarray_containerINS_7uvectorIdSaIdEEELNS_11layout_typeE1ENS_7svectorImLm4ESaImELb1EEENS_22xtensor_expression_tagEEEEE13stepper_beginISC_EENS_17xfunction_stepperIS2_JS4_SG_EEERKT_ENKUlSN_E_clISE_EEDaSN_
FNDA:0,_ZZNK2xt9xfunctionINS_6detail10multipliesEJNS_7xscalarIdEERKNS_16xarray_containerINS_7uvectorIdSaIdEEELNS_11layout_typeE1ENS_7svectorImLm4ESaImELb1EEENS_22xtensor_expression_tagEEEEE13stepper_beginISC_EENS_17xfunction_stepperIS2_JS4_SG_EEERKT_ENKUlSN_E_clISE_EEDaSN_
FN:743,_ZZNK2xt9xfunctionINS_6detail5minusEJRKNS_16xarray_containerINS_7uvectorIdSaIdEEELNS_11layout_typeE1ENS_7svectorImLm4ESaImELb1EEENS_22xtensor_expression_tagEEERKNS0_INS1_10multipliesEJNS_7xscalarIdEESE_EEEEE13stepper_beginISA_EENS_17xfunction_stepperIS2_JSE_SK_EEERKT_ENKUlSR_E_clISI_EEDaSR_
FNDA:0,_ZZNK2xt9xfunctionINS_6detail5minusEJRKNS_16xarray_containerINS_7uvectorIdSaIdEEELNS_11layout_typeE1ENS_7svectorImLm4ESaImELb1EEENS_22xtensor_expression_tagEEERKNS0_INS1_10multipliesEJNS_7xscalarIdEESE_EEEEE13stepper_beginISA_EENS_17xfunction_stepperIS2_JSE_SK_EEERKT_ENKUlSR_E_clISI_EEDaSR_
FN:743,_ZZNK2xt9xfunctionINS_6detail10multipliesEJNS_7xscalarIdEERKNS_16xarray_containerINS_7uvectorIdSaIdEEELNS_11layout_typeE1ENS_7svectorImLm4ESaImELb1EEENS_22xtensor_expression_tagEEEEE13stepper_beginISC_EENS_17xfunction_stepperIS2_JS4_SG_EEERKT_ENKUlSN_E_clIS4_EEDaSN_
FNDA:0,_ZZNK2xt9xfunctionINS_6detail10multipliesEJNS_7xscalarIdEERKNS_16xarray_containerINS_7uvectorIdSaIdEEELNS_11layout_typeE1ENS_7svectorImLm4ESaImELb1EEENS_22xtensor_expression_tagEEEEE13stepper_beginISC_EENS_17xfunction_stepperIS2_JS4_SG_EEERKT_ENKUlSN_E_clIS4_EEDaSN_
FN:790,_ZNK2xt9xfunctionINS_6detail5minusEJRKNS_16xarray_containerINS_7uvectorIdSaIdEEELNS_11layout_typeE1ENS_7svectorImLm4ESaImELb1EEENS_22xtensor_expression_tagEEERKNS0_INS1_10multipliesEJNS_7xscalarIdEESE_EEEEE11layout_implIJLm0ELm1EEEES7_St16integer_sequenceImJXspT_EEE
FNDA:0,_ZNK2xt9xfunctionINS_6detail5minusEJRKNS_16xarray_containerINS_7uvectorIdSaIdEEELNS_11layout_typeE1ENS_7svectorImLm4ESaImELb1EEENS_22xtensor_expression_tagEEERKNS0_INS1_10multipliesEJNS_7xscalarIdEESE_EEEEE11layout_implIJLm0ELm1EEEES7_St16integer_sequenceImJXspT_EEE
FN:790,_ZNK2xt9xfunctionINS_6detail10multipliesEJNS_7xscalarIdEERKNS_16xarray_containerINS_7uvectorIdSaIdEEELNS_11layout_typeE1ENS_7svectorImLm4ESaImELb1EEENS_22xtensor_expression_tagEEEEE11layout_implIJLm0ELm1EEEES9_St16integer_sequenceImJXspT_EEE
FNDA:0,_ZNK2xt9xfunctionINS_6detail10multipliesEJNS_7xscalarIdEERKNS_16xarray_containerINS_7uvectorIdSaIdEEELNS_11layout_typeE1ENS_7svectorImLm4ESaImELb1EEENS_22xtensor_expression_tagEEEEE11layout_implIJLm0ELm1EEEES9_St16integer_sequenceImJXspT_EEE
FN:836,_ZNK2xt9xfunctionINS_6detail10multipliesEJNS_7xscalarIdEERKNS_16xarray_containerINS_7uvectorIdSaIdEEELNS_11layout_typeE1ENS_7svectorImLm4ESaImELb1EEENS_22xtensor_expression_tagEEEEE13build_stepperIRZNKSH_13stepper_beginISC_EENS_17xfunction_stepperIS2_JS4_SG_EEERKT_EUlSO_E_JLm0ELm1EEEESL_OSM_St16integer_sequenceImJXspT0_EEE
FNDA:0,_ZNK2xt9xfunctionINS_6detail10multipliesEJNS_7xscalarIdEERKNS_16xarray_containerINS_7uvectorIdSaIdEEELNS_11layout_typeE1ENS_7svectorImLm4ESaImELb1EEENS_22xtensor_expression_tagEEEEE13build_stepperIRZNKSH_13stepper_beginISC_EENS_17xfunction_stepperIS2_JS4_SG_EEERKT_EUlSO_E_JLm0ELm1EEEESL_OSM_St16integer_sequenceImJXspT0_EEE
FN:836,_ZNK2xt9xfunctionINS_6detail5minusEJRKNS_16xarray_containerINS_7uvectorIdSaIdEEELNS_11layout_typeE1ENS_7svectorImLm4ESaImELb1EEENS_22xtensor_expression_tagEEERKNS0_INS1_10multipliesEJNS_7xscalarIdEESE_EEEEE13build_stepperIRZNKSL_13stepper_beginISA_EENS_17xfunction_stepperIS2_JSE_SK_EEERKT_EUlSS_E_JLm0ELm1EEEESP_OSQ_St16integer_sequenceImJXspT0_EEE
FNDA:0,_ZNK2xt9xfunctionINS_6detail5minusEJRKNS_16xarray_containerINS_7uvectorIdSaIdEEELNS_11layout_typeE1ENS_7svectorImLm4ESaImELb1EEENS_22xtensor_expression_tagEEERKNS0_INS1_10multipliesEJNS_7xscalarIdEESE_EEEEE13build_stepperIRZNKSL_13stepper_beginISA_EENS_17xfunction_stepperIS2_JSE_SK_EEERKT_EUlSS_E_JLm0ELm1EEEESP_OSQ_St16integer_sequenceImJXspT0_EEE
FN:843,_ZNK2xt9xfunctionINS_6detail5minusEJRKNS_16xarray_containerINS_7uvectorIdSaIdEEELNS_11layout_typeE1ENS_7svectorImLm4ESaImELb1EEENS_22xtensor_expression_tagEEERKNS0_INS1_10multipliesEJNS_7xscalarIdEESE_EEEEE14build_iteratorIRZNKSL_13linear_cbeginEvEUlRKT_E_JLm0ELm1EEEEDaOSN_St16integer_sequenceImJXspT0_EEE
FNDA:0,_ZNK2xt9xfunctionINS_6detail5minusEJRKNS_16xarray_containerINS_7uvectorIdSaIdEEELNS_11layout_typeE1ENS_7svectorImLm4ESaImELb1EEENS_22xtensor_expression_tagEEERKNS0_INS1_10multipliesEJNS_7xscalarIdEESE_EEEEE14build_iteratorIRZNKSL_13linear_cbeginEvEUlRKT_E_JLm0ELm1EEEEDaOSN_St16integer_sequenceImJXspT0_EEE
FN:843,_ZNK2xt9xfunctionINS_6detail10multipliesEJNS_7xscalarIdEERKNS_16xarray_containerINS_7uvectorIdSaIdEEELNS_11layout_typeE1ENS_7svectorImLm4ESaImELb1EEENS_22xtensor_expression_tagEEEEE14build_iteratorIRZNKSH_13linear_cbeginEvEUlRKT_E_JLm0ELm1EEEEDaOSJ_St16integer_sequenceImJXspT0_EEE
FNDA:0,_ZNK2xt9xfunctionINS_6detail10multipliesEJNS_7xscalarIdEERKNS_16xarray_containerINS_7uvectorIdSaIdEEELNS_11layout_typeE1ENS_7svectorImLm4ESaImELb1EEENS_22xtensor_expression_tagEEEEE14build_iteratorIRZNKSH_13linear_cbeginEvEUlRKT_E_JLm0ELm1EEEEDaOSJ_St16integer_sequenceImJXspT0_EEE
FN:849,_ZNK2xt9xfunctionINS_6detail5minusEJRKNS_16xarray_containerINS_7uvectorIdSaIdEEELNS_11layout_typeE1ENS_7svectorImLm4ESaImELb1EEENS_22xtensor_expression_tagEEERKNS0_INS1_10multipliesEJNS_7xscalarIdEESE_EEEEE17compute_dimensionEv
FNDA:0,_ZNK2xt9xfunctionINS_6detail5minusEJRKNS_16xarray_containerINS_7uvectorIdSaIdEEELNS_11layout_typeE1ENS_7svectorImLm4ESaImELb1EEENS_22xtensor_expression_tagEEERKNS0_INS1_10multipliesEJNS_7xscalarIdEESE_EEEEE17compute_dimensionEv
FN:849,_ZNK2xt9xfunctionINS_6detail10multipliesEJNS_7xscalarIdEERKNS_16xarray_containerINS_7uvectorIdSaIdEEELNS_11layout_typeE1ENS_7svectorImLm4ESaImELb1EEENS_22xtensor_expression_tagEEEEE17compute_dimensionEv
FNDA:0,_ZNK2xt9xfunctionINS_6detail10multipliesEJNS_7xscalarIdEERKNS_16xarray_containerINS_7uvectorIdSaIdEEELNS_11layout_typeE1ENS_7svectorImLm4ESaImELb1EEENS_22xtensor_expression_tagEEEEE17compute_dimensionEv
FN:851,_ZZNK2xt9xfunctionINS_6detail10multipliesEJNS_7xscalarIdEERKNS_16xarray_containerINS_7uvectorIdSaIdEEELNS_11layout_typeE1ENS_7svectorImLm4ESaImELb1EEENS_22xtensor_expression_tagEEEEE17compute_dimensionEvENKUlmOT_E_clISG_EEDamSJ_
FNDA:0,_ZZNK2xt9xfunctionINS_6detail10multipliesEJNS_7xscalarIdEERKNS_16xarray_containerINS_7uvectorIdSaIdEEELNS_11layout_typeE1ENS_7svectorImLm4ESaImELb1EEENS_22xtensor_expression_tagEEEEE17compute_dimensionEvENKUlmOT_E_clISG_EEDamSJ_
FN:851,_ZZNK2xt9xfunctionINS_6detail10multipliesEJNS_7xscalarIdEERKNS_16xarray_containerINS_7uvectorIdSaIdEEELNS_11layout_typeE1ENS_7svectorImLm4ESaImELb1EEENS_22xtensor_expression_tagEEEEE17compute_dimensionEvENKUlmOT_E_clIRKS4_EEDamSJ_
FNDA:0,_ZZNK2xt9xfunctionINS_6detail10multipliesEJNS_7xscalarIdEERKNS_16xarray_containerINS_7uvectorIdSaIdEEELNS_11layout_typeE1ENS_7svectorImLm4ESaImELb1EEENS_22xtensor_expression_tagEEEEE17compute_dimensionEvENKUlmOT_E_clIRKS4_EEDamSJ_
FN:851,_ZZNK2xt9xfunctionINS_6detail5minusEJRKNS_16xarray_containerINS_7uvectorIdSaIdEEELNS_11layout_typeE1ENS_7svectorImLm4ESaImELb1EEENS_22xtensor_expression_tagEEERKNS0_INS1_10multipliesEJNS_7xscalarIdEESE_EEEEE17compute_dimensionEvENKUlmOT_E_clISK_EEDamSN_
FNDA:0,_ZZNK2xt9xfunctionINS_6detail5minusEJRKNS_16xarray_containerINS_7uvectorIdSaIdEEELNS_11layout_typeE1ENS_7svectorImLm4ESaImELb1EEENS_22xtensor_expression_tagEEERKNS0_INS1_10multipliesEJNS_7xscalarIdEESE_EEEEE17compute_dimensionEvENKUlmOT_E_clISK_EEDamSN_
FN:851,_ZZNK2xt9xfunctionINS_6detail5minusEJRKNS_16xarray_containerINS_7uvectorIdSaIdEEELNS_11layout_typeE1ENS_7svectorImLm4ESaImELb1EEENS_22xtensor_expression_tagEEERKNS0_INS1_10multipliesEJNS_7xscalarIdEESE_EEEEE17compute_dimensionEvENKUlmOT_E_clISE_EEDamSN_
FNDA:0,_ZZNK2xt9xfunctionINS_6detail5minusEJRKNS_16xarray_containerINS_7uvectorIdSaIdEEELNS_11layout_typeE1ENS_7svectorImLm4ESaImELb1EEENS_22xtensor_expression_tagEEERKNS0_INS1_10multipliesEJNS_7xscalarIdEESE_EEEEE17compute_dimensionEvENKUlmOT_E_clISE_EEDamSN_
FN:861,_ZN2xt18xfunction_iteratorINS_6detail5minusEJRKNS_16xarray_containerINS_7uvectorIdSaIdEEELNS_11layout_typeE1ENS_7svectorImLm4ESaImELb1EEENS_22xtensor_expression_tagEEERKNS_9xfunctionINS1_10multipliesEJNS_7xscalarIdEESE_EEEEEC2IJPKdNS0_ISG_JSI_SE_EEEEEEPKNSF_IS2_JSE_SL_EEEDpOT_
FNDA:0,_ZN2xt18xfunction_iteratorINS_6detail5minusEJRKNS_16xarray_containerINS_7uvectorIdSaIdEEELNS_11layout_typeE1ENS_7svectorImLm4ESaImELb1EEENS_22xtensor_expression_tagEEERKNS_9xfunctionINS1_10multipliesEJNS_7xscalarIdEESE_EEEEEC2IJPKdNS0_ISG_JSI_SE_EEEEEEPKNSF_IS2_JSE_SL_EEEDpOT_
FN:861,_ZN2xt18xfunction_iteratorINS_6detail10multipliesEJNS_7xscalarIdEERKNS_16xarray_containerINS_7uvectorIdSaIdEEELNS_11layout_typeE1ENS_7svectorImLm4ESaImELb1EEENS_22xtensor_expression_tagEEEEEC2IJNS_15xdummy_iteratorILb1EdEEPKdEEEPKNS_9xfunctionIS2_JS4_SG_EEEDpOT_
FNDA:0,_ZN2xt18xfunction_iteratorINS_6detail10multipliesEJNS_7xscalarIdEERKNS_16xarray_containerINS_7uvectorIdSaIdEEELNS_11layout_typeE1ENS_7svectorImLm4ESaImELb1EEENS_22xtensor_expression_tagEEEEEC2IJNS_15xdummy_iteratorILb1EdEEPKdEEEPKNS_9xfunctionIS2_JS4_SG_EEEDpOT_
FN:867,_ZN2xt18xfunction_iteratorINS_6detail10multipliesEJNS_7xscalarIdEERKNS_16xarray_containerINS_7uvectorIdSaIdEEELNS_11layout_typeE1ENS_7svectorImLm4ESaImELb1EEENS_22xtensor_expression_tagEEEEEppEv
FNDA:0,_ZN2xt18xfunction_iteratorINS_6detail10multipliesEJNS_7xscalarIdEERKNS_16xarray_containerINS_7uvectorIdSaIdEEELNS_11layout_typeE1ENS_7svectorImLm4ESaImELb1EEENS_22xtensor_expression_tagEEEEEppEv
FN:867,_ZN2xt18xfunction_iteratorINS_6detail5minusEJRKNS_16xarray_containerINS_7uvectorIdSaIdEEELNS_11layout_typeE1ENS_7svectorImLm4ESaImELb1EEENS_22xtensor_expression_tagEEERKNS_9xfunctionINS1_10multipliesEJNS_7xscalarIdEESE_EEEEEppEv
FNDA:0,_ZN2xt18xfunction_iteratorINS_6detail5minusEJRKNS_16xarray_containerINS_7uvectorIdSaIdEEELNS_11layout_typeE1ENS_7svectorImLm4ESaImELb1EEENS_22xtensor_expression_tagEEERKNS_9xfunctionINS1_10multipliesEJNS_7xscalarIdEESE_EEEEEppEv
FN:869,_ZZN2xt18xfunction_iteratorINS_6detail5minusEJRKNS_16xarray_containerINS_7uvectorIdSaIdEEELNS_11layout_typeE1ENS_7svectorImLm4ESaImELb1EEENS_22xtensor_expression_tagEEERKNS_9xfunctionINS1_10multipliesEJNS_7xscalarIdEESE_EEEEEppEvENKUlRT_E_clIPKdEEDaSO_
FNDA:0,_ZZN2xt18xfunction_iteratorINS_6detail5minusEJRKNS_16xarray_containerINS_7uvectorIdSaIdEEELNS_11layout_typeE1ENS_7svectorImLm4ESaImELb1EEENS_22xtensor_expression_tagEEERKNS_9xfunctionINS1_10multipliesEJNS_7xscalarIdEESE_EEEEEppEvENKUlRT_E_clIPKdEEDaSO_
FN:869,_ZZN2xt18xfunction_iteratorINS_6detail5minusEJRKNS_16xarray_containerINS_7uvectorIdSaIdEEELNS_11layout_typeE1ENS_7svectorImLm4ESaImELb1EEENS_22xtensor_expression_tagEEERKNS_9xfunctionINS1_10multipliesEJNS_7xscalarIdEESE_EEEEEppEvENKUlRT_E_clINS0_ISG_JSI_SE_EEEEEDaSO_
FNDA:0,_ZZN2xt18xfunction_iteratorINS_6detail5minusEJRKNS_16xarray_containerINS_7uvectorIdSaIdEEELNS_11layout_typeE1ENS_7svectorImLm4ESaImELb1EEENS_22xtensor_expression_tagEEERKNS_9xfunctionINS1_10multipliesEJNS_7xscalarIdEESE_EEEEEppEvENKUlRT_E_clINS0_ISG_JSI_SE_EEEEEDaSO_
FN:869,_ZZN2xt18xfunction_iteratorINS_6detail10multipliesEJNS_7xscalarIdEERKNS_16xarray_containerINS_7uvectorIdSaIdEEELNS_11layout_typeE1ENS_7svectorImLm4ESaImELb1EEENS_22xtensor_expression_tagEEEEEppEvENKUlRT_E_clINS_15xdummy_iteratorILb1EdEEEEDaSJ_
FNDA:0,_ZZN2xt18xfunction_iteratorINS_6detail10multipliesEJNS_7xscalarIdEERKNS_16xarray_containerINS_7uvectorIdSaIdEEELNS_11layout_typeE1ENS_7svectorImLm4ESaImELb1EEENS_22xtensor_expression_tagEEEEEppEvENKUlRT_E_clINS_15xdummy_iteratorILb1EdEEEEDaSJ_
FN:869,_ZZN2xt18xfunction_iteratorINS_6detail10multipliesEJNS_7xscalarIdEERKNS_16xarray_containerINS_7uvectorIdSaIdEEELNS_11layout_typeE1ENS_7svectorImLm4ESaImELb1EEENS_22xtensor_expression_tagEEEEEppEvENKUlRT_E_clIPKdEEDaSJ_
FNDA:0,_ZZN2xt18xfunction_iteratorINS_6detail10multipliesEJNS_7xscalarIdEERKNS_16xarray_containerINS_7uvectorIdSaIdEEELNS_11layout_typeE1ENS_7svectorImLm4ESaImELb1EEENS_22xtensor_expression_tagEEEEEppEvENKUlRT_E_clIPKdEEDaSJ_
FN:905,_ZNK2xt18xfunction_iteratorINS_6detail5minusEJRKNS_16xarray_containerINS_7uvectorIdSaIdEEELNS_11layout_typeE1ENS_7svectorImLm4ESaImELb1EEENS_22xtensor_expression_tagEEERKNS_9xfunctionINS1_10multipliesEJNS_7xscalarIdEESE_EEEEEdeEv
FNDA:0,_ZNK2xt18xfunction_iteratorINS_6detail5minusEJRKNS_16xarray_containerINS_7uvectorIdSaIdEEELNS_11layout_typeE1ENS_7svectorImLm4ESaImELb1EEENS_22xtensor_expression_tagEEERKNS_9xfunctionINS1_10multipliesEJNS_7xscalarIdEESE_EEEEEdeEv
FN:905,_ZNK2xt18xfunction_iteratorINS_6detail10multipliesEJNS_7xscalarIdEERKNS_16xarray_containerINS_7uvectorIdSaIdEEELNS_11layout_typeE1ENS_7svectorImLm4ESaImELb1EEENS_22xtensor_expression_tagEEEEEdeEv
FNDA:0,_ZNK2xt18xfunction_iteratorINS_6detail10multipliesEJNS_7xscalarIdEERKNS_16xarray_containerINS_7uvectorIdSaIdEEELNS_11layout_typeE1ENS_7svectorImLm4ESaImELb1EEENS_22xtensor_expression_tagEEEEEdeEv
FN:932,_ZNK2xt18xfunction_iteratorINS_6detail5minusEJRKNS_16xarray_containerINS_7uvectorIdSaIdEEELNS_11layout_typeE1ENS_7svectorImLm4ESaImELb1EEENS_22xtensor_expression_tagEEERKNS_9xfunctionINS1_10multipliesEJNS_7xscalarIdEESE_EEEEE10deref_implIJLm0ELm1EEEEdSt16integer_sequenceImJXspT_EEE
FNDA:0,_ZNK2xt18xfunction_iteratorINS_6detail5minusEJRKNS_16xarray_containerINS_7uvectorIdSaIdEEELNS_11layout_typeE1ENS_7svectorImLm4ESaImELb1EEENS_22xtensor_expression_tagEEERKNS_9xfunctionINS1_10multipliesEJNS_7xscalarIdEESE_EEEEE10deref_implIJLm0ELm1EEEEdSt16integer_sequenceImJXspT_EEE
FN:932,_ZNK2xt18xfunction_iteratorINS_6detail10multipliesEJNS_7xscalarIdEERKNS_16xarray_containerINS_7uvectorIdSaIdEEELNS_11layout_typeE1ENS_7svectorImLm4ESaImELb1EEENS_22xtensor_expression_tagEEEEE10deref_implIJLm0ELm1EEEEdSt16integer_sequenceImJXspT_EEE
FNDA:0,_ZNK2xt18xfunction_iteratorINS_6detail10multipliesEJNS_7xscalarIdEERKNS_16xarray_containerINS_7uvectorIdSaIdEEELNS_11layout_typeE1ENS_7svectorImLm4ESaImELb1EEENS_22xtensor_expression_tagEEEEE10deref_implIJLm0ELm1EEEEdSt16integer_sequenceImJXspT_EEE
FN:968,_ZN2xt17xfunction_stepperINS_6detail5minusEJRKNS_16xarray_containerINS_7uvectorIdSaIdEEELNS_11layout_typeE1ENS_7svectorImLm4ESaImELb1EEENS_22xtensor_expression_tagEEERKNS_9xfunctionINS1_10multipliesEJNS_7xscalarIdEESE_EEEEEC2IJNS_8xstepperISD_EENS0_ISG_JSI_SE_EEEEEEPKNSF_IS2_JSE_SL_EEEDpOT_
FNDA:0,_ZN2xt17xfunction_stepperINS_6detail5minusEJRKNS_16xarray_containerINS_7uvectorIdSaIdEEELNS_11layout_typeE1ENS_7svectorImLm4ESaImELb1EEENS_22xtensor_expression_tagEEERKNS_9xfunctionINS1_10multipliesEJNS_7xscalarIdEESE_EEEEEC2IJNS_8xstepperISD_EENS0_ISG_JSI_SE_EEEEEEPKNSF_IS2_JSE_SL_EEEDpOT_
FN:968,_ZN2xt17xfunction_stepperINS_6detail10multipliesEJNS_7xscalarIdEERKNS_16xarray_containerINS_7uvectorIdSaIdEEELNS_11layout_typeE1ENS_7svectorImLm4ESaImELb1EEENS_22xtensor_expression_tagEEEEEC2IJNS_15xscalar_stepperILb1EdEENS_8xstepperISF_EEEEEPKNS_9xfunctionIS2_JS4_SG_EEEDpOT_
FNDA:0,_ZN2xt17xfunction_stepperINS_6detail10multipliesEJNS_7xscalarIdEERKNS_16xarray_containerINS_7uvectorIdSaIdEEELNS_11layout_typeE1ENS_7svectorImLm4ESaImELb1EEENS_22xtensor_expression_tagEEEEEC2IJNS_15xscalar_stepperILb1EdEENS_8xstepperISF_EEEEEPKNS_9xfunctionIS2_JS4_SG_EEEDpOT_
FN:974,_ZN2xt17xfunction_stepperINS_6detail5minusEJRKNS_16xarray_containerINS_7uvectorIdSaIdEEELNS_11layout_typeE1ENS_7svectorImLm4ESaImELb1EEENS_22xtensor_expression_tagEEERKNS_9xfunctionINS1_10multipliesEJNS_7xscalarIdEESE_EEEEE4stepEm
FNDA:0,_ZN2xt17xfunction_stepperINS_6detail5minusEJRKNS_16xarray_containerINS_7uvectorIdSaIdEEELNS_11layout_typeE1ENS_7svectorImLm4ESaImELb1EEENS_22xtensor_expression_tagEEERKNS_9xfunctionINS1_10multipliesEJNS_7xscalarIdEESE_EEEEE4stepEm
FN:974,_ZN2xt17xfunction_stepperINS_6detail10multipliesEJNS_7xscalarIdEERKNS_16xarray_containerINS_7uvectorIdSaIdEEELNS_11layout_typeE1ENS_7svectorImLm4ESaImELb1EEENS_22xtensor_expression_tagEEEEE4stepEm
FNDA:0,_ZN2xt17xfunction_stepperINS_6detail10multipliesEJNS_7xscalarIdEERKNS_16xarray_containerINS_7uvectorIdSaIdEEELNS_11layout_typeE1ENS_7svectorImLm4ESaImELb1EEENS_22xtensor_expression_tagEEEEE4stepEm
FN:976,_ZZN2xt17xfunction_stepperINS_6detail10multipliesEJNS_7xscalarIdEERKNS_16xarray_containerINS_7uvectorIdSaIdEEELNS_11layout_typeE1ENS_7svectorImLm4ESaImELb1EEENS_22xtensor_expression_tagEEEEE4stepEmENKUlRT_E_clINS_8xstepperISF_EEEEDaSJ_
FNDA:0,_ZZN2xt17xfunction_stepperINS_6detail10multipliesEJNS_7xscalarIdEERKNS_16xarray_containerINS_7uvectorIdSaIdEEELNS_11layout_typeE1ENS_7svectorImLm4ESaImELb1EEENS_22xtensor_expression_tagEEEEE4stepEmENKUlRT_E_clINS_8xstepperISF_EEEEDaSJ_
FN:976,_ZZN2xt17xfunction_stepperINS_6detail5minusEJRKNS_16xarray_containerINS_7uvectorIdSaIdEEELNS_11layout_typeE1ENS_7svectorImLm4ESaImELb1EEENS_22xtensor_expression_tagEEERKNS_9xfunctionINS1_10multipliesEJNS_7xscalarIdEESE_EEEEE4stepEmENKUlRT_E_clINS_8xstepperISD_EEEEDaSO_
FNDA:0,_ZZN2xt17xfunction_stepperINS_6detail5minusEJRKNS_16xarray_containerINS_7uvectorIdSaIdEEELNS_11layout_typeE1ENS_7svectorImLm4ESaImELb1EEENS_22xtensor_expression_tagEEERKNS_9xfunctionINS1_10multipliesEJNS_7xscalarIdEESE_EEEEE4stepEmENKUlRT_E_clINS_8xstepperISD_EEEEDaSO_
FN:976,_ZZN2xt17xfunction_stepperINS_6detail10multipliesEJNS_7xscalarIdEERKNS_16xarray_containerINS_7uvectorIdSaIdEEELNS_11layout_typeE1ENS_7svectorImLm4ESaImELb1EEENS_22xtensor_expression_tagEEEEE4stepEmENKUlRT_E_clINS_15xscalar_stepperILb1EdEEEEDaSJ_
FNDA:0,_ZZN2xt17xfunction_stepperINS_6detail10multipliesEJNS_7xscalarIdEERKNS_16xarray_containerINS_7uvectorIdSaIdEEELNS_11layout_typeE1ENS_7svectorImLm4ESaImELb1EEENS_22xtensor_expression_tagEEEEE4stepEmENKUlRT_E_clINS_15xscalar_stepperILb1EdEEEEDaSJ_
FN:976,_ZZN2xt17xfunction_stepperINS_6detail5minusEJRKNS_16xarray_containerINS_7uvectorIdSaIdEEELNS_11layout_typeE1ENS_7svectorImLm4ESaImELb1EEENS_22xtensor_expression_tagEEERKNS_9xfunctionINS1_10multipliesEJNS_7xscalarIdEESE_EEEEE4stepEmENKUlRT_E_clINS0_ISG_JSI_SE_EEEEEDaSO_
FNDA:0,_ZZN2xt17xfunction_stepperINS_6detail5minusEJRKNS_16xarray_containerINS_7uvectorIdSaIdEEELNS_11layout_typeE1ENS_7svectorImLm4ESaImELb1EEENS_22xtensor_expression_tagEEERKNS_9xfunctionINS1_10multipliesEJNS_7xscalarIdEESE_EEEEE4stepEmENKUlRT_E_clINS0_ISG_JSI_SE_EEEEEDaSO_
FN:1002,_ZN2xt17xfunction_stepperINS_6detail10multipliesEJNS_7xscalarIdEERKNS_16xarray_containerINS_7uvectorIdSaIdEEELNS_11layout_typeE1ENS_7svectorImLm4ESaImELb1EEENS_22xtensor_expression_tagEEEEE5resetEm
FNDA:0,_ZN2xt17xfunction_stepperINS_6detail10multipliesEJNS_7xscalarIdEERKNS_16xarray_containerINS_7uvectorIdSaIdEEELNS_11layout_typeE1ENS_7svectorImLm4ESaImELb1EEENS_22xtensor_expression_tagEEEEE5resetEm
FN:1002,_ZN2xt17xfunction_stepperINS_6detail5minusEJRKNS_16xarray_containerINS_7uvectorIdSaIdEEELNS_11layout_typeE1ENS_7svectorImLm4ESaImELb1EEENS_22xtensor_expression_tagEEERKNS_9xfunctionINS1_10multipliesEJNS_7xscalarIdEESE_EEEEE5resetEm
FNDA:0,_ZN2xt17xfunction_stepperINS_6detail5minusEJRKNS_16xarray_containerINS_7uvectorIdSaIdEEELNS_11layout_typeE1ENS_7svectorImLm4ESaImELb1EEENS_22xtensor_expression_tagEEERKNS_9xfunctionINS1_10multipliesEJNS_7xscalarIdEESE_EEEEE5resetEm
FN:1004,_ZZN2xt17xfunction_stepperINS_6detail10multipliesEJNS_7xscalarIdEERKNS_16xarray_containerINS_7uvectorIdSaIdEEELNS_11layout_typeE1ENS_7svectorImLm4ESaImELb1EEENS_22xtensor_expression_tagEEEEE5resetEmENKUlRT_E_clINS_15xscalar_stepperILb1EdEEEEDaSJ_
FNDA:0,_ZZN2xt17xfunction_stepperINS_6detail10multipliesEJNS_7xscalarIdEERKNS_16xarray_containerINS_7uvectorIdSaIdEEELNS_11layout_typeE1ENS_7svectorImLm4ESaImELb1EEENS_22xtensor_expression_tagEEEEE5resetEmENKUlRT_E_clINS_15xscalar_stepperILb1EdEEEEDaSJ_
FN:1004,_ZZN2xt17xfunction_stepperINS_6detail10multipliesEJNS_7xscalarIdEERKNS_16xarray_containerINS_7uvectorIdSaIdEEELNS_11layout_typeE1ENS_7svectorImLm4ESaImELb1EEENS_22xtensor_expression_tagEEEEE5resetEmENKUlRT_E_clINS_8xstepperISF_EEEEDaSJ_
FNDA:0,_ZZN2xt17xfunction_stepperINS_6detail10multipliesEJNS_7xscalarIdEERKNS_16xarray_containerINS_7uvectorIdSaIdEEELNS_11layout_typeE1ENS_7svectorImLm4ESaImELb1EEENS_22xtensor_expression_tagEEEEE5resetEmENKUlRT_E_clINS_8xstepperISF_EEEEDaSJ_
FN:1004,_ZZN2xt17xfunction_stepperINS_6detail5minusEJRKNS_16xarray_containerINS_7uvectorIdSaIdEEELNS_11layout_typeE1ENS_7svectorImLm4ESaImELb1EEENS_22xtensor_expression_tagEEERKNS_9xfunctionINS1_10multipliesEJNS_7xscalarIdEESE_EEEEE5resetEmENKUlRT_E_clINS0_ISG_JSI_SE_EEEEEDaSO_
FNDA:0,_ZZN2xt17xfunction_stepperINS_6detail5minusEJRKNS_16xarray_containerINS_7uvectorIdSaIdEEELNS_11layout_typeE1ENS_7svectorImLm4ESaImELb1EEENS_22xtensor_expression_tagEEERKNS_9xfunctionINS1_10multipliesEJNS_7xscalarIdEESE_EEEEE5resetEmENKUlRT_E_clINS0_ISG_JSI_SE_EEEEEDaSO_
FN:1004,_ZZN2xt17xfunction_stepperINS_6detail5minusEJRKNS_16xarray_containerINS_7uvectorIdSaIdEEELNS_11layout_typeE1ENS_7svectorImLm4ESaImELb1EEENS_22xtensor_expression_tagEEERKNS_9xfunctionINS1_10multipliesEJNS_7xscalarIdEESE_EEEEE5resetEmENKUlRT_E_clINS_8xstepperISD_EEEEDaSO_
FNDA:0,_ZZN2xt17xfunction_stepperINS_6detail5minusEJRKNS_16xarray_containerINS_7uvectorIdSaIdEEELNS_11layout_typeE1ENS_7svectorImLm4ESaImELb1EEENS_22xtensor_expression_tagEEERKNS_9xfunctionINS1_10multipliesEJNS_7xscalarIdEESE_EEEEE5resetEmENKUlRT_E_clINS_8xstepperISD_EEEEDaSO_
FN:1023,_ZN2xt17xfunction_stepperINS_6detail5minusEJRKNS_16xarray_containerINS_7uvectorIdSaIdEEELNS_11layout_typeE1ENS_7svectorImLm4ESaImELb1EEENS_22xtensor_expression_tagEEERKNS_9xfunctionINS1_10multipliesEJNS_7xscalarIdEESE_EEEEE6to_endES7_
FNDA:0,_ZN2xt17xfunction_stepperINS_6detail5minusEJRKNS_16xarray_containerINS_7uvectorIdSaIdEEELNS_11layout_typeE1ENS_7svectorImLm4ESaImELb1EEENS_22xtensor_expression_tagEEERKNS_9xfunctionINS1_10multipliesEJNS_7xscalarIdEESE_EEEEE6to_endES7_
FN:1023,_ZN2xt17xfunction_stepperINS_6detail10multipliesEJNS_7xscalarIdEERKNS_16xarray_containerINS_7uvectorIdSaIdEEELNS_11layout_typeE1ENS_7svectorImLm4ESaImELb1EEENS_22xtensor_expression_tagEEEEE6to_endES9_
FNDA:0,_ZN2xt17xfunction_stepperINS_6detail10multipliesEJNS_7xscalarIdEERKNS_16xarray_containerINS_7uvectorIdSaIdEEELNS_11layout_typeE1ENS_7svectorImLm4ESaImELb1EEENS_22xtensor_expression_tagEEEEE6to_endES9_
FN:1025,_ZZN2xt17xfunction_stepperINS_6detail5minusEJRKNS_16xarray_containerINS_7uvectorIdSaIdEEELNS_11layout_typeE1ENS_7svectorImLm4ESaImELb1EEENS_22xtensor_expression_tagEEERKNS_9xfunctionINS1_10multipliesEJNS_7xscalarIdEESE_EEEEE6to_endES7_ENKUlRT_E_clINS_8xstepperISD_EEEEDaSO_
FNDA:0,_ZZN2xt17xfunction_stepperINS_6detail5minusEJRKNS_16xarray_containerINS_7uvectorIdSaIdEEELNS_11layout_typeE1ENS_7svectorImLm4ESaImELb1EEENS_22xtensor_expression_tagEEERKNS_9xfunctionINS1_10multipliesEJNS_7xscalarIdEESE_EEEEE6to_endES7_ENKUlRT_E_clINS_8xstepperISD_EEEEDaSO_
FN:1025,_ZZN2xt17xfunction_stepperINS_6detail10multipliesEJNS_7xscalarIdEERKNS_16xarray_containerINS_7uvectorIdSaIdEEELNS_11layout_typeE1ENS_7svectorImLm4ESaImELb1EEENS_22xtensor_expression_tagEEEEE6to_endES9_ENKUlRT_E_clINS_15xscalar_stepperILb1EdEEEEDaSJ_
FNDA:0,_ZZN2xt17xfunction_stepperINS_6detail10multipliesEJNS_7xscalarIdEERKNS_16xarray_containerINS_7uvectorIdSaIdEEELNS_11layout_typeE1ENS_7svectorImLm4ESaImELb1EEENS_22xtensor_expression_tagEEEEE6to_endES9_ENKUlRT_E_clINS_15xscalar_stepperILb1EdEEEEDaSJ_
FN:1025,_ZZN2xt17xfunction_stepperINS_6detail5minusEJRKNS_16xarray_containerINS_7uvectorIdSaIdEEELNS_11layout_typeE1ENS_7svectorImLm4ESaImELb1EEENS_22xtensor_expression_tagEEERKNS_9xfunctionINS1_10multipliesEJNS_7xscalarIdEESE_EEEEE6to_endES7_ENKUlRT_E_clINS0_ISG_JSI_SE_EEEEEDaSO_
FNDA:0,_ZZN2xt17xfunction_stepperINS_6detail5minusEJRKNS_16xarray_containerINS_7uvectorIdSaIdEEELNS_11layout_typeE1ENS_7svectorImLm4ESaImELb1EEENS_22xtensor_expression_tagEEERKNS_9xfunctionINS1_10multipliesEJNS_7xscalarIdEESE_EEEEE6to_endES7_ENKUlRT_E_clINS0_ISG_JSI_SE_EEEEEDaSO_
FN:1025,_ZZN2xt17xfunction_stepperINS_6detail10multipliesEJNS_7xscalarIdEERKNS_16xarray_containerINS_7uvectorIdSaIdEEELNS_11layout_typeE1ENS_7svectorImLm4ESaImELb1EEENS_22xtensor_expression_tagEEEEE6to_endES9_ENKUlRT_E_clINS_8xstepperISF_EEEEDaSJ_
FNDA:0,_ZZN2xt17xfunction_stepperINS_6detail10multipliesEJNS_7xscalarIdEERKNS_16xarray_containerINS_7uvectorIdSaIdEEELNS_11layout_typeE1ENS_7svectorImLm4ESaImELb1EEENS_22xtensor_expression_tagEEEEE6to_endES9_ENKUlRT_E_clINS_8xstepperISF_EEEEDaSJ_
FN:1030,_ZNK2xt17xfunction_stepperINS_6detail5minusEJRKNS_16xarray_containerINS_7uvectorIdSaIdEEELNS_11layout_typeE1ENS_7svectorImLm4ESaImELb1EEENS_22xtensor_expression_tagEEERKNS_9xfunctionINS1_10multipliesEJNS_7xscalarIdEESE_EEEEEdeEv
FNDA:0,_ZNK2xt17xfunction_stepperINS_6detail5minusEJRKNS_16xarray_containerINS_7uvectorIdSaIdEEELNS_11layout_typeE1ENS_7svectorImLm4ESaImELb1EEENS_22xtensor_expression_tagEEERKNS_9xfunctionINS1_10multipliesEJNS_7xscalarIdEESE_EEEEEdeEv
FN:1030,_ZNK2xt17xfunction_stepperINS_6detail10multipliesEJNS_7xscalarIdEERKNS_16xarray_containerINS_7uvectorIdSaIdEEELNS_11layout_typeE1ENS_7svectorImLm4ESaImELb1EEENS_22xtensor_expression_tagEEEEEdeEv
FNDA:0,_ZNK2xt17xfunction_stepperINS_6detail10multipliesEJNS_7xscalarIdEERKNS_16xarray_containerINS_7uvectorIdSaIdEEELNS_11layout_typeE1ENS_7svectorImLm4ESaImELb1EEENS_22xtensor_expression_tagEEEEEdeEv
FN:1037,_ZNK2xt17xfunction_stepperINS_6detail10multipliesEJNS_7xscalarIdEERKNS_16xarray_containerINS_7uvectorIdSaIdEEELNS_11layout_typeE1ENS_7svectorImLm4ESaImELb1EEENS_22xtensor_expression_tagEEEEE10deref_implIJLm0ELm1EEEEdSt16integer_sequenceImJXspT_EEE
FNDA:0,_ZNK2xt17xfunction_stepperINS_6detail10multipliesEJNS_7xscalarIdEERKNS_16xarray_containerINS_7uvectorIdSaIdEEELNS_11layout_typeE1ENS_7svectorImLm4ESaImELb1EEENS_22xtensor_expression_tagEEEEE10deref_implIJLm0ELm1EEEEdSt16integer_sequenceImJXspT_EEE
FN:1037,_ZNK2xt17xfunction_stepperINS_6detail5minusEJRKNS_16xarray_containerINS_7uvectorIdSaIdEEELNS_11layout_typeE1ENS_7svectorImLm4ESaImELb1EEENS_22xtensor_expression_tagEEERKNS_9xfunctionINS1_10multipliesEJNS_7xscalarIdEESE_EEEEE10deref_implIJLm0ELm1EEEEdSt16integer_sequenceImJXspT_EEE
FNDA:0,_ZNK2xt17xfunction_stepperINS_6detail5minusEJRKNS_16xarray_containerINS_7uvectorIdSaIdEEELNS_11layout_typeE1ENS_7svectorImLm4ESaImELb1EEENS_22xtensor_expression_tagEEERKNS_9xfunctionINS1_10multipliesEJNS_7xscalarIdEESE_EEEEE10deref_implIJLm0ELm1EEEEdSt16integer_sequenceImJXspT_EEE
DA:53,0
DA:54,0
DA:55,0
DA:56,0
DA:53,0
DA:54,0
DA:55,0
DA:56,0
DA:250,0
DA:250,0
DA:501,0
DA:502,0
DA:501,0
DA:502,0
DA:523,0
DA:525,0
DA:526,0
DA:523,0
DA:525,0
DA:526,0
DA:560,0
DA:562,0
DA:560,0
DA:562,0
DA:566,0
DA:568,0
DA:566,0
DA:568,0
DA:568,0
DA:568,0
DA:568,0
DA:568,0
DA:660,0
DA:662,0
DA:664,0
DA:665,0
DA:670,0
DA:671,0
DA:660,0
DA:662,0
DA:664,0
DA:665,0
DA:670,0
DA:671,0
DA:670,0
DA:670,0
DA:670,0
DA:670,0
DA:682,0
DA:684,0
DA:685,0
DA:682,0
DA:684,0
DA:685,0
DA:684,0
DA:684,0
DA:684,0
DA:684,0
DA:702,0
DA:705,0
DA:702,0
DA:705,0
DA:704,0
DA:704,0
DA:704,0
DA:704,0
DA:741,0
DA:743,0
DA:744,0
DA:741,0
DA:743,0
DA:744,0
DA:743,0
DA:743,0
DA:743,0
DA:743,0
DA:790,0
DA:792,0
DA:790,0
DA:792,0
DA:836,0
DA:838,0
DA:836,0
DA:838,0
DA:843,0
DA:845,0
DA:843,0
DA:845,0
DA:849,0
DA:852,0
DA:849,0
DA:852,0
DA:851,0
DA:851,0
DA:851,0
DA:851,0
DA:861,0
DA:862,0
DA:864,0
DA:861,0
DA:862,0
DA:864,0
DA:867,0
DA:870,0
DA:871,0
DA:867,0
DA:870,0
DA:871,0
DA:869,0
DA:869,0
DA:869,0
DA:869,0
DA:905,0
DA:907,0
DA:905,0
DA:907,0
DA:932,0
DA:934,0
DA:932,0
DA:934,0
DA:968,0
DA:969,0
DA:971,0
DA:968,0
DA:969,0
DA:971,0
DA:974,0
DA:976,0
DA:977,0
DA:978,0
DA:974,0
DA:976,0
DA:977,0
DA:978,0
DA:976,0
DA:976,0
DA:976,0
DA:976,0
DA:1002,0
DA:1004,0
DA:1005,0
DA:1006,0
DA:1002,0
DA:1004,0
DA:1005,0
DA:1006,0
DA:1004,0
DA:1004,0
DA:1004,0
DA:1004,0
DA:1023,0
DA:1025,0
DA:1026,0
DA:1027,0
DA:1023,0
DA:1025,0
DA:1026,0
DA:1027,0
DA:1025,0
DA:1025,0
DA:1025,0
DA:1025,0
DA:1030,0
DA:1032,0
DA:1030,0
DA:1032,0
DA:1037,0
DA:1039,0
DA:1037,0
DA:1039,0
end_of_record
SF:/workspace/.xmake/packages/x/xtensor/0.24.3/7589bb6431db4fba90e4d138dda37226/include/xtensor/xsemantic.hpp
FN:144,_ZN2xt14xsemantic_baseINS_16xarray_containerINS_7uvectorIdSaIdEEELNS_11layout_typeE1ENS_7svectorImLm4ESaImELb1EEENS_22xtensor_expression_tagEEEEC2Ev
FNDA:0,_ZN2xt14xsemantic_baseINS_16xarray_containerINS_7uvectorIdSaIdEEELNS_11layout_typeE1ENS_7svectorImLm4ESaImELb1EEENS_22xtensor_expression_tagEEEEC2Ev
FN:145,_ZN2xt14xsemantic_baseINS_16xarray_containerINS_7uvectorIdSaIdEEELNS_11layout_typeE1ENS_7svectorImLm4ESaImELb1EEENS_22xtensor_expression_tagEEEED2Ev
FNDA:0,_ZN2xt14xsemantic_baseINS_16xarray_containerINS_7uvectorIdSaIdEEELNS_11layout_typeE1ENS_7svectorImLm4ESaImELb1EEENS_22xtensor_expression_tagEEEED2Ev
FN:150,_ZN2xt14xsemantic_baseINS_16xarray_containerINS_7uvectorIdSaIdEEELNS_11layout_typeE1ENS_7svectorImLm4ESaImELb1EEENS_22xtensor_expression_tagEEEEC2EOSB_
FNDA:0,_ZN2xt14xsemantic_baseINS_16xarray_containerINS_7uvectorIdSaIdEEELNS_11layout_typeE1ENS_7svectorImLm4ESaImELb1EEENS_22xtensor_expression_tagEEEEC2EOSB_
FN:151,_ZN2xt14xsemantic_baseINS_16xarray_containerINS_7uvectorIdSaIdEEELNS_11layout_typeE1ENS_7svectorImLm4ESaImELb1EEENS_22xtensor_expression_tagEEEEaSEOSB_
FNDA:0,_ZN2xt14xsemantic_baseINS_16xarray_containerINS_7uvectorIdSaIdEEELNS_11layout_typeE1ENS_7svectorImLm4ESaImELb1EEENS_22xtensor_expression_tagEEEEaSEOSB_
FN:199,_ZN2xt19xcontainer_semanticINS_16xarray_containerINS_7uvectorIdSaIdEEELNS_11layout_typeE1ENS_7svectorImLm4ESaImELb1EEENS_22xtensor_expression_tagEEEEC2Ev
FNDA:0,_ZN2xt19xcontainer_semanticINS_16xarray_containerINS_7uvectorIdSaIdEEELNS_11layout_typeE1ENS_7svectorImLm4ESaImELb1EEENS_22xtensor_expression_tagEEEEC2Ev
FN:200,_ZN2xt19xcontainer_semanticINS_16xarray_containerINS_7uvectorIdSaIdEEELNS_11layout_typeE1ENS_7svectorImLm4ESaImELb1EEENS_22xtensor_expression_tagEEEED2Ev
FNDA:0,_ZN2xt19xcontainer_semanticINS_16xarray_containerINS_7uvectorIdSaIdEEELNS_11layout_typeE1ENS_7svectorImLm4ESaImELb1EEENS_22xtensor_expression_tagEEEED2Ev
FN:205,_ZN2xt19xcontainer_semanticINS_16xarray_containerINS_7uvectorIdSaIdEEELNS_11layout_typeE1ENS_7svectorImLm4ESaImELb1EEENS_22xtensor_expression_tagEEEEC2EOSB_
FNDA:0,_ZN2xt19xcontainer_semanticINS_16xarray_containerINS_7uvectorIdSaIdEEELNS_11layout_typeE1ENS_7svectorImLm4ESaImELb1EEENS_22xtensor_expression_tagEEEEC2EOSB_
FN:206,_ZN2xt19xcontainer_semanticINS_16xarray_containerINS_7uvectorIdSaIdEEELNS_11layout_typeE1ENS_7svectorImLm4ESaImELb1EEENS_22xtensor_expression_tagEEEEaSEOSB_
FNDA:0,_ZN2xt19xcontainer_semanticINS_16xarray_containerINS_7uvectorIdSaIdEEELNS_11layout_typeE1ENS_7svectorImLm4ESaImELb1EEENS_22xtensor_expression_tagEEEEaSEOSB_
FN:314,_ZN2xt14xsemantic_baseINS_16xarray_containerINS_7uvectorIdSaIdEEELNS_11layout_typeE1ENS_7svectorImLm4ESaImELb1EEENS_22xtensor_expression_tagEEEEmLIdEENSt9enable_ifIXntsrNS_6detail20is_crtp_base_of_implINS_11xexpressionENSt5decayIT_E4typeEEE5valueERSA_E4typeERKSI_
FNDA:0,_ZN2xt14xsemantic_baseINS_16xarray_containerINS_7uvectorIdSaIdEEELNS_11layout_typeE1ENS_7svectorImLm4ESaImELb1EEENS_22xtensor_expression_tagEEEEmLIdEENSt9enable_ifIXntsrNS_6detail20is_crtp_base_of_implINS_11xexpressionENSt5decayIT_E4typeEEE5valueERSA_E4typeERKSI_
FN:398,_ZN2xt14xsemantic_baseINS_16xarray_containerINS_7uvectorIdSaIdEEELNS_11layout_typeE1ENS_7svectorImLm4ESaImELb1EEENS_22xtensor_expression_tagEEEEmIINS_9xfunctionINS_6detail10multipliesEJNS_7xscalarIdEERKSA_EEEEERSA_RKNS_11xexpressionIT_EE
FNDA:0,_ZN2xt14xsemantic_baseINS_16xarray_containerINS_7uvectorIdSaIdEEELNS_11layout_typeE1ENS_7svectorImLm4ESaImELb1EEENS_22xtensor_expression_tagEEEEmIINS_9xfunctionINS_6detail10multipliesEJNS_7xscalarIdEERKSA_EEEEERSA_RKNS_11xexpressionIT_EE
FN:487,_ZN2xt14xsemantic_baseINS_16xarray_containerINS_7uvectorIdSaIdEEELNS_11layout_typeE1ENS_7svectorImLm4ESaImELb1EEENS_22xtensor_expression_tagEEEE6assignINS_10xbroadcastINS_7xscalarIdEESt5arrayImLm1EEEEEERSA_RKNS_11xexpressionIT_EE
FNDA:0,_ZN2xt14xsemantic_baseINS_16xarray_containerINS_7uvectorIdSaIdEEELNS_11layout_typeE1ENS_7svectorImLm4ESaImELb1EEENS_22xtensor_expression_tagEEEE6assignINS_10xbroadcastINS_7xscalarIdEESt5arrayImLm1EEEEEERSA_RKNS_11xexpressionIT_EE
FN:487,_ZN2xt14xsemantic_baseINS_16xarray_containerINS_7uvectorIdSaIdEEELNS_11layout_typeE1ENS_7svectorImLm4ESaImELb1EEENS_22xtensor_expression_tagEEEE6assignINS_10xgeneratorINS_6detail7fn_implINSE_7diag_fnIRSA_EEEEdSt5arrayImLm2EEEEEESH_RKNS_11xexpressionIT_EE
FNDA:0,_ZN2xt14xsemantic_baseINS_16xarray_containerINS_7uvectorIdSaIdEEELNS_11layout_typeE1ENS_7svectorImLm4ESaImELb1EEENS_22xtensor_expression_tagEEEE6assignINS_10xgeneratorINS_6detail7fn_implINSE_7diag_fnIRSA_EEEEdSt5arrayImLm2EEEEEESH_RKNS_11xexpressionIT_EE
FN:487,_ZN2xt14xsemantic_baseINS_16xarray_containerINS_7uvectorIdSaIdEEELNS_11layout_typeE1ENS_7svectorImLm4ESaImELb1EEENS_22xtensor_expression_tagEEEE6assignINS_10xgeneratorINS_6detail7fn_implINSE_6eye_fnIbEEEEbSt6vectorImS7_EEEEERSA_RKNS_11xexpressionIT_EE
FNDA:0,_ZN2xt14xsemantic_baseINS_16xarray_containerINS_7uvectorIdSaIdEEELNS_11layout_typeE1ENS_7svectorImLm4ESaImELb1EEENS_22xtensor_expression_tagEEEE6assignINS_10xgeneratorINS_6detail7fn_implINSE_6eye_fnIbEEEEbSt6vectorImS7_EEEEERSA_RKNS_11xexpressionIT_EE
FN:487,_ZN2xt14xsemantic_baseINS_16xarray_containerINS_7uvectorIdSaIdEEELNS_11layout_typeE1ENS_7svectorImLm4ESaImELb1EEENS_22xtensor_expression_tagEEEE6assignINS_9xfunctionINS_6detail5minusEJRKSA_RKNSD_INSE_10multipliesEJNS_7xscalarIdEESH_EEEEEEEERSA_RKNS_11xexpressionIT_EE
FNDA:0,_ZN2xt14xsemantic_baseINS_16xarray_containerINS_7uvectorIdSaIdEEELNS_11layout_typeE1ENS_7svectorImLm4ESaImELb1EEENS_22xtensor_expression_tagEEEE6assignINS_9xfunctionINS_6detail5minusEJRKSA_RKNSD_INSE_10multipliesEJNS_7xscalarIdEESH_EEEEEEEERSA_RKNS_11xexpressionIT_EE
FN:598,_ZN2xt14xsemantic_baseINS_16xarray_containerINS_7uvectorIdSaIdEEELNS_11layout_typeE1ENS_7svectorImLm4ESaImELb1EEENS_22xtensor_expression_tagEEEEaSINS_9xfunctionINS_6detail5minusEJRKSA_RKNSD_INSE_10multipliesEJNS_7xscalarIdEESH_EEEEEEEERSA_RKNS_11xexpressionIT_EE
FNDA:0,_ZN2xt14xsemantic_baseINS_16xarray_containerINS_7uvectorIdSaIdEEELNS_11layout_typeE1ENS_7svectorImLm4ESaImELb1EEENS_22xtensor_expression_tagEEEEaSINS_9xfunctionINS_6detail5minusEJRKSA_RKNSD_INSE_10multipliesEJNS_7xscalarIdEESH_EEEEEEEERSA_RKNS_11xexpressionIT_EE
FN:614,_ZN2xt19xcontainer_semanticINS_16xarray_containerINS_7uvectorIdSaIdEEELNS_11layout_typeE1ENS_7svectorImLm4ESaImELb1EEENS_22xtensor_expression_tagEEEE16assign_temporaryEOSA_
FNDA:0,_ZN2xt19xcontainer_semanticINS_16xarray_containerINS_7uvectorIdSaIdEEELNS_11layout_typeE1ENS_7svectorImLm4ESaImELb1EEENS_22xtensor_expression_tagEEEE16assign_temporaryEOSA_
FN:621,_ZN2xt19xcontainer_semanticINS_16xarray_containerINS_7uvectorIdSaIdEEELNS_11layout_typeE1ENS_7svectorImLm4ESaImELb1EEENS_22xtensor_expression_tagEEEE18assign_xexpressionINS_9xfunctionINS_6detail5minusEJRKSA_RKNSD_INSE_10multipliesEJNS_7xscalarIdEESH_EEEEEEEERSA_RKNS_11xexpressionIT_EE
FNDA:0,_ZN2xt19xcontainer_semanticINS_16xarray_containerINS_7uvectorIdSaIdEEELNS_11layout_typeE1ENS_7svectorImLm4ESaImELb1EEENS_22xtensor_expression_tagEEEE18assign_xexpressionINS_9xfunctionINS_6detail5minusEJRKSA_RKNSD_INSE_10multipliesEJNS_7xscalarIdEESH_EEEEEEEERSA_RKNS_11xexpressionIT_EE
FN:621,_ZN2xt19xcontainer_semanticINS_16xarray_containerINS_7uvectorIdSaIdEEELNS_11layout_typeE1ENS_7svectorImLm4ESaImELb1EEENS_22xtensor_expression_tagEEEE18assign_xexpressionINS_10xgeneratorINS_6detail7fn_implINSE_7diag_fnIRSA_EEEEdSt5arrayImLm2EEEEEESH_RKNS_11xexpressionIT_EE
FNDA:0,_ZN2xt19xcontainer_semanticINS_16xarray_containerINS_7uvectorIdSaIdEEELNS_11layout_typeE1ENS_7svectorImLm4ESaImELb1EEENS_22xtensor_expression_tagEEEE18assign_xexpressionINS_10xgeneratorINS_6detail7fn_implINSE_7diag_fnIRSA_EEEEdSt5arrayImLm2EEEEEESH_RKNS_11xexpressionIT_EE
FN:621,_ZN2xt19xcontainer_semanticINS_16xarray_containerINS_7uvectorIdSaIdEEELNS_11layout_typeE1ENS_7svectorImLm4ESaImELb1EEENS_22xtensor_expression_tagEEEE18assign_xexpressionINS_10xgeneratorINS_6detail7fn_implINSE_6eye_fnIbEEEEbSt6vectorImS7_EEEEERSA_RKNS_11xexpressionIT_EE
FNDA:0,_ZN2xt19xcontainer_semanticINS_16xarray_containerINS_7uvectorIdSaIdEEELNS_11layout_typeE1ENS_7svectorImLm4ESaImELb1EEENS_22xtensor_expression_tagEEEE18assign_xexpressionINS_10xgeneratorINS_6detail7fn_implINSE_6eye_fnIbEEEEbSt6vectorImS7_EEEEERSA_RKNS_11xexpressionIT_EE
FN:621,_ZN2xt19xcontainer_semanticINS_16xarray_containerINS_7uvectorIdSaIdEEELNS_11layout_typeE1ENS_7svectorImLm4ESaImELb1EEENS_22xtensor_expression_tagEEEE18assign_xexpressionINS_10xbroadcastINS_7xscalarIdEESt5arrayImLm1EEEEEERSA_RKNS_11xexpressionIT_EE
FNDA:0,_ZN2xt19xcontainer_semanticINS_16xarray_containerINS_7uvectorIdSaIdEEELNS_11layout_typeE1ENS_7svectorImLm4ESaImELb1EEENS_22xtensor_expression_tagEEEE18assign_xexpressionINS_10xbroadcastINS_7xscalarIdEESt5arrayImLm1EEEEEERSA_RKNS_11xexpressionIT_EE
FN:637,_ZN2xt19xcontainer_semanticINS_16xarray_containerINS_7uvectorIdSaIdEEELNS_11layout_typeE1ENS_7svectorImLm4ESaImELb1EEENS_22xtensor_expression_tagEEEE22scalar_computed_assignIdSt10multipliesIvEEERSA_RKT_OT0_
FNDA:0,_ZN2xt19xcontainer_semanticINS_16xarray_containerINS_7uvectorIdSaIdEEELNS_11layout_typeE1ENS_7svectorImLm4ESaImELb1EEENS_22xtensor_expression_tagEEEE22scalar_computed_assignIdSt10multipliesIvEEERSA_RKT_OT0_
FN:645,_ZN2xt19xcontainer_semanticINS_16xarray_containerINS_7uvectorIdSaIdEEELNS_11layout_typeE1ENS_7svectorImLm4ESaImELb1EEENS_22xtensor_expression_tagEEEEaSINS_9xfunctionINS_6detail5minusEJRKSA_RKNSD_INSE_10multipliesEJNS_7xscalarIdEESH_EEEEEEEERSA_RKNS_11xexpressionIT_EE
FNDA:0,_ZN2xt19xcontainer_semanticINS_16xarray_containerINS_7uvectorIdSaIdEEELNS_11layout_typeE1ENS_7svectorImLm4ESaImELb1EEENS_22xtensor_expression_tagEEEEaSINS_9xfunctionINS_6detail5minusEJRKSA_RKNSD_INSE_10multipliesEJNS_7xscalarIdEESH_EEEEEEEERSA_RKNS_11xexpressionIT_EE
DA:144,0
DA:145,0
DA:150,0
DA:151,0
DA:199,0
DA:200,0
DA:205,0
DA:206,0
DA:314,0
DA:316,0
DA:398,0
DA:400,0
DA:487,0
DA:489,0
DA:487,0
DA:489,0
DA:487,0
DA:489,0
DA:487,0
DA:489,0
DA:598,0
DA:600,0
DA:601,0
DA:602,0
DA:614,0
DA:616,0
DA:621,0
DA:623,0
DA:624,0
DA:621,0
DA:623,0
DA:624,0
DA:621,0
DA:623,0
DA:624,0
DA:621,0
DA:623,0
DA:624,0
DA:637,0
DA:639,0
DA:640,0
DA:645,0
DA:647,0
end_of_record
SF:/usr/include/c++/11/bits/stl_iterator_base_types.h
FN:238,_ZSt19__iterator_categoryIPmENSt15iterator_traitsIT_E17iterator_categoryERKS2_
FNDA:0,_ZSt19__iterator_categoryIPmENSt15iterator_traitsIT_E17iterator_categoryERKS2_
FN:238,_ZSt19__iterator_categoryIPKcENSt15iterator_traitsIT_E17iterator_categoryERKS3_
FNDA:0,_ZSt19__iterator_categoryIPKcENSt15iterator_traitsIT_E17iterator_categoryERKS3_
FN:238,_ZSt19__iterator_categoryIPKmENSt15iterator_traitsIT_E17iterator_categoryERKS3_
FNDA:0,_ZSt19__iterator_categoryIPKmENSt15iterator_traitsIT_E17iterator_categoryERKS3_
DA:238,0
DA:239,0
DA:238,0
DA:239,0
DA:238,0
DA:239,0
end_of_record
SF:/usr/include/c++/11/bits/stl_algo.h
FN:4285,_ZSt9transformIPmS0_ZN2xt9xiteratorINS1_16xindexed_stepperINS1_10xgeneratorINS1_6detail7fn_implINS5_6eye_fnIbEEEEbSt6vectorImSaImEEEELb1EEEPSC_LNS1_11layout_typeE1EEC4ESE_PKSC_bEUlRKT_E_ET0_SK_SK_SO_T1_
FNDA:0,_ZSt9transformIPmS0_ZN2xt9xiteratorINS1_16xindexed_stepperINS1_10xgeneratorINS1_6detail7fn_implINS5_6eye_fnIbEEEEbSt6vectorImSaImEEEELb1EEEPSC_LNS1_11layout_typeE1EEC4ESE_PKSC_bEUlRKT_E_ET0_SK_SK_SO_T1_
FN:4285,_ZSt9transformIPmS0_ZN2xt9xiteratorINS1_16xindexed_stepperINS1_10xgeneratorINS1_6detail7fn_implINS5_7diag_fnIRNS1_16xarray_containerINS1_7uvectorIdSaIdEEELNS1_11layout_typeE1ENS1_7svectorImLm4ESaImELb1EEENS1_22xtensor_expression_tagEEEEEEEdSt5arrayImLm2EEEELb1EEEPSM_LSC_1EEC4ESO_PKSM_bEUlRKT_E_ET0_ST_ST_SX_T1_
FNDA:0,_ZSt9transformIPmS0_ZN2xt9xiteratorINS1_16xindexed_stepperINS1_10xgeneratorINS1_6detail7fn_implINS5_7diag_fnIRNS1_16xarray_containerINS1_7uvectorIdSaIdEEELNS1_11layout_typeE1ENS1_7svectorImLm4ESaImELb1EEENS1_22xtensor_expression_tagEEEEEEEdSt5arrayImLm2EEEELb1EEEPSM_LSC_1EEC4ESO_PKSM_bEUlRKT_E_ET0_ST_ST_SX_T1_
DA:4285,0
DA:4295,0
DA:4296,0
DA:4297,0
DA:4285,0
DA:4295,0
DA:4296,0
DA:4297,0
end_of_record
SF:/workspace/.xmake/packages/x/xtensor/0.24.3/7589bb6431db4fba90e4d138dda37226/include/xtensor/xlayout.hpp
FN:75,_ZN2xt6detail19compute_layout_implENS_11layout_typeES1_
FNDA:0,_ZN2xt6detail19compute_layout_implENS_11layout_typeES1_
FN:89,_ZN2xt14compute_layoutIJNS_11layout_typeES1_EEES1_DpT_
FNDA:0,_ZN2xt14compute_layoutIJNS_11layout_typeES1_EEES1_DpT_
DA:75,0
DA:78,0
DA:89,0
DA:91,0
end_of_record
SF:/workspace/.xmake/packages/x/xtl/0.7.4/879889b01c084e069706381a4e7b5489/include/xtl/xiterator_base.hpp
FN:90,_ZN3xtlplERKN2xt17xbounded_iteratorIPKmS3_EEl
FNDA:0,_ZN3xtlplERKN2xt17xbounded_iteratorIPKmS3_EEl
FN:102,_ZN3xtlmiERKN2xt17xbounded_iteratorIPKmN9__gnu_cxx17__normal_iteratorIS3_St6vectorImSaImEEEEEEl
FNDA:0,_ZN3xtlmiERKN2xt17xbounded_iteratorIPKmN9__gnu_cxx17__normal_iteratorIS3_St6vectorImSaImEEEEEEl
DA:90,0
DA:92,0
DA:93,0
DA:102,0
DA:104,0
DA:105,0
end_of_record
SF:/usr/include/c++/11/iostream
end_of_record
SF:/usr/include/c++/11/bits/basic_string.tcc
FN:132,_ZNSt7__cxx1112basic_stringIcSt11char_traitsIcESaIcEE9_M_createERmm
FNDA:0,_ZNSt7__cxx1112basic_stringIcSt11char_traitsIcESaIcEE9_M_createERmm
FN:206,_ZNSt7__cxx1112basic_stringIcSt11char_traitsIcESaIcEE12_M_constructIPKcEEvT_S8_St20forward_iterator_tag
FNDA:0,_ZNSt7__cxx1112basic_stringIcSt11char_traitsIcESaIcEE12_M_constructIPKcEEvT_S8_St20forward_iterator_tag
DA:132,0
DA:137,0
DA:138,0
DA:143,0
DA:145,0
DA:147,0
DA:148,0
DA:153,0
DA:206,0
DA:211,0
DA:212,0
DA:215,0
DA:217,0
DA:219,0
DA:220,0
DA:225,0
DA:232,0
DA:233,0
end_of_record
SF:/workspace/.xmake/packages/x/xtl/0.7.4/879889b01c084e069706381a4e7b5489/include/xtl/xsequence.hpp
FN:61,_ZN3xtl6detail16sequence_builderIN2xt7svectorIlLm4ESaIlELb1EEEE4makeEml
FNDA:0,_ZN3xtl6detail16sequence_builderIN2xt7svectorIlLm4ESaIlELb1EEEE4makeEml
FN:61,_ZN3xtl6detail16sequence_builderIN2xt7svectorImLm4ESaImELb1EEEE4makeEmm
FNDA:0,_ZN3xtl6detail16sequence_builderIN2xt7svectorImLm4ESaImELb1EEEE4makeEmm
FN:84,_ZN3xtl6detail16sequence_builderISt5arrayImLm2EEE4makeEmm
FNDA:0,_ZN3xtl6detail16sequence_builderISt5arrayImLm2EEE4makeEmm
FN:107,_ZN3xtl13make_sequenceISt5arrayImLm2EEEET_NS3_9size_typeENS3_10value_typeE
FNDA:0,_ZN3xtl13make_sequenceISt5arrayImLm2EEEET_NS3_9size_typeENS3_10value_typeE
FN:107,_ZN3xtl13make_sequenceIN2xt7svectorImLm4ESaImELb1EEEEET_NS5_9size_typeENS5_10value_typeE
FNDA:0,_ZN3xtl13make_sequenceIN2xt7svectorImLm4ESaImELb1EEEEET_NS5_9size_typeENS5_10value_typeE
FN:107,_ZN3xtl13make_sequenceIN2xt7svectorIlLm4ESaIlELb1EEEEET_NS5_9size_typeENS5_10value_typeE
FNDA:0,_ZN3xtl13make_sequenceIN2xt7svectorIlLm4ESaIlELb1EEEEET_NS5_9size_typeENS5_10value_typeE
FN:128,_ZN3xtl6detail23sequence_forwarder_implISt5arrayImLm2EEA2_mvE7forwardIS4_EES3_RKT_
FNDA:0,_ZN3xtl6detail23sequence_forwarder_implISt5arrayImLm2EEA2_mvE7forwardIS4_EES3_RKT_
FN:128,_ZN3xtl6detail23sequence_forwarder_implISt5arrayImLm1EEA1_mvE7forwardIS4_EES3_RKT_
FNDA:0,_ZN3xtl6detail23sequence_forwarder_implISt5arrayImLm1EEA1_mvE7forwardIS4_EES3_RKT_
FN:141,_ZN3xtl6detail23sequence_forwarder_implIN2xt7svectorImLm4ESaImELb1EEESt6vectorImS4_EvE7forwardIS7_EEDaRKT_
FNDA:0,_ZN3xtl6detail23sequence_forwarder_implIN2xt7svectorImLm4ESaImELb1EEESt6vectorImS4_EvE7forwardIS7_EEDaRKT_
FN:141,_ZN3xtl6detail23sequence_forwarder_implIN2xt7svectorImLm4ESaImELb1EEESt5arrayImLm2EEvE7forwardIS7_EEDaRKT_
FNDA:0,_ZN3xtl6detail23sequence_forwarder_implIN2xt7svectorImLm4ESaImELb1EEESt5arrayImLm2EEvE7forwardIS7_EEDaRKT_
FN:141,_ZN3xtl6detail23sequence_forwarder_implIN2xt7svectorImLm4ESaImELb1EEESt5arrayImLm1EEvE7forwardIS7_EEDaRKT_
FNDA:0,_ZN3xtl6detail23sequence_forwarder_implIN2xt7svectorImLm4ESaImELb1EEESt5arrayImLm1EEvE7forwardIS7_EEDaRKT_
FN:157,_ZN3xtl6detail18sequence_forwarderISt5arrayImLm2EES3_E7forwardIRKS3_EEOT_S9_
FNDA:0,_ZN3xtl6detail18sequence_forwarderISt5arrayImLm2EES3_E7forwardIRKS3_EEOT_S9_
FN:157,_ZN3xtl6detail18sequence_forwarderIN2xt7svectorImLm4ESaImELb1EEES5_E7forwardIS5_EEOT_S9_
FNDA:0,_ZN3xtl6detail18sequence_forwarderIN2xt7svectorImLm4ESaImELb1EEES5_E7forwardIS5_EEOT_S9_
FN:171,_ZN3xtl16forward_sequenceISt5arrayImLm2EERA2_KmEEDcRNSt16remove_referenceIT0_E4typeE
FNDA:0,_ZN3xtl16forward_sequenceISt5arrayImLm2EERA2_KmEEDcRNSt16remove_referenceIT0_E4typeE
FN:171,_ZN3xtl16forward_sequenceISt5arrayImLm1EERA1_KmEEDcRNSt16remove_referenceIT0_E4typeE
FNDA:0,_ZN3xtl16forward_sequenceISt5arrayImLm1EERA1_KmEEDcRNSt16remove_referenceIT0_E4typeE
FN:171,_ZN3xtl16forward_sequenceIN2xt7svectorImLm4ESaImELb1EEERKSt5arrayImLm1EEEEDcRNSt16remove_referenceIT0_E4typeE
FNDA:0,_ZN3xtl16forward_sequenceIN2xt7svectorImLm4ESaImELb1EEERKSt5arrayImLm1EEEEDcRNSt16remove_referenceIT0_E4typeE
FN:171,_ZN3xtl16forward_sequenceIN2xt7svectorImLm4ESaImELb1EEERKSt5arrayImLm2EEEEDcRNSt16remove_referenceIT0_E4typeE
FNDA:0,_ZN3xtl16forward_sequenceIN2xt7svectorImLm4ESaImELb1EEERKSt5arrayImLm2EEEEDcRNSt16remove_referenceIT0_E4typeE
FN:171,_ZN3xtl16forward_sequenceIN2xt7svectorImLm4ESaImELb1EEERKSt6vectorImS3_EEEDcRNSt16remove_referenceIT0_E4typeE
FNDA:0,_ZN3xtl16forward_sequenceIN2xt7svectorImLm4ESaImELb1EEERKSt6vectorImS3_EEEDcRNSt16remove_referenceIT0_E4typeE
FN:171,_ZN3xtl16forward_sequenceISt5arrayImLm2EERKS2_EEDcRNSt16remove_referenceIT0_E4typeE
FNDA:0,_ZN3xtl16forward_sequenceISt5arrayImLm2EERKS2_EEDcRNSt16remove_referenceIT0_E4typeE
FN:171,_ZN3xtl16forward_sequenceIN2xt7svectorImLm4ESaImELb1EEES4_EEDcRNSt16remove_referenceIT0_E4typeE
FNDA:0,_ZN3xtl16forward_sequenceIN2xt7svectorImLm4ESaImELb1EEES4_EEDcRNSt16remove_referenceIT0_E4typeE
DA:61,0
DA:63,0
DA:61,0
DA:63,0
DA:84,0
DA:87,0
DA:88,0
DA:107,0
DA:109,0
DA:107,0
DA:109,0
DA:107,0
DA:109,0
DA:128,0
DA:131,0
DA:132,0
DA:128,0
DA:131,0
DA:132,0
DA:141,0
DA:143,0
DA:141,0
DA:143,0
DA:141,0
DA:143,0
DA:157,0
DA:159,0
DA:157,0
DA:159,0
DA:171,0
DA:174,0
DA:171,0
DA:174,0
DA:171,0
DA:174,0
DA:171,0
DA:174,0
DA:171,0
DA:174,0
DA:171,0
DA:174,0
DA:171,0
DA:174,0
end_of_record
SF:/workspace/.xmake/packages/x/xtensor/0.24.3/7589bb6431db4fba90e4d138dda37226/include/xtensor/xscalar.hpp
FN:491,_ZN2xt12linear_beginIdEEDTcldtfp_11dummy_beginEERKNS_7xscalarIT_EE
FNDA:0,_ZN2xt12linear_beginIdEEDTcldtfp_11dummy_beginEERKNS_7xscalarIT_EE
FN:514,_ZN2xt7xscalarIdEC2Ed
FNDA:0,_ZN2xt7xscalarIdEC2Ed
FN:538,_ZNK2xt7xscalarIdE5shapeEv
FNDA:0,_ZNK2xt7xscalarIdE5shapeEv
FN:551,_ZNK2xt7xscalarIdE6layoutEv
FNDA:0,_ZNK2xt7xscalarIdE6layoutEv
FN:557,_ZNK2xt7xscalarIdE13is_contiguousEv
FNDA:0,_ZNK2xt7xscalarIdE13is_contiguousEv
FN:579,_ZNK2xt7xscalarIdEclIJEEERKdDpT_
FNDA:0,_ZNK2xt7xscalarIdEclIJEEERKdDpT_
FN:620,_ZNK2xt7xscalarIdE15broadcast_shapeINS_7svectorImLm4ESaImELb1EEEEEbRT_b
FNDA:0,_ZNK2xt7xscalarIdE15broadcast_shapeINS_7svectorImLm4ESaImELb1EEEEEbRT_b
FN:627,_ZNK2xt7xscalarIdE17has_linear_assignINS_7svectorIlLm4ESaIlELb1EEEEEbRKT_
FNDA:0,_ZNK2xt7xscalarIdE17has_linear_assignINS_7svectorIlLm4ESaIlELb1EEEEEbRKT_
FN:892,_ZNK2xt7xscalarIdE13stepper_beginINS_7svectorImLm4ESaImELb1EEEEENS_15xscalar_stepperILb1EdEERKT_
FNDA:0,_ZNK2xt7xscalarIdE13stepper_beginINS_7svectorImLm4ESaImELb1EEEEENS_15xscalar_stepperILb1EdEERKT_
FN:917,_ZNK2xt7xscalarIdE11dummy_beginEv
FNDA:0,_ZNK2xt7xscalarIdE11dummy_beginEv
FN:984,_ZN2xt15xscalar_stepperILb1EdEC2EPKNS_7xscalarIdEE
FNDA:0,_ZN2xt15xscalar_stepperILb1EdEC2EPKNS_7xscalarIdEE
FN:990,_ZNK2xt15xscalar_stepperILb1EdEdeEv
FNDA:0,_ZNK2xt15xscalar_stepperILb1EdEdeEv
FN:996,_ZN2xt15xscalar_stepperILb1EdE4stepEmm
FNDA:0,_ZN2xt15xscalar_stepperILb1EdE4stepEmm
FN:1006,_ZN2xt15xscalar_stepperILb1EdE5resetEm
FNDA:0,_ZN2xt15xscalar_stepperILb1EdE5resetEm
FN:1021,_ZN2xt15xscalar_stepperILb1EdE6to_endENS_11layout_typeE
FNDA:0,_ZN2xt15xscalar_stepperILb1EdE6to_endENS_11layout_typeE
FN:1042,_ZN2xt15xdummy_iteratorILb1EdEC2EPKNS_7xscalarIdEE
FNDA:0,_ZN2xt15xdummy_iteratorILb1EdEC2EPKNS_7xscalarIdEE
FN:1048,_ZN2xt15xdummy_iteratorILb1EdEppEv
FNDA:0,_ZN2xt15xdummy_iteratorILb1EdEppEv
FN:1078,_ZNK2xt15xdummy_iteratorILb1EdEdeEv
FNDA:0,_ZNK2xt15xdummy_iteratorILb1EdEdeEv
DA:491,0
DA:493,0
DA:514,0
DA:515,0
DA:517,0
DA:538,0
DA:541,0
DA:551,0
DA:553,0
DA:557,0
DA:559,0
DA:579,0
DA:582,0
DA:620,0
DA:622,0
DA:627,0
DA:629,0
DA:892,0
DA:894,0
DA:917,0
DA:919,0
DA:984,0
DA:985,0
DA:987,0
DA:990,0
DA:992,0
DA:996,0
DA:998,0
DA:1006,0
DA:1008,0
DA:1021,0
DA:1023,0
DA:1042,0
DA:1043,0
DA:1045,0
DA:1048,0
DA:1050,0
DA:1078,0
DA:1080,0
end_of_record
SF:/usr/include/c++/11/bits/stl_vector.h
FN:97,_ZNSt12_Vector_baseImSaImEE17_Vector_impl_dataC2Ev
FNDA:0,_ZNSt12_Vector_baseImSaImEE17_Vector_impl_dataC2Ev
FN:136,_ZNSt12_Vector_baseImSaImEE12_Vector_implC2ERKS0_
FNDA:0,_ZNSt12_Vector_baseImSaImEE12_Vector_implC2ERKS0_
FN:276,_ZNSt12_Vector_baseImSaImEE19_M_get_Tp_allocatorEv
FNDA:0,_ZNSt12_Vector_baseImSaImEE19_M_get_Tp_allocatorEv
FN:280,_ZNKSt12_Vector_baseImSaImEE19_M_get_Tp_allocatorEv
FNDA:0,_ZNKSt12_Vector_baseImSaImEE19_M_get_Tp_allocatorEv
FN:293,_ZNSt12_Vector_baseImSaImEEC2ERKS0_
FNDA:0,_ZNSt12_Vector_baseImSaImEEC2ERKS0_
FN:303,_ZNSt12_Vector_baseImSaImEEC2EmRKS0_
FNDA:0,_ZNSt12_Vector_baseImSaImEEC2EmRKS0_
FN:333,_ZNSt12_Vector_baseImSaImEED2Ev
FNDA:0,_ZNSt12_Vector_baseImSaImEED2Ev
FN:343,_ZNSt12_Vector_baseImSaImEE11_M_allocateEm
FNDA:0,_ZNSt12_Vector_baseImSaImEE11_M_allocateEm
FN:350,_ZNSt12_Vector_baseImSaImEE13_M_deallocateEPmm
FNDA:0,_ZNSt12_Vector_baseImSaImEE13_M_deallocateEPmm
FN:359,_ZNSt12_Vector_baseImSaImEE17_M_create_storageEm
FNDA:0,_ZNSt12_Vector_baseImSaImEE17_M_create_storageEm
FN:553,_ZNSt6vectorImSaImEEC2ERKS1_
FNDA:0,_ZNSt6vectorImSaImEEC2ERKS1_
FN:625,_ZNSt6vectorImSaImEEC2ESt16initializer_listImERKS0_
FNDA:0,_ZNSt6vectorImSaImEEC2ESt16initializer_listImERKS0_
FN:678,_ZNSt6vectorImSaImEED2Ev
FNDA:0,_ZNSt6vectorImSaImEED2Ev
FN:820,_ZNKSt6vectorImSaImEE5beginEv
FNDA:0,_ZNKSt6vectorImSaImEE5beginEv
FN:838,_ZNKSt6vectorImSaImEE3endEv
FNDA:0,_ZNKSt6vectorImSaImEE3endEv
FN:884,_ZNKSt6vectorImSaImEE6cbeginEv
FNDA:0,_ZNKSt6vectorImSaImEE6cbeginEv
FN:893,_ZNKSt6vectorImSaImEE4cendEv
FNDA:0,_ZNKSt6vectorImSaImEE4cendEv
FN:918,_ZNKSt6vectorImSaImEE4sizeEv
FNDA:0,_ZNKSt6vectorImSaImEE4sizeEv
FN:1061,_ZNKSt6vectorImSaImEEixEm
FNDA:0,_ZNKSt6vectorImSaImEEixEm
FN:1577,_ZNSt6vectorImSaImEE19_M_range_initializeIPKmEEvT_S5_St20forward_iterator_tag
FNDA:0,_ZNSt6vectorImSaImEE19_M_range_initializeIPKmEEvT_S5_St20forward_iterator_tag
FN:1767,_ZNSt6vectorImSaImEE17_S_check_init_lenEmRKS0_
FNDA:0,_ZNSt6vectorImSaImEE17_S_check_init_lenEmRKS0_
FN:1776,_ZNSt6vectorImSaImEE11_S_max_sizeERKS0_
FNDA:0,_ZNSt6vectorImSaImEE11_S_max_sizeERKS0_
DA:97,0
DA:98,0
DA:99,0
DA:136,0
DA:137,0
DA:138,0
DA:276,0
DA:277,0
DA:280,0
DA:281,0
DA:293,0
DA:294,0
DA:303,0
DA:304,0
DA:305,0
DA:333,0
DA:335,0
DA:336,0
DA:337,0
DA:343,0
DA:346,0
DA:350,0
DA:353,0
DA:354,0
DA:355,0
DA:359,0
DA:361,0
DA:362,0
DA:363,0
DA:364,0
DA:553,0
DA:555,0
DA:557,0
DA:558,0
DA:560,0
DA:561,0
DA:625,0
DA:627,0
DA:629,0
DA:630,0
DA:631,0
DA:678,0
DA:680,0
DA:681,0
DA:683,0
DA:820,0
DA:821,0
DA:838,0
DA:839,0
DA:884,0
DA:885,0
DA:893,0
DA:894,0
DA:918,0
DA:919,0
DA:1061,0
DA:1064,0
DA:1577,0
DA:1580,0
DA:1582,0
DA:1583,0
DA:1584,0
DA:1585,0
DA:1587,0
DA:1588,0
DA:1767,0
DA:1769,0
DA:1770,0
DA:1772,0
DA:1776,0
DA:1781,0
DA:1783,0
DA:1784,0
end_of_record
SF:/usr/include/c++/11/bits/move.h
FN:49,_ZSt11__addressofIcEPT_RS0_
FNDA:0,_ZSt11__addressofIcEPT_RS0_
FN:49,_ZSt11__addressofImEPT_RS0_
FNDA:0,_ZSt11__addressofImEPT_RS0_
FN:49,_ZSt11__addressofIKcEPT_RS1_
FNDA:0,_ZSt11__addressofIKcEPT_RS1_
FN:49,_ZSt11__addressofISoEPT_RS0_
FNDA:0,_ZSt11__addressofISoEPT_RS0_
FN:77,_ZSt7forwardIKdEOT_RNSt16remove_referenceIS1_E4typeE
FNDA:0,_ZSt7forwardIKdEOT_RNSt16remove_referenceIS1_E4typeE
FN:77,_ZSt7forwardIRKN2xt10xgeneratorINS0_6detail7fn_implINS2_7diag_fnIRNS0_16xarray_containerINS0_7uvectorIdSaIdEEELNS0_11layout_typeE1ENS0_7svectorImLm4ESaImELb1EEENS0_22xtensor_expression_tagEEEEEEEdSt5arrayImLm2EEEEEOT_RNSt16remove_referenceISN_E4typeE
FNDA:0,_ZSt7forwardIRKN2xt10xgeneratorINS0_6detail7fn_implINS2_7diag_fnIRNS0_16xarray_containerINS0_7uvectorIdSaIdEEELNS0_11layout_typeE1ENS0_7svectorImLm4ESaImELb1EEENS0_22xtensor_expression_tagEEEEEEEdSt5arrayImLm2EEEEEOT_RNSt16remove_referenceISN_E4typeE
FN:77,_ZSt7forwardIRKN2xt10xgeneratorINS0_6detail7fn_implINS2_6eye_fnIbEEEEbSt6vectorImSaImEEEEEOT_RNSt16remove_referenceISD_E4typeE
FNDA:0,_ZSt7forwardIRKN2xt10xgeneratorINS0_6detail7fn_implINS2_6eye_fnIbEEEEbSt6vectorImSaImEEEEEOT_RNSt16remove_referenceISD_E4typeE
FN:77,_ZSt7forwardIKSt8optionalIdEEOT_RNSt16remove_referenceIS3_E4typeE
FNDA:0,_ZSt7forwardIKSt8optionalIdEEOT_RNSt16remove_referenceIS3_E4typeE
FN:77,_ZSt7forwardIRZNK2xt9xfunctionINS0_6detail5minusEJRKNS0_16xarray_containerINS0_7uvectorIdSaIdEEELNS0_11layout_typeE1ENS0_7svectorImLm4ESaImELb1EEENS0_22xtensor_expression_tagEEERKNS1_INS2_10multipliesEJNS0_7xscalarIdEESF_EEEEE17compute_dimensionEvEUlmOT_E_ESO_RNSt16remove_referenceISN_E4typeE
FNDA:0,_ZSt7forwardIRZNK2xt9xfunctionINS0_6detail5minusEJRKNS0_16xarray_containerINS0_7uvectorIdSaIdEEELNS0_11layout_typeE1ENS0_7svectorImLm4ESaImELb1EEENS0_22xtensor_expression_tagEEERKNS1_INS2_10multipliesEJNS0_7xscalarIdEESF_EEEEE17compute_dimensionEvEUlmOT_E_ESO_RNSt16remove_referenceISN_E4typeE
FN:77,_ZSt7forwardIRN2xt16xarray_containerINS0_7uvectorIdSaIdEEELNS0_11layout_typeE1ENS0_7svectorImLm4ESaImELb1EEENS0_22xtensor_expression_tagEEEEOT_RNSt16remove_referenceISC_E4typeE
FNDA:0,_ZSt7forwardIRN2xt16xarray_containerINS0_7uvectorIdSaIdEEELNS0_11layout_typeE1ENS0_7svectorImLm4ESaImELb1EEENS0_22xtensor_expression_tagEEEEOT_RNSt16remove_referenceISC_E4typeE
FN:77,_ZSt7forwardIRN2xt20xcontiguous_iterableINS0_16xarray_containerINS0_7uvectorIdSaIdEEELNS0_11layout_typeE1ENS0_7svectorImLm4ESaImELb1EEENS0_22xtensor_expression_tagEEEEEEOT_RNSt16remove_referenceISE_E4typeE
FNDA:0,_ZSt7forwardIRN2xt20xcontiguous_iterableINS0_16xarray_containerINS0_7uvectorIdSaIdEEELNS0_11layout_typeE1ENS0_7svectorImLm4ESaImELb1EEENS0_22xtensor_expression_tagEEEEEEOT_RNSt16remove_referenceISE_E4typeE
FN:77,_ZSt7forwardIRKSt5arrayImLm2EEEOT_RNSt16remove_referenceIS4_E4typeE
FNDA:0,_ZSt7forwardIRKSt5arrayImLm2EEEOT_RNSt16remove_referenceIS4_E4typeE
FN:77,_ZSt7forwardIN2xt6detail7fn_implINS1_7diag_fnIRNS0_16xarray_containerINS0_7uvectorIdSaIdEEELNS0_11layout_typeE1ENS0_7svectorImLm4ESaImELb1EEENS0_22xtensor_expression_tagEEEEEEEEOT_RNSt16remove_referenceISH_E4typeE
FNDA:0,_ZSt7forwardIN2xt6detail7fn_implINS1_7diag_fnIRNS0_16xarray_containerINS0_7uvectorIdSaIdEEELNS0_11layout_typeE1ENS0_7svectorImLm4ESaImELb1EEENS0_22xtensor_expression_tagEEEEEEEEOT_RNSt16remove_referenceISH_E4typeE
FN:77,_ZSt7forwardIRA2_KmEOT_RNSt16remove_referenceIS3_E4typeE
FNDA:0,_ZSt7forwardIRA2_KmEOT_RNSt16remove_referenceIS3_E4typeE
FN:77,_ZSt7forwardIRKSt5arrayImLm1EEEOT_RNSt16remove_referenceIS4_E4typeE
FNDA:0,_ZSt7forwardIRKSt5arrayImLm1EEEOT_RNSt16remove_referenceIS4_E4typeE
FN:77,_ZSt7forwardIRKdEOT_RNSt16remove_referenceIS2_E4typeE
FNDA:0,_ZSt7forwardIRKdEOT_RNSt16remove_referenceIS2_E4typeE
FN:77,_ZSt7forwardIRKN2xt11xexpressionINS0_10xbroadcastINS0_7xscalarIdEESt5arrayImLm1EEEEEEEOT_RNSt16remove_referenceISB_E4typeE
FNDA:0,_ZSt7forwardIRKN2xt11xexpressionINS0_10xbroadcastINS0_7xscalarIdEESt5arrayImLm1EEEEEEEOT_RNSt16remove_referenceISB_E4typeE
FN:77,_ZSt7forwardIN2xt6detail7fn_implINS1_6eye_fnIbEEEEEOT_RNSt16remove_referenceIS6_E4typeE
FNDA:0,_ZSt7forwardIN2xt6detail7fn_implINS1_6eye_fnIbEEEEEOT_RNSt16remove_referenceIS6_E4typeE
FN:77,_ZSt7forwardIN2xt6detail5minusEEOT_RNSt16remove_referenceIS3_E4typeE
FNDA:0,_ZSt7forwardIN2xt6detail5minusEEOT_RNSt16remove_referenceIS3_E4typeE
FN:77,_ZSt7forwardIRKSt6vectorImSaImEEEOT_RNSt16remove_referenceIS5_E4typeE
FNDA:0,_ZSt7forwardIRKSt6vectorImSaImEEEOT_RNSt16remove_referenceIS5_E4typeE
FN:77,_ZSt7forwardIRA1_KmEOT_RNSt16remove_referenceIS3_E4typeE
FNDA:0,_ZSt7forwardIRA1_KmEOT_RNSt16remove_referenceIS3_E4typeE
FN:77,_ZSt7forwardIbEOT_RNSt16remove_referenceIS0_E4typeE
FNDA:0,_ZSt7forwardIbEOT_RNSt16remove_referenceIS0_E4typeE
FN:77,_ZSt7forwardISt10multipliesIvEEOT_RNSt16remove_referenceIS2_E4typeE
FNDA:0,_ZSt7forwardISt10multipliesIvEEOT_RNSt16remove_referenceIS2_E4typeE
FN:77,_ZSt7forwardIRKN2xt9xfunctionINS0_6detail10multipliesEJNS0_7xscalarIdEERKNS0_16xarray_containerINS0_7uvectorIdSaIdEEELNS0_11layout_typeE1ENS0_7svectorImLm4ESaImELb1EEENS0_22xtensor_expression_tagEEEEEEEOT_RNSt16remove_referenceISL_E4typeE
FNDA:0,_ZSt7forwardIRKN2xt9xfunctionINS0_6detail10multipliesEJNS0_7xscalarIdEERKNS0_16xarray_containerINS0_7uvectorIdSaIdEEELNS0_11layout_typeE1ENS0_7svectorImLm4ESaImELb1EEENS0_22xtensor_expression_tagEEEEEEEOT_RNSt16remove_referenceISL_E4typeE
FN:77,_ZSt7forwardIN2xt6detail10multipliesEEOT_RNSt16remove_referenceIS3_E4typeE
FNDA:0,_ZSt7forwardIN2xt6detail10multipliesEEOT_RNSt16remove_referenceIS3_E4typeE
FN:77,_ZSt7forwardIRdEOT_RNSt16remove_referenceIS1_E4typeE
FNDA:0,_ZSt7forwardIRdEOT_RNSt16remove_referenceIS1_E4typeE
FN:77,_ZSt7forwardIRZNK2xt9xfunctionINS0_6detail10multipliesEJNS0_7xscalarIdEERKNS0_16xarray_containerINS0_7uvectorIdSaIdEEELNS0_11layout_typeE1ENS0_7svectorImLm4ESaImELb1EEENS0_22xtensor_expression_tagEEEEE15broadcast_shapeISD_EEbRT_bEUlbOSK_E_ESM_RNSt16remove_referenceISK_E4typeE
FNDA:0,_ZSt7forwardIRZNK2xt9xfunctionINS0_6detail10multipliesEJNS0_7xscalarIdEERKNS0_16xarray_containerINS0_7uvectorIdSaIdEEELNS0_11layout_typeE1ENS0_7svectorImLm4ESaImELb1EEENS0_22xtensor_expression_tagEEEEE15broadcast_shapeISD_EEbRT_bEUlbOSK_E_ESM_RNSt16remove_referenceISK_E4typeE
FN:77,_ZSt7forwardIdEOT_RNSt16remove_referenceIS0_E4typeE
FNDA:0,_ZSt7forwardIdEOT_RNSt16remove_referenceIS0_E4typeE
FN:77,_ZSt7forwardIRZN2xt17xfunction_stepperINS0_6detail10multipliesEJNS0_7xscalarIdEERKNS0_16xarray_containerINS0_7uvectorIdSaIdEEELNS0_11layout_typeE1ENS0_7svectorImLm4ESaImELb1EEENS0_22xtensor_expression_tagEEEEE6to_endESA_EUlRT_E_EOSJ_RNSt16remove_referenceISJ_E4typeE
FNDA:0,_ZSt7forwardIRZN2xt17xfunction_stepperINS0_6detail10multipliesEJNS0_7xscalarIdEERKNS0_16xarray_containerINS0_7uvectorIdSaIdEEELNS0_11layout_typeE1ENS0_7svectorImLm4ESaImELb1EEENS0_22xtensor_expression_tagEEEEE6to_endESA_EUlRT_E_EOSJ_RNSt16remove_referenceISJ_E4typeE
FN:77,_ZSt7forwardIRZN2xt17xfunction_stepperINS0_6detail10multipliesEJNS0_7xscalarIdEERKNS0_16xarray_containerINS0_7uvectorIdSaIdEEELNS0_11layout_typeE1ENS0_7svectorImLm4ESaImELb1EEENS0_22xtensor_expression_tagEEEEE5resetEmEUlRT_E_EOSJ_RNSt16remove_referenceISJ_E4typeE
FNDA:0,_ZSt7forwardIRZN2xt17xfunction_stepperINS0_6detail10multipliesEJNS0_7xscalarIdEERKNS0_16xarray_containerINS0_7uvectorIdSaIdEEELNS0_11layout_typeE1ENS0_7svectorImLm4ESaImELb1EEENS0_22xtensor_expression_tagEEEEE5resetEmEUlRT_E_EOSJ_RNSt16remove_referenceISJ_E4typeE
FN:77,_ZSt7forwardIRZN2xt17xfunction_stepperINS0_6detail10multipliesEJNS0_7xscalarIdEERKNS0_16xarray_containerINS0_7uvectorIdSaIdEEELNS0_11layout_typeE1ENS0_7svectorImLm4ESaImELb1EEENS0_22xtensor_expression_tagEEEEE4stepEmEUlRT_E_EOSJ_RNSt16remove_referenceISJ_E4typeE
FNDA:0,_ZSt7forwardIRZN2xt17xfunction_stepperINS0_6detail10multipliesEJNS0_7xscalarIdEERKNS0_16xarray_containerINS0_7uvectorIdSaIdEEELNS0_11layout_typeE1ENS0_7svectorImLm4ESaImELb1EEENS0_22xtensor_expression_tagEEEEE4stepEmEUlRT_E_EOSJ_RNSt16remove_referenceISJ_E4typeE
FN:77,_ZSt7forwardIRZN2xt18xfunction_iteratorINS0_6detail10multipliesEJNS0_7xscalarIdEERKNS0_16xarray_containerINS0_7uvectorIdSaIdEEELNS0_11layout_typeE1ENS0_7svectorImLm4ESaImELb1EEENS0_22xtensor_expression_tagEEEEEppEvEUlRT_E_EOSJ_RNSt16remove_referenceISJ_E4typeE
FNDA:0,_ZSt7forwardIRZN2xt18xfunction_iteratorINS0_6detail10multipliesEJNS0_7xscalarIdEERKNS0_16xarray_containerINS0_7uvectorIdSaIdEEELNS0_11layout_typeE1ENS0_7svectorImLm4ESaImELb1EEENS0_22xtensor_expression_tagEEEEEppEvEUlRT_E_EOSJ_RNSt16remove_referenceISJ_E4typeE
FN:77,_ZSt7forwardIN2xt15xscalar_stepperILb1EdEEEOT_RNSt16remove_referenceIS3_E4typeE
FNDA:0,_ZSt7forwardIN2xt15xscalar_stepperILb1EdEEEOT_RNSt16remove_referenceIS3_E4typeE
FN:77,_ZSt7forwardIZNK2xt9xfunctionINS0_6detail10multipliesEJNS0_7xscalarIdEERKNS0_16xarray_containerINS0_7uvectorIdSaIdEEELNS0_11layout_typeE1ENS0_7svectorImLm4ESaImELb1EEENS0_22xtensor_expression_tagEEEEE13is_contiguousEvEUlbRKT_E_EOSJ_RNSt16remove_referenceISJ_E4typeE
FNDA:0,_ZSt7forwardIZNK2xt9xfunctionINS0_6detail10multipliesEJNS0_7xscalarIdEERKNS0_16xarray_containerINS0_7uvectorIdSaIdEEELNS0_11layout_typeE1ENS0_7svectorImLm4ESaImELb1EEENS0_22xtensor_expression_tagEEEEE13is_contiguousEvEUlbRKT_E_EOSJ_RNSt16remove_referenceISJ_E4typeE
FN:77,_ZSt7forwardIRZNK2xt9xfunctionINS0_6detail10multipliesEJNS0_7xscalarIdEERKNS0_16xarray_containerINS0_7uvectorIdSaIdEEELNS0_11layout_typeE1ENS0_7svectorImLm4ESaImELb1EEENS0_22xtensor_expression_tagEEEEE17has_linear_assignINSB_IlLm4ESaIlELb1EEEEEbRKT_EUlbOSM_E_ESP_RNSt16remove_referenceISM_E4typeE
FNDA:0,_ZSt7forwardIRZNK2xt9xfunctionINS0_6detail10multipliesEJNS0_7xscalarIdEERKNS0_16xarray_containerINS0_7uvectorIdSaIdEEELNS0_11layout_typeE1ENS0_7svectorImLm4ESaImELb1EEENS0_22xtensor_expression_tagEEEEE17has_linear_assignINSB_IlLm4ESaIlELb1EEEEEbRKT_EUlbOSM_E_ESP_RNSt16remove_referenceISM_E4typeE
FN:77,_ZSt7forwardIRZN2xt17xfunction_stepperINS0_6detail5minusEJRKNS0_16xarray_containerINS0_7uvectorIdSaIdEEELNS0_11layout_typeE1ENS0_7svectorImLm4ESaImELb1EEENS0_22xtensor_expression_tagEEERKNS0_9xfunctionINS2_10multipliesEJNS0_7xscalarIdEESF_EEEEE6to_endES8_EUlRT_E_EOSO_RNSt16remove_referenceISO_E4typeE
FNDA:0,_ZSt7forwardIRZN2xt17xfunction_stepperINS0_6detail5minusEJRKNS0_16xarray_containerINS0_7uvectorIdSaIdEEELNS0_11layout_typeE1ENS0_7svectorImLm4ESaImELb1EEENS0_22xtensor_expression_tagEEERKNS0_9xfunctionINS2_10multipliesEJNS0_7xscalarIdEESF_EEEEE6to_endES8_EUlRT_E_EOSO_RNSt16remove_referenceISO_E4typeE
FN:77,_ZSt7forwardIRZN2xt17xfunction_stepperINS0_6detail5minusEJRKNS0_16xarray_containerINS0_7uvectorIdSaIdEEELNS0_11layout_typeE1ENS0_7svectorImLm4ESaImELb1EEENS0_22xtensor_expression_tagEEERKNS0_9xfunctionINS2_10multipliesEJNS0_7xscalarIdEESF_EEEEE5resetEmEUlRT_E_EOSO_RNSt16remove_referenceISO_E4typeE
FNDA:0,_ZSt7forwardIRZN2xt17xfunction_stepperINS0_6detail5minusEJRKNS0_16xarray_containerINS0_7uvectorIdSaIdEEELNS0_11layout_typeE1ENS0_7svectorImLm4ESaImELb1EEENS0_22xtensor_expression_tagEEERKNS0_9xfunctionINS2_10multipliesEJNS0_7xscalarIdEESF_EEEEE5resetEmEUlRT_E_EOSO_RNSt16remove_referenceISO_E4typeE
FN:77,_ZSt7forwardIRZN2xt17xfunction_stepperINS0_6detail5minusEJRKNS0_16xarray_containerINS0_7uvectorIdSaIdEEELNS0_11layout_typeE1ENS0_7svectorImLm4ESaImELb1EEENS0_22xtensor_expression_tagEEERKNS0_9xfunctionINS2_10multipliesEJNS0_7xscalarIdEESF_EEEEE4stepEmEUlRT_E_EOSO_RNSt16remove_referenceISO_E4typeE
FNDA:0,_ZSt7forwardIRZN2xt17xfunction_stepperINS0_6detail5minusEJRKNS0_16xarray_containerINS0_7uvectorIdSaIdEEELNS0_11layout_typeE1ENS0_7svectorImLm4ESaImELb1EEENS0_22xtensor_expression_tagEEERKNS0_9xfunctionINS2_10multipliesEJNS0_7xscalarIdEESF_EEEEE4stepEmEUlRT_E_EOSO_RNSt16remove_referenceISO_E4typeE
FN:77,_ZSt7forwardIN2xt17xfunction_stepperINS0_6detail10multipliesEJNS0_7xscalarIdEERKNS0_16xarray_containerINS0_7uvectorIdSaIdEEELNS0_11layout_typeE1ENS0_7svectorImLm4ESaImELb1EEENS0_22xtensor_expression_tagEEEEEEEOT_RNSt16remove_referenceISJ_E4typeE
FNDA:0,_ZSt7forwardIN2xt17xfunction_stepperINS0_6detail10multipliesEJNS0_7xscalarIdEERKNS0_16xarray_containerINS0_7uvectorIdSaIdEEELNS0_11layout_typeE1ENS0_7svectorImLm4ESaImELb1EEENS0_22xtensor_expression_tagEEEEEEEOT_RNSt16remove_referenceISJ_E4typeE
FN:77,_ZSt7forwardIN2xt8xstepperIKNS0_16xarray_containerINS0_7uvectorIdSaIdEEELNS0_11layout_typeE1ENS0_7svectorImLm4ESaImELb1EEENS0_22xtensor_expression_tagEEEEEEOT_RNSt16remove_referenceISE_E4typeE
FNDA:0,_ZSt7forwardIN2xt8xstepperIKNS0_16xarray_containerINS0_7uvectorIdSaIdEEELNS0_11layout_typeE1ENS0_7svectorImLm4ESaImELb1EEENS0_22xtensor_expression_tagEEEEEEOT_RNSt16remove_referenceISE_E4typeE
FN:77,_ZSt7forwardIN2xt15xdummy_iteratorILb1EdEEEOT_RNSt16remove_referenceIS3_E4typeE
FNDA:0,_ZSt7forwardIN2xt15xdummy_iteratorILb1EdEEEOT_RNSt16remove_referenceIS3_E4typeE
FN:77,_ZSt7forwardIN2xt7svectorImLm4ESaImELb1EEEEOT_RNSt16remove_referenceIS4_E4typeE
FNDA:0,_ZSt7forwardIN2xt7svectorImLm4ESaImELb1EEEEOT_RNSt16remove_referenceIS4_E4typeE
FN:77,_ZSt7forwardIRZNK2xt9xfunctionINS0_6detail10multipliesEJNS0_7xscalarIdEERKNS0_16xarray_containerINS0_7uvectorIdSaIdEEELNS0_11layout_typeE1ENS0_7svectorImLm4ESaImELb1EEENS0_22xtensor_expression_tagEEEEE17compute_dimensionEvEUlmOT_E_ESK_RNSt16remove_referenceISJ_E4typeE
FNDA:0,_ZSt7forwardIRZNK2xt9xfunctionINS0_6detail10multipliesEJNS0_7xscalarIdEERKNS0_16xarray_containerINS0_7uvectorIdSaIdEEELNS0_11layout_typeE1ENS0_7svectorImLm4ESaImELb1EEENS0_22xtensor_expression_tagEEEEE17compute_dimensionEvEUlmOT_E_ESK_RNSt16remove_referenceISJ_E4typeE
FN:77,_ZSt7forwardIRZNK2xt9xfunctionINS0_6detail5minusEJRKNS0_16xarray_containerINS0_7uvectorIdSaIdEEELNS0_11layout_typeE1ENS0_7svectorImLm4ESaImELb1EEENS0_22xtensor_expression_tagEEERKNS1_INS2_10multipliesEJNS0_7xscalarIdEESF_EEEEE15broadcast_shapeISB_EEbRT_bEUlbOSO_E_ESQ_RNSt16remove_referenceISO_E4typeE
FNDA:0,_ZSt7forwardIRZNK2xt9xfunctionINS0_6detail5minusEJRKNS0_16xarray_containerINS0_7uvectorIdSaIdEEELNS0_11layout_typeE1ENS0_7svectorImLm4ESaImELb1EEENS0_22xtensor_expression_tagEEERKNS1_INS2_10multipliesEJNS0_7xscalarIdEESF_EEEEE15broadcast_shapeISB_EEbRT_bEUlbOSO_E_ESQ_RNSt16remove_referenceISO_E4typeE
FN:77,_ZSt7forwardIRZNK2xt9xfunctionINS0_6detail5minusEJRKNS0_16xarray_containerINS0_7uvectorIdSaIdEEELNS0_11layout_typeE1ENS0_7svectorImLm4ESaImELb1EEENS0_22xtensor_expression_tagEEERKNS1_INS2_10multipliesEJNS0_7xscalarIdEESF_EEEEE17has_linear_assignINS9_IlLm4ESaIlELb1EEEEEbRKT_EUlbOSQ_E_EST_RNSt16remove_referenceISQ_E4typeE
FNDA:0,_ZSt7forwardIRZNK2xt9xfunctionINS0_6detail5minusEJRKNS0_16xarray_containerINS0_7uvectorIdSaIdEEELNS0_11layout_typeE1ENS0_7svectorImLm4ESaImELb1EEENS0_22xtensor_expression_tagEEERKNS1_INS2_10multipliesEJNS0_7xscalarIdEESF_EEEEE17has_linear_assignINS9_IlLm4ESaIlELb1EEEEEbRKT_EUlbOSQ_E_EST_RNSt16remove_referenceISQ_E4typeE
FN:77,_ZSt7forwardIZNK2xt9xfunctionINS0_6detail5minusEJRKNS0_16xarray_containerINS0_7uvectorIdSaIdEEELNS0_11layout_typeE1ENS0_7svectorImLm4ESaImELb1EEENS0_22xtensor_expression_tagEEERKNS1_INS2_10multipliesEJNS0_7xscalarIdEESF_EEEEE13is_contiguousEvEUlbRKT_E_EOSN_RNSt16remove_referenceISN_E4typeE
FNDA:0,_ZSt7forwardIZNK2xt9xfunctionINS0_6detail5minusEJRKNS0_16xarray_containerINS0_7uvectorIdSaIdEEELNS0_11layout_typeE1ENS0_7svectorImLm4ESaImELb1EEENS0_22xtensor_expression_tagEEERKNS1_INS2_10multipliesEJNS0_7xscalarIdEESF_EEEEE13is_contiguousEvEUlbRKT_E_EOSN_RNSt16remove_referenceISN_E4typeE
FN:77,_ZSt7forwardIRKN2xt9xfunctionINS0_6detail5minusEJRKNS0_16xarray_containerINS0_7uvectorIdSaIdEEELNS0_11layout_typeE1ENS0_7svectorImLm4ESaImELb1EEENS0_22xtensor_expression_tagEEERKNS1_INS2_10multipliesEJNS0_7xscalarIdEESF_EEEEEEEOT_RNSt16remove_referenceISP_E4typeE
FNDA:0,_ZSt7forwardIRKN2xt9xfunctionINS0_6detail5minusEJRKNS0_16xarray_containerINS0_7uvectorIdSaIdEEELNS0_11layout_typeE1ENS0_7svectorImLm4ESaImELb1EEENS0_22xtensor_expression_tagEEERKNS1_INS2_10multipliesEJNS0_7xscalarIdEESF_EEEEEEEOT_RNSt16remove_referenceISP_E4typeE
FN:77,_ZSt7forwardIRKN2xt16xarray_containerINS0_7uvectorIdSaIdEEELNS0_11layout_typeE1ENS0_7svectorImLm4ESaImELb1EEENS0_22xtensor_expression_tagEEEEOT_RNSt16remove_referenceISD_E4typeE
FNDA:0,_ZSt7forwardIRKN2xt16xarray_containerINS0_7uvectorIdSaIdEEELNS0_11layout_typeE1ENS0_7svectorImLm4ESaImELb1EEENS0_22xtensor_expression_tagEEEEOT_RNSt16remove_referenceISD_E4typeE
FN:77,_ZSt7forwardIPKdEOT_RNSt16remove_referenceIS2_E4typeE
FNDA:0,_ZSt7forwardIPKdEOT_RNSt16remove_referenceIS2_E4typeE
FN:77,_ZSt7forwardIN2xt18xfunction_iteratorINS0_6detail10multipliesEJNS0_7xscalarIdEERKNS0_16xarray_containerINS0_7uvectorIdSaIdEEELNS0_11layout_typeE1ENS0_7svectorImLm4ESaImELb1EEENS0_22xtensor_expression_tagEEEEEEEOT_RNSt16remove_referenceISJ_E4typeE
FNDA:0,_ZSt7forwardIN2xt18xfunction_iteratorINS0_6detail10multipliesEJNS0_7xscalarIdEERKNS0_16xarray_containerINS0_7uvectorIdSaIdEEELNS0_11layout_typeE1ENS0_7svectorImLm4ESaImELb1EEENS0_22xtensor_expression_tagEEEEEEEOT_RNSt16remove_referenceISJ_E4typeE
FN:77,_ZSt7forwardIRZN2xt18xfunction_iteratorINS0_6detail5minusEJRKNS0_16xarray_containerINS0_7uvectorIdSaIdEEELNS0_11layout_typeE1ENS0_7svectorImLm4ESaImELb1EEENS0_22xtensor_expression_tagEEERKNS0_9xfunctionINS2_10multipliesEJNS0_7xscalarIdEESF_EEEEEppEvEUlRT_E_EOSO_RNSt16remove_referenceISO_E4typeE
FNDA:0,_ZSt7forwardIRZN2xt18xfunction_iteratorINS0_6detail5minusEJRKNS0_16xarray_containerINS0_7uvectorIdSaIdEEELNS0_11layout_typeE1ENS0_7svectorImLm4ESaImELb1EEENS0_22xtensor_expression_tagEEERKNS0_9xfunctionINS2_10multipliesEJNS0_7xscalarIdEESF_EEEEEppEvEUlRT_E_EOSO_RNSt16remove_referenceISO_E4typeE
FN:104,_ZSt4moveIRN2xt16xarray_containerINS0_7uvectorIdSaIdEEELNS0_11layout_typeE1ENS0_7svectorImLm4ESaImELb1EEENS0_22xtensor_expression_tagEEEEONSt16remove_referenceIT_E4typeEOSD_
FNDA:0,_ZSt4moveIRN2xt16xarray_containerINS0_7uvectorIdSaIdEEELNS0_11layout_typeE1ENS0_7svectorImLm4ESaImELb1EEENS0_22xtensor_expression_tagEEEEONSt16remove_referenceIT_E4typeEOSD_
FN:104,_ZSt4moveIRmEONSt16remove_referenceIT_E4typeEOS2_
FNDA:0,_ZSt4moveIRmEONSt16remove_referenceIT_E4typeEOS2_
FN:104,_ZSt4moveIRN2xt7uvectorIdSaIdEEEEONSt16remove_referenceIT_E4typeEOS6_
FNDA:0,_ZSt4moveIRN2xt7uvectorIdSaIdEEEEONSt16remove_referenceIT_E4typeEOS6_
FN:104,_ZSt4moveIRKSt4pairIdSt8optionalIdEEEONSt16remove_referenceIT_E4typeEOS7_
FNDA:0,_ZSt4moveIRKSt4pairIdSt8optionalIdEEEONSt16remove_referenceIT_E4typeEOS7_
FN:104,_ZSt4moveIRSt10shared_ptrIN2xt16xarray_containerINS1_7uvectorIdSaIdEEELNS1_11layout_typeE1ENS1_7svectorImLm4ESaImELb1EEENS1_22xtensor_expression_tagEEEEEONSt16remove_referenceIT_E4typeEOSF_
FNDA:0,_ZSt4moveIRSt10shared_ptrIN2xt16xarray_containerINS1_7uvectorIdSaIdEEELNS1_11layout_typeE1ENS1_7svectorImLm4ESaImELb1EEENS1_22xtensor_expression_tagEEEEEONSt16remove_referenceIT_E4typeEOSF_
FN:104,_ZSt4moveIRSaIdEEONSt16remove_referenceIT_E4typeEOS3_
FNDA:0,_ZSt4moveIRSaIdEEONSt16remove_referenceIT_E4typeEOS3_
FN:104,_ZSt4moveIRSt5arrayImLm1EEEONSt16remove_referenceIT_E4typeEOS4_
FNDA:0,_ZSt4moveIRSt5arrayImLm1EEEONSt16remove_referenceIT_E4typeEOS4_
FN:104,_ZSt4moveIRSt11_Tuple_implILm1EJPKdEEEONSt16remove_referenceIT_E4typeEOS6_
FNDA:0,_ZSt4moveIRSt11_Tuple_implILm1EJPKdEEEONSt16remove_referenceIT_E4typeEOS6_
FN:104,_ZSt4moveIRN2xt7svectorImLm4ESaImELb1EEEEONSt16remove_referenceIT_E4typeEOS6_
FNDA:0,_ZSt4moveIRN2xt7svectorImLm4ESaImELb1EEEEONSt16remove_referenceIT_E4typeEOS6_
FN:104,_ZSt4moveIRPN2xt16xarray_containerINS0_7uvectorIdSaIdEEELNS0_11layout_typeE1ENS0_7svectorImLm4ESaImELb1EEENS0_22xtensor_expression_tagEEEEONSt16remove_referenceIT_E4typeEOSE_
FNDA:0,_ZSt4moveIRPN2xt16xarray_containerINS0_7uvectorIdSaIdEEELNS0_11layout_typeE1ENS0_7svectorImLm4ESaImELb1EEENS0_22xtensor_expression_tagEEEEONSt16remove_referenceIT_E4typeEOSE_
FN:104,_ZSt4moveIRPdEONSt16remove_referenceIT_E4typeEOS3_
FNDA:0,_ZSt4moveIRPdEONSt16remove_referenceIT_E4typeEOS3_
FN:104,_ZSt4moveIRPmEONSt16remove_referenceIT_E4typeEOS3_
FNDA:0,_ZSt4moveIRPmEONSt16remove_referenceIT_E4typeEOS3_
FN:104,_ZSt4moveIRPlEONSt16remove_referenceIT_E4typeEOS3_
FNDA:0,_ZSt4moveIRPlEONSt16remove_referenceIT_E4typeEOS3_
FN:104,_ZSt4moveIRlEONSt16remove_referenceIT_E4typeEOS2_
FNDA:0,_ZSt4moveIRlEONSt16remove_referenceIT_E4typeEOS2_
FN:104,_ZSt4moveIRSt12__shared_ptrIN2xt16xarray_containerINS1_7uvectorIdSaIdEEELNS1_11layout_typeE1ENS1_7svectorImLm4ESaImELb1EEENS1_22xtensor_expression_tagEEELN9__gnu_cxx12_Lock_policyE2EEEONSt16remove_referenceIT_E4typeEOSH_
FNDA:0,_ZSt4moveIRSt12__shared_ptrIN2xt16xarray_containerINS1_7uvectorIdSaIdEEELNS1_11layout_typeE1ENS1_7svectorImLm4ESaImELb1EEENS1_22xtensor_expression_tagEEELN9__gnu_cxx12_Lock_policyE2EEEONSt16remove_referenceIT_E4typeEOSH_
FN:104,_ZSt4moveIRSt11_Tuple_implILm1EJN2xt8xstepperIKNS1_16xarray_containerINS1_7uvectorIdSaIdEEELNS1_11layout_typeE1ENS1_7svectorImLm4ESaImELb1EEENS1_22xtensor_expression_tagEEEEEEEEONSt16remove_referenceIT_E4typeEOSI_
FNDA:0,_ZSt4moveIRSt11_Tuple_implILm1EJN2xt8xstepperIKNS1_16xarray_containerINS1_7uvectorIdSaIdEEELNS1_11layout_typeE1ENS1_7svectorImLm4ESaImELb1EEENS1_22xtensor_expression_tagEEEEEEEEONSt16remove_referenceIT_E4typeEOSI_
FN:145,_ZSt9addressofIKcEPT_RS1_
FNDA:0,_ZSt9addressofIKcEPT_RS1_
FN:145,_ZSt9addressofIcEPT_RS0_
FNDA:0,_ZSt9addressofIcEPT_RS0_
FN:196,_ZSt4swapIPdENSt9enable_ifIXsrSt6__and_IJSt6__not_ISt15__is_tuple_likeIT_EESt21is_move_constructibleIS5_ESt18is_move_assignableIS5_EEE5valueEvE4typeERS5_SF_
FNDA:0,_ZSt4swapIPdENSt9enable_ifIXsrSt6__and_IJSt6__not_ISt15__is_tuple_likeIT_EESt21is_move_constructibleIS5_ESt18is_move_assignableIS5_EEE5valueEvE4typeERS5_SF_
FN:196,_ZSt4swapIPmENSt9enable_ifIXsrSt6__and_IJSt6__not_ISt15__is_tuple_likeIT_EESt21is_move_constructibleIS5_ESt18is_move_assignableIS5_EEE5valueEvE4typeERS5_SF_
FNDA:0,_ZSt4swapIPmENSt9enable_ifIXsrSt6__and_IJSt6__not_ISt15__is_tuple_likeIT_EESt21is_move_constructibleIS5_ESt18is_move_assignableIS5_EEE5valueEvE4typeERS5_SF_
FN:196,_ZSt4swapIPN2xt16xarray_containerINS0_7uvectorIdSaIdEEELNS0_11layout_typeE1ENS0_7svectorImLm4ESaImELb1EEENS0_22xtensor_expression_tagEEEENSt9enable_ifIXsrSt6__and_IJSt6__not_ISt15__is_tuple_likeIT_EESt21is_move_constructibleISG_ESt18is_move_assignableISG_EEE5valueEvE4typeERSG_SQ_
FNDA:0,_ZSt4swapIPN2xt16xarray_containerINS0_7uvectorIdSaIdEEELNS0_11layout_typeE1ENS0_7svectorImLm4ESaImELb1EEENS0_22xtensor_expression_tagEEEENSt9enable_ifIXsrSt6__and_IJSt6__not_ISt15__is_tuple_likeIT_EESt21is_move_constructibleISG_ESt18is_move_assignableISG_EEE5valueEvE4typeERSG_SQ_
FN:196,_ZSt4swapIlENSt9enable_ifIXsrSt6__and_IJSt6__not_ISt15__is_tuple_likeIT_EESt21is_move_constructibleIS4_ESt18is_move_assignableIS4_EEE5valueEvE4typeERS4_SE_
FNDA:0,_ZSt4swapIlENSt9enable_ifIXsrSt6__and_IJSt6__not_ISt15__is_tuple_likeIT_EESt21is_move_constructibleIS4_ESt18is_move_assignableIS4_EEE5valueEvE4typeERS4_SE_
FN:196,_ZSt4swapIPlENSt9enable_ifIXsrSt6__and_IJSt6__not_ISt15__is_tuple_likeIT_EESt21is_move_constructibleIS5_ESt18is_move_assignableIS5_EEE5valueEvE4typeERS5_SF_
FNDA:0,_ZSt4swapIPlENSt9enable_ifIXsrSt6__and_IJSt6__not_ISt15__is_tuple_likeIT_EESt21is_move_constructibleIS5_ESt18is_move_assignableIS5_EEE5valueEvE4typeERS5_SF_
FN:196,_ZSt4swapImENSt9enable_ifIXsrSt6__and_IJSt6__not_ISt15__is_tuple_likeIT_EESt21is_move_constructibleIS4_ESt18is_move_assignableIS4_EEE5valueEvE4typeERS4_SE_
FNDA:0,_ZSt4swapImENSt9enable_ifIXsrSt6__and_IJSt6__not_ISt15__is_tuple_likeIT_EESt21is_move_constructibleIS4_ESt18is_move_assignableIS4_EEE5valueEvE4typeERS4_SE_
DA:49,0
DA:50,0
DA:49,0
DA:50,0
DA:49,0
DA:50,0
DA:49,0
DA:50,0
DA:77,0
DA:78,0
DA:77,0
DA:78,0
DA:77,0
DA:78,0
DA:77,0
DA:78,0
DA:77,0
DA:78,0
DA:77,0
DA:78,0
DA:77,0
DA:78,0
DA:77,0
DA:78,0
DA:77,0
DA:78,0
DA:77,0
DA:78,0
DA:77,0
DA:78,0
DA:77,0
DA:78,0
DA:77,0
DA:78,0
DA:77,0
DA:78,0
DA:77,0
DA:78,0
DA:77,0
DA:78,0
DA:77,0
DA:78,0
DA:77,0
DA:78,0
DA:77,0
DA:78,0
DA:77,0
DA:78,0
DA:77,0
DA:78,0
DA:77,0
DA:78,0
DA:77,0
DA:78,0
DA:77,0
DA:78,0
DA:77,0
DA:78,0
DA:77,0
DA:78,0
DA:77,0
DA:78,0
DA:77,0
DA:78,0
DA:77,0
DA:78,0
DA:77,0
DA:78,0
DA:77,0
DA:78,0
DA:77,0
DA:78,0
DA:77,0
DA:78,0
DA:77,0
DA:78,0
DA:77,0
DA:78,0
DA:77,0
DA:78,0
DA:77,0
DA:78,0
DA:77,0
DA:78,0
DA:77,0
DA:78,0
DA:77,0
DA:78,0
DA:77,0
DA:78,0
DA:77,0
DA:78,0
DA:77,0
DA:78,0
DA:77,0
DA:78,0
DA:77,0
DA:78,0
DA:77,0
DA:78,0
DA:77,0
DA:78,0
DA:104,0
DA:105,0
DA:104,0
DA:105,0
DA:104,0
DA:105,0
DA:104,0
DA:105,0
DA:104,0
DA:105,0
DA:104,0
DA:105,0
DA:104,0
DA:105,0
DA:104,0
DA:105,0
DA:104,0
DA:105,0
DA:104,0
DA:105,0
DA:104,0
DA:105,0
DA:104,0
DA:105,0
DA:104,0
DA:105,0
DA:104,0
DA:105,0
DA:104,0
DA:105,0
DA:104,0
DA:105,0
DA:145,0
DA:146,0
DA:145,0
DA:146,0
DA:196,0
DA:204,0
DA:205,0
DA:206,0
DA:207,0
DA:196,0
DA:204,0
DA:205,0
DA:206,0
DA:207,0
DA:196,0
DA:204,0
DA:205,0
DA:206,0
DA:207,0
DA:196,0
DA:204,0
DA:205,0
DA:206,0
DA:207,0
DA:196,0
DA:204,0
DA:205,0
DA:206,0
DA:207,0
DA:196,0
DA:204,0
DA:205,0
DA:206,0
DA:207,0
end_of_record
SF:/workspace/.xmake/packages/x/xtensor/0.24.3/7589bb6431db4fba90e4d138dda37226/include/xtensor/xaccessible.hpp
FN:150,_ZNK2xt17xconst_accessibleINS_7xscalarIdEEE9dimensionEv
FNDA:0,_ZNK2xt17xconst_accessibleINS_7xscalarIdEEE9dimensionEv
FN:150,_ZNK2xt17xconst_accessibleINS_10xbroadcastINS_7xscalarIdEESt5arrayImLm1EEEEE9dimensionEv
FNDA:0,_ZNK2xt17xconst_accessibleINS_10xbroadcastINS_7xscalarIdEESt5arrayImLm1EEEEE9dimensionEv
FN:150,_ZNK2xt17xconst_accessibleINS_10xgeneratorINS_6detail7fn_implINS2_6eye_fnIbEEEEbSt6vectorImSaImEEEEE9dimensionEv
FNDA:0,_ZNK2xt17xconst_accessibleINS_10xgeneratorINS_6detail7fn_implINS2_6eye_fnIbEEEEbSt6vectorImSaImEEEEE9dimensionEv
FN:150,_ZNK2xt17xconst_accessibleINS_10xgeneratorINS_6detail7fn_implINS2_7diag_fnIRNS_16xarray_containerINS_7uvectorIdSaIdEEELNS_11layout_typeE1ENS_7svectorImLm4ESaImELb1EEENS_22xtensor_expression_tagEEEEEEEdSt5arrayImLm2EEEEE9dimensionEv
FNDA:0,_ZNK2xt17xconst_accessibleINS_10xgeneratorINS_6detail7fn_implINS2_7diag_fnIRNS_16xarray_containerINS_7uvectorIdSaIdEEELNS_11layout_typeE1ENS_7svectorImLm4ESaImELb1EEENS_22xtensor_expression_tagEEEEEEEdSt5arrayImLm2EEEEE9dimensionEv
FN:203,_ZNK2xt17xconst_accessibleINS_16xarray_containerINS_7uvectorIdSaIdEEELNS_11layout_typeE1ENS_7svectorImLm4ESaImELb1EEENS_22xtensor_expression_tagEEEEixEm
FNDA:0,_ZNK2xt17xconst_accessibleINS_16xarray_containerINS_7uvectorIdSaIdEEELNS_11layout_typeE1ENS_7svectorImLm4ESaImELb1EEENS_22xtensor_expression_tagEEEEixEm
FN:254,_ZNK2xt17xconst_accessibleINS_7xscalarIdEEE12derived_castEv
FNDA:0,_ZNK2xt17xconst_accessibleINS_7xscalarIdEEE12derived_castEv
FN:254,_ZNK2xt17xconst_accessibleINS_10xbroadcastINS_7xscalarIdEESt5arrayImLm1EEEEE12derived_castEv
FNDA:0,_ZNK2xt17xconst_accessibleINS_10xbroadcastINS_7xscalarIdEESt5arrayImLm1EEEEE12derived_castEv
FN:254,_ZNK2xt17xconst_accessibleINS_10xgeneratorINS_6detail7fn_implINS2_6eye_fnIbEEEEbSt6vectorImSaImEEEEE12derived_castEv
FNDA:0,_ZNK2xt17xconst_accessibleINS_10xgeneratorINS_6detail7fn_implINS2_6eye_fnIbEEEEbSt6vectorImSaImEEEEE12derived_castEv
FN:254,_ZNK2xt17xconst_accessibleINS_10xgeneratorINS_6detail7fn_implINS2_7diag_fnIRNS_16xarray_containerINS_7uvectorIdSaIdEEELNS_11layout_typeE1ENS_7svectorImLm4ESaImELb1EEENS_22xtensor_expression_tagEEEEEEEdSt5arrayImLm2EEEEE12derived_castEv
FNDA:0,_ZNK2xt17xconst_accessibleINS_10xgeneratorINS_6detail7fn_implINS2_7diag_fnIRNS_16xarray_containerINS_7uvectorIdSaIdEEELNS_11layout_typeE1ENS_7svectorImLm4ESaImELb1EEENS_22xtensor_expression_tagEEEEEEEdSt5arrayImLm2EEEEE12derived_castEv
FN:254,_ZNK2xt17xconst_accessibleINS_16xarray_containerINS_7uvectorIdSaIdEEELNS_11layout_typeE1ENS_7svectorImLm4ESaImELb1EEENS_22xtensor_expression_tagEEEE12derived_castEv
FNDA:0,_ZNK2xt17xconst_accessibleINS_16xarray_containerINS_7uvectorIdSaIdEEELNS_11layout_typeE1ENS_7svectorImLm4ESaImELb1EEENS_22xtensor_expression_tagEEEE12derived_castEv
FN:296,_ZN2xt11xaccessibleINS_16xarray_containerINS_7uvectorIdSaIdEEELNS_11layout_typeE1ENS_7svectorImLm4ESaImELb1EEENS_22xtensor_expression_tagEEEEixImEERdSt16initializer_listIT_E
FNDA:0,_ZN2xt11xaccessibleINS_16xarray_containerINS_7uvectorIdSaIdEEELNS_11layout_typeE1ENS_7svectorImLm4ESaImELb1EEENS_22xtensor_expression_tagEEEEixImEERdSt16initializer_listIT_E
FN:302,_ZN2xt11xaccessibleINS_16xarray_containerINS_7uvectorIdSaIdEEELNS_11layout_typeE1ENS_7svectorImLm4ESaImELb1EEENS_22xtensor_expression_tagEEEEixEm
FNDA:0,_ZN2xt11xaccessibleINS_16xarray_containerINS_7uvectorIdSaIdEEELNS_11layout_typeE1ENS_7svectorImLm4ESaImELb1EEENS_22xtensor_expression_tagEEEEixEm
FN:341,_ZN2xt11xaccessibleINS_16xarray_containerINS_7uvectorIdSaIdEEELNS_11layout_typeE1ENS_7svectorImLm4ESaImELb1EEENS_22xtensor_expression_tagEEEE12derived_castEv
FNDA:0,_ZN2xt11xaccessibleINS_16xarray_containerINS_7uvectorIdSaIdEEELNS_11layout_typeE1ENS_7svectorImLm4ESaImELb1EEENS_22xtensor_expression_tagEEEE12derived_castEv
DA:150,0
DA:152,0
DA:150,0
DA:152,0
DA:150,0
DA:152,0
DA:150,0
DA:152,0
DA:203,0
DA:205,0
DA:254,0
DA:256,0
DA:254,0
DA:256,0
DA:254,0
DA:256,0
DA:254,0
DA:256,0
DA:254,0
DA:256,0
DA:296,0
DA:298,0
DA:302,0
DA:304,0
DA:341,0
DA:343,0
end_of_record
SF:/usr/include/c++/11/array
FN:56,_ZNSt14__array_traitsImLm2EE6_S_refERA2_Kmm
FNDA:0,_ZNSt14__array_traitsImLm2EE6_S_refERA2_Kmm
FN:56,_ZNSt14__array_traitsImLm1EE6_S_refERA1_Kmm
FNDA:0,_ZNSt14__array_traitsImLm1EE6_S_refERA1_Kmm
FN:60,_ZNSt14__array_traitsImLm2EE6_S_ptrERA2_Km
FNDA:0,_ZNSt14__array_traitsImLm2EE6_S_ptrERA2_Km
FN:60,_ZNSt14__array_traitsImLm1EE6_S_ptrERA1_Km
FNDA:0,_ZNSt14__array_traitsImLm1EE6_S_ptrERA1_Km
FN:72,_ZNSt14__array_traitsImLm0EE6_S_refERKNS0_5_TypeEm
FNDA:0,_ZNSt14__array_traitsImLm0EE6_S_refERKNS0_5_TypeEm
FN:76,_ZNSt14__array_traitsImLm0EE6_S_ptrERKNS0_5_TypeE
FNDA:0,_ZNSt14__array_traitsImLm0EE6_S_ptrERKNS0_5_TypeE
FN:117,_ZNSt5arrayImLm2EE4fillERKm
FNDA:0,_ZNSt5arrayImLm2EE4fillERKm
FN:127,_ZNSt5arrayImLm2EE5beginEv
FNDA:0,_ZNSt5arrayImLm2EE5beginEv
FN:127,_ZNSt5arrayImLm1EE5beginEv
FNDA:0,_ZNSt5arrayImLm1EE5beginEv
FN:131,_ZNKSt5arrayImLm2EE5beginEv
FNDA:0,_ZNKSt5arrayImLm2EE5beginEv
FN:131,_ZNKSt5arrayImLm1EE5beginEv
FNDA:0,_ZNKSt5arrayImLm1EE5beginEv
FN:135,_ZNSt5arrayImLm2EE3endEv
FNDA:0,_ZNSt5arrayImLm2EE3endEv
FN:139,_ZNKSt5arrayImLm2EE3endEv
FNDA:0,_ZNKSt5arrayImLm2EE3endEv
FN:139,_ZNKSt5arrayImLm1EE3endEv
FNDA:0,_ZNKSt5arrayImLm1EE3endEv
FN:159,_ZNKSt5arrayImLm0EE6cbeginEv
FNDA:0,_ZNKSt5arrayImLm0EE6cbeginEv
FN:159,_ZNKSt5arrayImLm1EE6cbeginEv
FNDA:0,_ZNKSt5arrayImLm1EE6cbeginEv
FN:159,_ZNKSt5arrayImLm2EE6cbeginEv
FNDA:0,_ZNKSt5arrayImLm2EE6cbeginEv
FN:163,_ZNKSt5arrayImLm0EE4cendEv
FNDA:0,_ZNKSt5arrayImLm0EE4cendEv
FN:163,_ZNKSt5arrayImLm1EE4cendEv
FNDA:0,_ZNKSt5arrayImLm1EE4cendEv
FN:163,_ZNKSt5arrayImLm2EE4cendEv
FNDA:0,_ZNKSt5arrayImLm2EE4cendEv
FN:176,_ZNKSt5arrayImLm2EE4sizeEv
FNDA:0,_ZNKSt5arrayImLm2EE4sizeEv
FN:176,_ZNKSt5arrayImLm1EE4sizeEv
FNDA:0,_ZNKSt5arrayImLm1EE4sizeEv
FN:176,_ZNKSt5arrayImLm0EE4sizeEv
FNDA:0,_ZNKSt5arrayImLm0EE4sizeEv
FN:186,_ZNSt5arrayImLm1EEixEm
FNDA:0,_ZNSt5arrayImLm1EEixEm
FN:186,_ZNSt5arrayImLm2EEixEm
FNDA:0,_ZNSt5arrayImLm2EEixEm
FN:193,_ZNKSt5arrayImLm0EEixEm
FNDA:0,_ZNKSt5arrayImLm0EEixEm
FN:193,_ZNKSt5arrayImLm2EEixEm
FNDA:0,_ZNKSt5arrayImLm2EEixEm
FN:257,_ZNSt5arrayImLm1EE4dataEv
FNDA:0,_ZNSt5arrayImLm1EE4dataEv
FN:257,_ZNSt5arrayImLm2EE4dataEv
FNDA:0,_ZNSt5arrayImLm2EE4dataEv
FN:261,_ZNKSt5arrayImLm1EE4dataEv
FNDA:0,_ZNKSt5arrayImLm1EE4dataEv
FN:261,_ZNKSt5arrayImLm0EE4dataEv
FNDA:0,_ZNKSt5arrayImLm0EE4dataEv
FN:261,_ZNKSt5arrayImLm2EE4dataEv
FNDA:0,_ZNKSt5arrayImLm2EE4dataEv
DA:56,0
DA:57,0
DA:56,0
DA:57,0
DA:60,0
DA:61,0
DA:60,0
DA:61,0
DA:72,0
DA:73,0
DA:76,0
DA:77,0
DA:117,0
DA:118,0
DA:127,0
DA:128,0
DA:127,0
DA:128,0
DA:131,0
DA:132,0
DA:131,0
DA:132,0
DA:135,0
DA:136,0
DA:139,0
DA:140,0
DA:139,0
DA:140,0
DA:159,0
DA:160,0
DA:159,0
DA:160,0
DA:159,0
DA:160,0
DA:163,0
DA:164,0
DA:163,0
DA:164,0
DA:163,0
DA:164,0
DA:176,0
DA:176,0
DA:176,0
DA:186,0
DA:189,0
DA:186,0
DA:189,0
DA:193,0
DA:198,0
DA:193,0
DA:198,0
DA:257,0
DA:258,0
DA:257,0
DA:258,0
DA:261,0
DA:262,0
DA:261,0
DA:262,0
DA:261,0
DA:262,0
end_of_record
SF:/usr/include/c++/11/bits/stl_pair.h
FN:336,_ZNSt4pairI9CutStatusdEC2IRdLb1EEERKS0_OT_
FNDA:0,_ZNSt4pairI9CutStatusdEC2IRdLb1EEERKS0_OT_
DA:336,0
DA:337,0
end_of_record
SF:/usr/include/c++/11/bits/stl_numeric.h
FN:161,_ZSt10accumulateIN9__gnu_cxx17__normal_iteratorIPKmSt6vectorImSaImEEEEmSt10multipliesImEET0_T_SB_SA_T1_
FNDA:0,_ZSt10accumulateIN9__gnu_cxx17__normal_iteratorIPKmSt6vectorImSaImEEEEmSt10multipliesImEET0_T_SB_SA_T1_
FN:161,_ZSt10accumulateIPKmmSt10multipliesImEET0_T_S5_S4_T1_
FNDA:0,_ZSt10accumulateIPKmmSt10multipliesImEET0_T_S5_S4_T1_
FN:190,_ZSt13inner_productIPKmPKlmET1_T_S5_T0_S4_
FNDA:0,_ZSt13inner_productIPKmPKlmET1_T_S5_T0_S4_
DA:161,0
DA:168,0
DA:169,0
DA:170,0
DA:161,0
DA:168,0
DA:169,0
DA:170,0
DA:190,0
DA:198,0
DA:199,0
DA:200,0
end_of_record
SF:/usr/include/c++/11/bits/stl_iterator.h
FN:1007,_ZN9__gnu_cxx17__normal_iteratorIPKmSt6vectorImSaImEEEC2ERKS2_
FNDA:0,_ZN9__gnu_cxx17__normal_iteratorIPKmSt6vectorImSaImEEEC2ERKS2_
FN:1022,_ZNK9__gnu_cxx17__normal_iteratorIPKmSt6vectorImSaImEEEdeEv
FNDA:0,_ZNK9__gnu_cxx17__normal_iteratorIPKmSt6vectorImSaImEEEdeEv
FN:1032,_ZN9__gnu_cxx17__normal_iteratorIPKmSt6vectorImSaImEEEppEv
FNDA:0,_ZN9__gnu_cxx17__normal_iteratorIPKmSt6vectorImSaImEEEppEv
FN:1075,_ZN9__gnu_cxx17__normal_iteratorIPKmSt6vectorImSaImEEEmIEl
FNDA:0,_ZN9__gnu_cxx17__normal_iteratorIPKmSt6vectorImSaImEEEmIEl
FN:1085,_ZNK9__gnu_cxx17__normal_iteratorIPKmSt6vectorImSaImEEE4baseEv
FNDA:0,_ZNK9__gnu_cxx17__normal_iteratorIPKmSt6vectorImSaImEEE4baseEv
FN:1102,_ZN9__gnu_cxxeqIPKmS2_St6vectorImSaImEEEEbRKNS_17__normal_iteratorIT_T1_EERKNS6_IT0_S8_EE
FNDA:0,_ZN9__gnu_cxxeqIPKmS2_St6vectorImSaImEEEEbRKNS_17__normal_iteratorIT_T1_EERKNS6_IT0_S8_EE
FN:1231,_ZN9__gnu_cxxmiIPKmSt6vectorImSaImEEEENS_17__normal_iteratorIT_T0_E15difference_typeERKS9_SC_
FNDA:0,_ZN9__gnu_cxxmiIPKmSt6vectorImSaImEEEENS_17__normal_iteratorIT_T0_E15difference_typeERKS9_SC_
FN:1254,_ZSt12__niter_baseIPKmSt6vectorImSaImEEET_N9__gnu_cxx17__normal_iteratorIS5_T0_EE
FNDA:0,_ZSt12__niter_baseIPKmSt6vectorImSaImEEET_N9__gnu_cxx17__normal_iteratorIS5_T0_EE
DA:1007,0
DA:1008,0
DA:1022,0
DA:1023,0
DA:1032,0
DA:1034,0
DA:1035,0
DA:1075,0
DA:1076,0
DA:1085,0
DA:1086,0
DA:1102,0
DA:1105,0
DA:1231,0
DA:1234,0
DA:1254,0
DA:1256,0
end_of_record
SF:/usr/include/x86_64-linux-gnu/c++/11/bits/gthr-default.h
FN:248,_ZL18__gthread_active_pv
FNDA:0,_ZL18__gthread_active_pv
DA:248,0
DA:252,0
end_of_record
SF:/usr/include/c++/11/utility
FN:193,_ZNSt10__pair_getILm0EE16__const_move_getIdSt8optionalIdEEEOKT_OKSt4pairIS4_T0_E
FNDA:0,_ZNSt10__pair_getILm0EE16__const_move_getIdSt8optionalIdEEEOKT_OKSt4pairIS4_T0_E
FN:217,_ZNSt10__pair_getILm1EE16__const_move_getIdSt8optionalIdEEEOKT0_OKSt4pairIT_S4_E
FNDA:0,_ZNSt10__pair_getILm1EE16__const_move_getIdSt8optionalIdEEEOKT0_OKSt4pairIT_S4_E
FN:238,_ZSt3getILm1EdSt8optionalIdEEOKNSt13tuple_elementIXT_ESt4pairIT0_T1_EE4typeEOKS6_
FNDA:0,_ZSt3getILm1EdSt8optionalIdEEOKNSt13tuple_elementIXT_ESt4pairIT0_T1_EE4typeEOKS6_
FN:238,_ZSt3getILm0EdSt8optionalIdEEOKNSt13tuple_elementIXT_ESt4pairIT0_T1_EE4typeEOKS6_
FNDA:0,_ZSt3getILm0EdSt8optionalIdEEOKNSt13tuple_elementIXT_ESt4pairIT0_T1_EE4typeEOKS6_
DA:193,0
DA:194,0
DA:217,0
DA:218,0
DA:238,0
DA:239,0
DA:238,0
DA:239,0
end_of_record
SF:/usr/include/c++/11/bits/stl_uninitialized.h
FN:108,_ZNSt20__uninitialized_copyILb1EE13__uninit_copyIN9__gnu_cxx17__normal_iteratorIPKmSt6vectorImSaImEEEEPmEET0_T_SC_SB_
FNDA:0,_ZNSt20__uninitialized_copyILb1EE13__uninit_copyIN9__gnu_cxx17__normal_iteratorIPKmSt6vectorImSaImEEEEPmEET0_T_SC_SB_
FN:108,_ZNSt20__uninitialized_copyILb1EE13__uninit_copyIPlS2_EET0_T_S4_S3_
FNDA:0,_ZNSt20__uninitialized_copyILb1EE13__uninit_copyIPlS2_EET0_T_S4_S3_
FN:108,_ZNSt20__uninitialized_copyILb1EE13__uninit_copyIPmS2_EET0_T_S4_S3_
FNDA:0,_ZNSt20__uninitialized_copyILb1EE13__uninit_copyIPmS2_EET0_T_S4_S3_
FN:108,_ZNSt20__uninitialized_copyILb1EE13__uninit_copyIPKmPmEET0_T_S6_S5_
FNDA:0,_ZNSt20__uninitialized_copyILb1EE13__uninit_copyIPKmPmEET0_T_S6_S5_
FN:126,_ZSt18uninitialized_copyIN9__gnu_cxx17__normal_iteratorIPKmSt6vectorImSaImEEEEPmET0_T_SA_S9_
FNDA:0,_ZSt18uninitialized_copyIN9__gnu_cxx17__normal_iteratorIPKmSt6vectorImSaImEEEEPmET0_T_SA_S9_
FN:126,_ZSt18uninitialized_copyIPlS0_ET0_T_S2_S1_
FNDA:0,_ZSt18uninitialized_copyIPlS0_ET0_T_S2_S1_
FN:126,_ZSt18uninitialized_copyIPmS0_ET0_T_S2_S1_
FNDA:0,_ZSt18uninitialized_copyIPmS0_ET0_T_S2_S1_
FN:126,_ZSt18uninitialized_copyIPKmPmET0_T_S4_S3_
FNDA:0,_ZSt18uninitialized_copyIPKmPmET0_T_S4_S3_
FN:331,_ZSt22__uninitialized_copy_aIN9__gnu_cxx17__normal_iteratorIPKmSt6vectorImSaImEEEEPmmET0_T_SA_S9_RSaIT1_E
FNDA:0,_ZSt22__uninitialized_copy_aIN9__gnu_cxx17__normal_iteratorIPKmSt6vectorImSaImEEEEPmmET0_T_SA_S9_RSaIT1_E
FN:331,_ZSt22__uninitialized_copy_aIPKmPmmET0_T_S4_S3_RSaIT1_E
FNDA:0,_ZSt22__uninitialized_copy_aIPKmPmmET0_T_S4_S3_RSaIT1_E
DA:108,0
DA:110,0
DA:108,0
DA:110,0
DA:108,0
DA:110,0
DA:108,0
DA:110,0
DA:126,0
DA:145,0
DA:151,0
DA:126,0
DA:145,0
DA:151,0
DA:126,0
DA:145,0
DA:151,0
DA:126,0
DA:145,0
DA:151,0
DA:331,0
DA:333,0
DA:331,0
DA:333,0
end_of_record
SF:/usr/include/c++/11/optional
FN:271,_ZNKSt22_Optional_payload_baseIdE6_M_getEv
FNDA:0,_ZNKSt22_Optional_payload_baseIdE6_M_getEv
FN:433,_ZNKSt19_Optional_base_implIdSt14_Optional_baseIdLb1ELb1EEE13_M_is_engagedEv
FNDA:0,_ZNKSt19_Optional_base_implIdSt14_Optional_baseIdLb1ELb1EEE13_M_is_engagedEv
FN:445,_ZNKSt19_Optional_base_implIdSt14_Optional_baseIdLb1ELb1EEE6_M_getEv
FNDA:0,_ZNKSt19_Optional_base_implIdSt14_Optional_baseIdLb1ELb1EEE6_M_getEv
FN:922,_ZNKRSt8optionalIdEdeEv
FNDA:0,_ZNKRSt8optionalIdEdeEv
FN:937,_ZNKSt8optionalIdEcvbEv
FNDA:0,_ZNKSt8optionalIdEcvbEv
DA:271,0
DA:272,0
DA:433,0
DA:434,0
DA:445,0
DA:448,0
DA:922,0
DA:923,0
DA:937,0
DA:938,0
end_of_record
SF:/usr/include/c++/11/bits/alloc_traits.h
FN:459,_ZNSt16allocator_traitsISaImEE8allocateERS0_m
FNDA:0,_ZNSt16allocator_traitsISaImEE8allocateERS0_m
FN:459,_ZNSt16allocator_traitsISaIcEE8allocateERS0_m
FNDA:0,_ZNSt16allocator_traitsISaIcEE8allocateERS0_m
FN:491,_ZNSt16allocator_traitsISaIcEE10deallocateERS0_Pcm
FNDA:0,_ZNSt16allocator_traitsISaIcEE10deallocateERS0_Pcm
FN:491,_ZNSt16allocator_traitsISaIdEE10deallocateERS0_Pdm
FNDA:0,_ZNSt16allocator_traitsISaIdEE10deallocateERS0_Pdm
FN:491,_ZNSt16allocator_traitsISaIlEE10deallocateERS0_Plm
FNDA:0,_ZNSt16allocator_traitsISaIlEE10deallocateERS0_Plm
FN:491,_ZNSt16allocator_traitsISaImEE10deallocateERS0_Pmm
FNDA:0,_ZNSt16allocator_traitsISaImEE10deallocateERS0_Pmm
FN:543,_ZNSt16allocator_traitsISaIcEE8max_sizeERKS0_
FNDA:0,_ZNSt16allocator_traitsISaIcEE8max_sizeERKS0_
FN:543,_ZNSt16allocator_traitsISaImEE8max_sizeERKS0_
FNDA:0,_ZNSt16allocator_traitsISaImEE8max_sizeERKS0_
FN:558,_ZNSt16allocator_traitsISaImEE37select_on_container_copy_constructionERKS0_
FNDA:0,_ZNSt16allocator_traitsISaImEE37select_on_container_copy_constructionERKS0_
FN:743,_ZSt8_DestroyIPmmEvT_S1_RSaIT0_E
FNDA:0,_ZSt8_DestroyIPmmEvT_S1_RSaIT0_E
DA:459,0
DA:460,0
DA:459,0
DA:460,0
DA:491,0
DA:492,0
DA:491,0
DA:492,0
DA:491,0
DA:492,0
DA:491,0
DA:492,0
DA:543,0
DA:548,0
DA:543,0
DA:548,0
DA:558,0
DA:559,0
DA:743,0
DA:746,0
DA:747,0
end_of_record
SF:/workspace/.xmake/packages/x/xtensor/0.24.3/7589bb6431db4fba90e4d138dda37226/include/xtensor/xiterator.hpp
FN:438,_ZN2xt12linear_beginINS_16xarray_containerINS_7uvectorIdSaIdEEELNS_11layout_typeE1ENS_7svectorImLm4ESaImELb1EEENS_22xtensor_expression_tagEEEEEDaRT_
FNDA:0,_ZN2xt12linear_beginINS_16xarray_containerINS_7uvectorIdSaIdEEELNS_11layout_typeE1ENS_7svectorImLm4ESaImELb1EEENS_22xtensor_expression_tagEEEEEDaRT_
FN:440,_ZZN2xt12linear_beginINS_16xarray_containerINS_7uvectorIdSaIdEEELNS_11layout_typeE1ENS_7svectorImLm4ESaImELb1EEENS_22xtensor_expression_tagEEEEEDaRT_ENKUlSB_E_clIN3xtl8identityEEEDaSB_
FNDA:0,_ZZN2xt12linear_beginINS_16xarray_containerINS_7uvectorIdSaIdEEELNS_11layout_typeE1ENS_7svectorImLm4ESaImELb1EEENS_22xtensor_expression_tagEEEEEDaRT_ENKUlSB_E_clIN3xtl8identityEEEDaSB_
FN:462,_ZN2xt12linear_beginINS_10xgeneratorINS_6detail7fn_implINS2_6eye_fnIbEEEEbSt6vectorImSaImEEEEEEDaRKT_
FNDA:0,_ZN2xt12linear_beginINS_10xgeneratorINS_6detail7fn_implINS2_6eye_fnIbEEEEbSt6vectorImSaImEEEEEEDaRKT_
FN:462,_ZN2xt12linear_beginINS_16xarray_containerINS_7uvectorIdSaIdEEELNS_11layout_typeE1ENS_7svectorImLm4ESaImELb1EEENS_22xtensor_expression_tagEEEEEDaRKT_
FNDA:0,_ZN2xt12linear_beginINS_16xarray_containerINS_7uvectorIdSaIdEEELNS_11layout_typeE1ENS_7svectorImLm4ESaImELb1EEENS_22xtensor_expression_tagEEEEEDaRKT_
FN:462,_ZN2xt12linear_beginINS_10xgeneratorINS_6detail7fn_implINS2_7diag_fnIRNS_16xarray_containerINS_7uvectorIdSaIdEEELNS_11layout_typeE1ENS_7svectorImLm4ESaImELb1EEENS_22xtensor_expression_tagEEEEEEEdSt5arrayImLm2EEEEEEDaRKT_
FNDA:0,_ZN2xt12linear_beginINS_10xgeneratorINS_6detail7fn_implINS2_7diag_fnIRNS_16xarray_containerINS_7uvectorIdSaIdEEELNS_11layout_typeE1ENS_7svectorImLm4ESaImELb1EEENS_22xtensor_expression_tagEEEEEEEdSt5arrayImLm2EEEEEEDaRKT_
FN:462,_ZN2xt12linear_beginINS_9xfunctionINS_6detail10multipliesEJNS_7xscalarIdEERKNS_16xarray_containerINS_7uvectorIdSaIdEEELNS_11layout_typeE1ENS_7svectorImLm4ESaImELb1EEENS_22xtensor_expression_tagEEEEEEEEDaRKT_
FNDA:0,_ZN2xt12linear_beginINS_9xfunctionINS_6detail10multipliesEJNS_7xscalarIdEERKNS_16xarray_containerINS_7uvectorIdSaIdEEELNS_11layout_typeE1ENS_7svectorImLm4ESaImELb1EEENS_22xtensor_expression_tagEEEEEEEEDaRKT_
FN:462,_ZN2xt12linear_beginINS_9xfunctionINS_6detail5minusEJRKNS_16xarray_containerINS_7uvectorIdSaIdEEELNS_11layout_typeE1ENS_7svectorImLm4ESaImELb1EEENS_22xtensor_expression_tagEEERKNS1_INS2_10multipliesEJNS_7xscalarIdEESF_EEEEEEEEDaRKT_
FNDA:0,_ZN2xt12linear_beginINS_9xfunctionINS_6detail5minusEJRKNS_16xarray_containerINS_7uvectorIdSaIdEEELNS_11layout_typeE1ENS_7svectorImLm4ESaImELb1EEENS_22xtensor_expression_tagEEERKNS1_INS2_10multipliesEJNS_7xscalarIdEESF_EEEEEEEEDaRKT_
FN:464,_ZZN2xt12linear_beginINS_9xfunctionINS_6detail5minusEJRKNS_16xarray_containerINS_7uvectorIdSaIdEEELNS_11layout_typeE1ENS_7svectorImLm4ESaImELb1EEENS_22xtensor_expression_tagEEERKNS1_INS2_10multipliesEJNS_7xscalarIdEESF_EEEEEEEEDaRKT_ENKUlSN_E_clIN3xtl8identityEEEDaSN_
FNDA:0,_ZZN2xt12linear_beginINS_9xfunctionINS_6detail5minusEJRKNS_16xarray_containerINS_7uvectorIdSaIdEEELNS_11layout_typeE1ENS_7svectorImLm4ESaImELb1EEENS_22xtensor_expression_tagEEERKNS1_INS2_10multipliesEJNS_7xscalarIdEESF_EEEEEEEEDaRKT_ENKUlSN_E_clIN3xtl8identityEEEDaSN_
FN:464,_ZZN2xt12linear_beginINS_16xarray_containerINS_7uvectorIdSaIdEEELNS_11layout_typeE1ENS_7svectorImLm4ESaImELb1EEENS_22xtensor_expression_tagEEEEEDaRKT_ENKUlSB_E_clIN3xtl8identityEEEDaSB_
FNDA:0,_ZZN2xt12linear_beginINS_16xarray_containerINS_7uvectorIdSaIdEEELNS_11layout_typeE1ENS_7svectorImLm4ESaImELb1EEENS_22xtensor_expression_tagEEEEEDaRKT_ENKUlSB_E_clIN3xtl8identityEEEDaSB_
FN:464,_ZZN2xt12linear_beginINS_9xfunctionINS_6detail10multipliesEJNS_7xscalarIdEERKNS_16xarray_containerINS_7uvectorIdSaIdEEELNS_11layout_typeE1ENS_7svectorImLm4ESaImELb1EEENS_22xtensor_expression_tagEEEEEEEEDaRKT_ENKUlSJ_E_clIN3xtl8identityEEEDaSJ_
FNDA:0,_ZZN2xt12linear_beginINS_9xfunctionINS_6detail10multipliesEJNS_7xscalarIdEERKNS_16xarray_containerINS_7uvectorIdSaIdEEELNS_11layout_typeE1ENS_7svectorImLm4ESaImELb1EEENS_22xtensor_expression_tagEEEEEEEEDaRKT_ENKUlSJ_E_clIN3xtl8identityEEEDaSJ_
FN:467,_ZZN2xt12linear_beginINS_10xgeneratorINS_6detail7fn_implINS2_7diag_fnIRNS_16xarray_containerINS_7uvectorIdSaIdEEELNS_11layout_typeE1ENS_7svectorImLm4ESaImELb1EEENS_22xtensor_expression_tagEEEEEEEdSt5arrayImLm2EEEEEEDaRKT_ENKUlSL_E0_clIN3xtl8identityEEEDaSL_
FNDA:0,_ZZN2xt12linear_beginINS_10xgeneratorINS_6detail7fn_implINS2_7diag_fnIRNS_16xarray_containerINS_7uvectorIdSaIdEEELNS_11layout_typeE1ENS_7svectorImLm4ESaImELb1EEENS_22xtensor_expression_tagEEEEEEEdSt5arrayImLm2EEEEEEDaRKT_ENKUlSL_E0_clIN3xtl8identityEEEDaSL_
FN:467,_ZZN2xt12linear_beginINS_10xgeneratorINS_6detail7fn_implINS2_6eye_fnIbEEEEbSt6vectorImSaImEEEEEEDaRKT_ENKUlSB_E0_clIN3xtl8identityEEEDaSB_
FNDA:0,_ZZN2xt12linear_beginINS_10xgeneratorINS_6detail7fn_implINS2_6eye_fnIbEEEEbSt6vectorImSaImEEEEEEDaRKT_ENKUlSB_E0_clIN3xtl8identityEEEDaSB_
FN:490,_ZN2xt8xstepperIKNS_16xarray_containerINS_7uvectorIdSaIdEEELNS_11layout_typeE1ENS_7svectorImLm4ESaImELb1EEENS_22xtensor_expression_tagEEEEC2EPSB_PKdm
FNDA:0,_ZN2xt8xstepperIKNS_16xarray_containerINS_7uvectorIdSaIdEEELNS_11layout_typeE1ENS_7svectorImLm4ESaImELb1EEENS_22xtensor_expression_tagEEEEC2EPSB_PKdm
FN:490,_ZN2xt8xstepperINS_16xarray_containerINS_7uvectorIdSaIdEEELNS_11layout_typeE1ENS_7svectorImLm4ESaImELb1EEENS_22xtensor_expression_tagEEEEC2EPSA_Pdm
FNDA:0,_ZN2xt8xstepperINS_16xarray_containerINS_7uvectorIdSaIdEEELNS_11layout_typeE1ENS_7svectorImLm4ESaImELb1EEENS_22xtensor_expression_tagEEEEC2EPSA_Pdm
FN:496,_ZNK2xt8xstepperINS_16xarray_containerINS_7uvectorIdSaIdEEELNS_11layout_typeE1ENS_7svectorImLm4ESaImELb1EEENS_22xtensor_expression_tagEEEEdeEv
FNDA:0,_ZNK2xt8xstepperINS_16xarray_containerINS_7uvectorIdSaIdEEELNS_11layout_typeE1ENS_7svectorImLm4ESaImELb1EEENS_22xtensor_expression_tagEEEEdeEv
FN:496,_ZNK2xt8xstepperIKNS_16xarray_containerINS_7uvectorIdSaIdEEELNS_11layout_typeE1ENS_7svectorImLm4ESaImELb1EEENS_22xtensor_expression_tagEEEEdeEv
FNDA:0,_ZNK2xt8xstepperIKNS_16xarray_containerINS_7uvectorIdSaIdEEELNS_11layout_typeE1ENS_7svectorImLm4ESaImELb1EEENS_22xtensor_expression_tagEEEEdeEv
FN:502,_ZN2xt8xstepperIKNS_16xarray_containerINS_7uvectorIdSaIdEEELNS_11layout_typeE1ENS_7svectorImLm4ESaImELb1EEENS_22xtensor_expression_tagEEEE4stepEmm
FNDA:0,_ZN2xt8xstepperIKNS_16xarray_containerINS_7uvectorIdSaIdEEELNS_11layout_typeE1ENS_7svectorImLm4ESaImELb1EEENS_22xtensor_expression_tagEEEE4stepEmm
FN:502,_ZN2xt8xstepperINS_16xarray_containerINS_7uvectorIdSaIdEEELNS_11layout_typeE1ENS_7svectorImLm4ESaImELb1EEENS_22xtensor_expression_tagEEEE4stepEmm
FNDA:0,_ZN2xt8xstepperINS_16xarray_containerINS_7uvectorIdSaIdEEELNS_11layout_typeE1ENS_7svectorImLm4ESaImELb1EEENS_22xtensor_expression_tagEEEE4stepEmm
FN:522,_ZN2xt8xstepperIKNS_16xarray_containerINS_7uvectorIdSaIdEEELNS_11layout_typeE1ENS_7svectorImLm4ESaImELb1EEENS_22xtensor_expression_tagEEEE5resetEm
FNDA:0,_ZN2xt8xstepperIKNS_16xarray_containerINS_7uvectorIdSaIdEEELNS_11layout_typeE1ENS_7svectorImLm4ESaImELb1EEENS_22xtensor_expression_tagEEEE5resetEm
FN:522,_ZN2xt8xstepperINS_16xarray_containerINS_7uvectorIdSaIdEEELNS_11layout_typeE1ENS_7svectorImLm4ESaImELb1EEENS_22xtensor_expression_tagEEEE5resetEm
FNDA:0,_ZN2xt8xstepperINS_16xarray_containerINS_7uvectorIdSaIdEEELNS_11layout_typeE1ENS_7svectorImLm4ESaImELb1EEENS_22xtensor_expression_tagEEEE5resetEm
FN:546,_ZN2xt8xstepperIKNS_16xarray_containerINS_7uvectorIdSaIdEEELNS_11layout_typeE1ENS_7svectorImLm4ESaImELb1EEENS_22xtensor_expression_tagEEEE6to_endES5_
FNDA:0,_ZN2xt8xstepperIKNS_16xarray_containerINS_7uvectorIdSaIdEEELNS_11layout_typeE1ENS_7svectorImLm4ESaImELb1EEENS_22xtensor_expression_tagEEEE6to_endES5_
FN:546,_ZN2xt8xstepperINS_16xarray_containerINS_7uvectorIdSaIdEEELNS_11layout_typeE1ENS_7svectorImLm4ESaImELb1EEENS_22xtensor_expression_tagEEEE6to_endES5_
FNDA:0,_ZN2xt8xstepperINS_16xarray_containerINS_7uvectorIdSaIdEEELNS_11layout_typeE1ENS_7svectorImLm4ESaImELb1EEENS_22xtensor_expression_tagEEEE6to_endES5_
FN:602,_ZN2xt13stepper_toolsILNS_11layout_typeE1EE17increment_stepperINS_16stepper_assignerINS_16xarray_containerINS_7uvectorIdSaIdEEELS1_1ENS_7svectorImLm4ESaImELb1EEENS_22xtensor_expression_tagEEENS_10xgeneratorINS_6detail7fn_implINSF_7diag_fnIRSD_EEEEdSt5arrayImLm2EEEELS1_1EEESB_SB_EEvRT_RT0_RKT1_
FNDA:0,_ZN2xt13stepper_toolsILNS_11layout_typeE1EE17increment_stepperINS_16stepper_assignerINS_16xarray_containerINS_7uvectorIdSaIdEEELS1_1ENS_7svectorImLm4ESaImELb1EEENS_22xtensor_expression_tagEEENS_10xgeneratorINS_6detail7fn_implINSF_7diag_fnIRSD_EEEEdSt5arrayImLm2EEEELS1_1EEESB_SB_EEvRT_RT0_RKT1_
FN:602,_ZN2xt13stepper_toolsILNS_11layout_typeE1EE17increment_stepperINS_16stepper_assignerINS_16xarray_containerINS_7uvectorIdSaIdEEELS1_1ENS_7svectorImLm4ESaImELb1EEENS_22xtensor_expression_tagEEENS_9xfunctionINS_6detail5minusEJRKSD_RKNSE_INSF_10multipliesEJNS_7xscalarIdEESI_EEEEEELS1_1EEESB_SB_EEvRT_RT0_RKT1_
FNDA:0,_ZN2xt13stepper_toolsILNS_11layout_typeE1EE17increment_stepperINS_16stepper_assignerINS_16xarray_containerINS_7uvectorIdSaIdEEELS1_1ENS_7svectorImLm4ESaImELb1EEENS_22xtensor_expression_tagEEENS_9xfunctionINS_6detail5minusEJRKSD_RKNSE_INSF_10multipliesEJNS_7xscalarIdEESI_EEEEEELS1_1EEESB_SB_EEvRT_RT0_RKT1_
FN:602,_ZN2xt13stepper_toolsILNS_11layout_typeE1EE17increment_stepperINS_16stepper_assignerINS_16xarray_containerINS_7uvectorIdSaIdEEELS1_1ENS_7svectorImLm4ESaImELb1EEENS_22xtensor_expression_tagEEENS_10xgeneratorINS_6detail7fn_implINSF_6eye_fnIbEEEEbSt6vectorImSA_EEELS1_1EEESB_SB_EEvRT_RT0_RKT1_
FNDA:0,_ZN2xt13stepper_toolsILNS_11layout_typeE1EE17increment_stepperINS_16stepper_assignerINS_16xarray_containerINS_7uvectorIdSaIdEEELS1_1ENS_7svectorImLm4ESaImELb1EEENS_22xtensor_expression_tagEEENS_10xgeneratorINS_6detail7fn_implINSF_6eye_fnIbEEEEbSt6vectorImSA_EEELS1_1EEESB_SB_EEvRT_RT0_RKT1_
FN:602,_ZN2xt13stepper_toolsILNS_11layout_typeE1EE17increment_stepperINS_16xindexed_stepperINS_10xgeneratorINS_6detail7fn_implINS6_6eye_fnIbEEEEbSt6vectorImSaImEEEELb1EEENS_7svectorImLm4ESC_Lb1EEESD_EEvRT_RT0_RKT1_
FNDA:0,_ZN2xt13stepper_toolsILNS_11layout_typeE1EE17increment_stepperINS_16xindexed_stepperINS_10xgeneratorINS_6detail7fn_implINS6_6eye_fnIbEEEEbSt6vectorImSaImEEEELb1EEENS_7svectorImLm4ESC_Lb1EEESD_EEvRT_RT0_RKT1_
FN:602,_ZN2xt13stepper_toolsILNS_11layout_typeE1EE17increment_stepperINS_16xindexed_stepperINS_10xgeneratorINS_6detail7fn_implINS6_7diag_fnIRNS_16xarray_containerINS_7uvectorIdSaIdEEELS1_1ENS_7svectorImLm4ESaImELb1EEENS_22xtensor_expression_tagEEEEEEEdSt5arrayImLm2EEEELb1EEESM_SM_EEvRT_RT0_RKT1_
FNDA:0,_ZN2xt13stepper_toolsILNS_11layout_typeE1EE17increment_stepperINS_16xindexed_stepperINS_10xgeneratorINS_6detail7fn_implINS6_7diag_fnIRNS_16xarray_containerINS_7uvectorIdSaIdEEELS1_1ENS_7svectorImLm4ESaImELb1EEENS_22xtensor_expression_tagEEEEEEEdSt5arrayImLm2EEEELb1EEESM_SM_EEvRT_RT0_RKT1_
FN:923,_ZN2xt16xindexed_stepperINS_10xgeneratorINS_6detail7fn_implINS2_6eye_fnIbEEEEbSt6vectorImSaImEEEELb1EEC2EPKSA_mb
FNDA:0,_ZN2xt16xindexed_stepperINS_10xgeneratorINS_6detail7fn_implINS2_6eye_fnIbEEEEbSt6vectorImSaImEEEELb1EEC2EPKSA_mb
FN:923,_ZN2xt16xindexed_stepperINS_10xgeneratorINS_6detail7fn_implINS2_7diag_fnIRNS_16xarray_containerINS_7uvectorIdSaIdEEELNS_11layout_typeE1ENS_7svectorImLm4ESaImELb1EEENS_22xtensor_expression_tagEEEEEEEdSt5arrayImLm2EEEELb1EEC2EPKSK_mb
FNDA:0,_ZN2xt16xindexed_stepperINS_10xgeneratorINS_6detail7fn_implINS2_7diag_fnIRNS_16xarray_containerINS_7uvectorIdSaIdEEELNS_11layout_typeE1ENS_7svectorImLm4ESaImELb1EEENS_22xtensor_expression_tagEEEEEEEdSt5arrayImLm2EEEELb1EEC2EPKSK_mb
FN:934,_ZNK2xt16xindexed_stepperINS_10xgeneratorINS_6detail7fn_implINS2_7diag_fnIRNS_16xarray_containerINS_7uvectorIdSaIdEEELNS_11layout_typeE1ENS_7svectorImLm4ESaImELb1EEENS_22xtensor_expression_tagEEEEEEEdSt5arrayImLm2EEEELb1EEdeEv
FNDA:0,_ZNK2xt16xindexed_stepperINS_10xgeneratorINS_6detail7fn_implINS2_7diag_fnIRNS_16xarray_containerINS_7uvectorIdSaIdEEELNS_11layout_typeE1ENS_7svectorImLm4ESaImELb1EEENS_22xtensor_expression_tagEEEEEEEdSt5arrayImLm2EEEELb1EEdeEv
FN:934,_ZNK2xt16xindexed_stepperINS_10xgeneratorINS_6detail7fn_implINS2_6eye_fnIbEEEEbSt6vectorImSaImEEEELb1EEdeEv
FNDA:0,_ZNK2xt16xindexed_stepperINS_10xgeneratorINS_6detail7fn_implINS2_6eye_fnIbEEEEbSt6vectorImSaImEEEELb1EEdeEv
FN:940,_ZN2xt16xindexed_stepperINS_10xgeneratorINS_6detail7fn_implINS2_7diag_fnIRNS_16xarray_containerINS_7uvectorIdSaIdEEELNS_11layout_typeE1ENS_7svectorImLm4ESaImELb1EEENS_22xtensor_expression_tagEEEEEEEdSt5arrayImLm2EEEELb1EE4stepEmm
FNDA:0,_ZN2xt16xindexed_stepperINS_10xgeneratorINS_6detail7fn_implINS2_7diag_fnIRNS_16xarray_containerINS_7uvectorIdSaIdEEELNS_11layout_typeE1ENS_7svectorImLm4ESaImELb1EEENS_22xtensor_expression_tagEEEEEEEdSt5arrayImLm2EEEELb1EE4stepEmm
FN:940,_ZN2xt16xindexed_stepperINS_10xgeneratorINS_6detail7fn_implINS2_6eye_fnIbEEEEbSt6vectorImSaImEEEELb1EE4stepEmm
FNDA:0,_ZN2xt16xindexed_stepperINS_10xgeneratorINS_6detail7fn_implINS2_6eye_fnIbEEEEbSt6vectorImSaImEEEELb1EE4stepEmm
FN:958,_ZN2xt16xindexed_stepperINS_10xgeneratorINS_6detail7fn_implINS2_7diag_fnIRNS_16xarray_containerINS_7uvectorIdSaIdEEELNS_11layout_typeE1ENS_7svectorImLm4ESaImELb1EEENS_22xtensor_expression_tagEEEEEEEdSt5arrayImLm2EEEELb1EE5resetEm
FNDA:0,_ZN2xt16xindexed_stepperINS_10xgeneratorINS_6detail7fn_implINS2_7diag_fnIRNS_16xarray_containerINS_7uvectorIdSaIdEEELNS_11layout_typeE1ENS_7svectorImLm4ESaImELb1EEENS_22xtensor_expression_tagEEEEEEEdSt5arrayImLm2EEEELb1EE5resetEm
FN:958,_ZN2xt16xindexed_stepperINS_10xgeneratorINS_6detail7fn_implINS2_6eye_fnIbEEEEbSt6vectorImSaImEEEELb1EE5resetEm
FNDA:0,_ZN2xt16xindexed_stepperINS_10xgeneratorINS_6detail7fn_implINS2_6eye_fnIbEEEEbSt6vectorImSaImEEEELb1EE5resetEm
FN:982,_ZN2xt16xindexed_stepperINS_10xgeneratorINS_6detail7fn_implINS2_7diag_fnIRNS_16xarray_containerINS_7uvectorIdSaIdEEELNS_11layout_typeE1ENS_7svectorImLm4ESaImELb1EEENS_22xtensor_expression_tagEEEEEEEdSt5arrayImLm2EEEELb1EE6to_endES9_
FNDA:0,_ZN2xt16xindexed_stepperINS_10xgeneratorINS_6detail7fn_implINS2_7diag_fnIRNS_16xarray_containerINS_7uvectorIdSaIdEEELNS_11layout_typeE1ENS_7svectorImLm4ESaImELb1EEENS_22xtensor_expression_tagEEEEEEEdSt5arrayImLm2EEEELb1EE6to_endES9_
FN:982,_ZN2xt16xindexed_stepperINS_10xgeneratorINS_6detail7fn_implINS2_6eye_fnIbEEEEbSt6vectorImSaImEEEELb1EE6to_endENS_11layout_typeE
FNDA:0,_ZN2xt16xindexed_stepperINS_10xgeneratorINS_6detail7fn_implINS2_6eye_fnIbEEEEbSt6vectorImSaImEEEELb1EE6to_endENS_11layout_typeE
FN:1006,_ZN2xt6detail13shape_storageIPSt5arrayImLm2EEEC2EPKS3_
FNDA:0,_ZN2xt6detail13shape_storageIPSt5arrayImLm2EEEC2EPKS3_
FN:1006,_ZN2xt6detail13shape_storageIPSt6vectorImSaImEEEC2EPKS4_
FNDA:0,_ZN2xt6detail13shape_storageIPSt6vectorImSaImEEEC2EPKS4_
FN:1012,_ZNK2xt6detail13shape_storageIPSt6vectorImSaImEEE5shapeEv
FNDA:0,_ZNK2xt6detail13shape_storageIPSt6vectorImSaImEEE5shapeEv
FN:1012,_ZNK2xt6detail13shape_storageIPSt5arrayImLm2EEE5shapeEv
FNDA:0,_ZNK2xt6detail13shape_storageIPSt5arrayImLm2EEE5shapeEv
FN:1031,_ZN2xt9xiteratorINS_16xindexed_stepperINS_10xgeneratorINS_6detail7fn_implINS3_6eye_fnIbEEEEbSt6vectorImSaImEEEELb1EEEPSA_LNS_11layout_typeE1EEC2ESC_PKSA_b
FNDA:0,_ZN2xt9xiteratorINS_16xindexed_stepperINS_10xgeneratorINS_6detail7fn_implINS3_6eye_fnIbEEEEbSt6vectorImSaImEEEELb1EEEPSA_LNS_11layout_typeE1EEC2ESC_PKSA_b
FN:1031,_ZN2xt9xiteratorINS_16xindexed_stepperINS_10xgeneratorINS_6detail7fn_implINS3_7diag_fnIRNS_16xarray_containerINS_7uvectorIdSaIdEEELNS_11layout_typeE1ENS_7svectorImLm4ESaImELb1EEENS_22xtensor_expression_tagEEEEEEEdSt5arrayImLm2EEEELb1EEEPSK_LSA_1EEC2ESM_PKSK_b
FNDA:0,_ZN2xt9xiteratorINS_16xindexed_stepperINS_10xgeneratorINS_6detail7fn_implINS3_7diag_fnIRNS_16xarray_containerINS_7uvectorIdSaIdEEELNS_11layout_typeE1ENS_7svectorImLm4ESaImELb1EEENS_22xtensor_expression_tagEEEEEEEdSt5arrayImLm2EEEELb1EEEPSK_LSA_1EEC2ESM_PKSK_b
FN:1044,_ZZN2xt9xiteratorINS_16xindexed_stepperINS_10xgeneratorINS_6detail7fn_implINS3_6eye_fnIbEEEEbSt6vectorImSaImEEEELb1EEEPSA_LNS_11layout_typeE1EEC4ESC_PKSA_bENKUlRKT_E_clImEEDaSK_
FNDA:0,_ZZN2xt9xiteratorINS_16xindexed_stepperINS_10xgeneratorINS_6detail7fn_implINS3_6eye_fnIbEEEEbSt6vectorImSaImEEEELb1EEEPSA_LNS_11layout_typeE1EEC4ESC_PKSA_bENKUlRKT_E_clImEEDaSK_
FN:1044,_ZZN2xt9xiteratorINS_16xindexed_stepperINS_10xgeneratorINS_6detail7fn_implINS3_7diag_fnIRNS_16xarray_containerINS_7uvectorIdSaIdEEELNS_11layout_typeE1ENS_7svectorImLm4ESaImELb1EEENS_22xtensor_expression_tagEEEEEEEdSt5arrayImLm2EEEELb1EEEPSK_LSA_1EEC4ESM_PKSK_bENKUlRKT_E_clImEEDaST_
FNDA:0,_ZZN2xt9xiteratorINS_16xindexed_stepperINS_10xgeneratorINS_6detail7fn_implINS3_7diag_fnIRNS_16xarray_containerINS_7uvectorIdSaIdEEELNS_11layout_typeE1ENS_7svectorImLm4ESaImELb1EEENS_22xtensor_expression_tagEEEEEEEdSt5arrayImLm2EEEELb1EEEPSK_LSA_1EEC4ESM_PKSK_bENKUlRKT_E_clImEEDaST_
FN:1052,_ZN2xt9xiteratorINS_16xindexed_stepperINS_10xgeneratorINS_6detail7fn_implINS3_7diag_fnIRNS_16xarray_containerINS_7uvectorIdSaIdEEELNS_11layout_typeE1ENS_7svectorImLm4ESaImELb1EEENS_22xtensor_expression_tagEEEEEEEdSt5arrayImLm2EEEELb1EEEPSK_LSA_1EEppEv
FNDA:0,_ZN2xt9xiteratorINS_16xindexed_stepperINS_10xgeneratorINS_6detail7fn_implINS3_7diag_fnIRNS_16xarray_containerINS_7uvectorIdSaIdEEELNS_11layout_typeE1ENS_7svectorImLm4ESaImELb1EEENS_22xtensor_expression_tagEEEEEEEdSt5arrayImLm2EEEELb1EEEPSK_LSA_1EEppEv
FN:1052,_ZN2xt9xiteratorINS_16xindexed_stepperINS_10xgeneratorINS_6detail7fn_implINS3_6eye_fnIbEEEEbSt6vectorImSaImEEEELb1EEEPSA_LNS_11layout_typeE1EEppEv
FNDA:0,_ZN2xt9xiteratorINS_16xindexed_stepperINS_10xgeneratorINS_6detail7fn_implINS3_6eye_fnIbEEEEbSt6vectorImSaImEEEELb1EEEPSA_LNS_11layout_typeE1EEppEv
FN:1104,_ZNK2xt9xiteratorINS_16xindexed_stepperINS_10xgeneratorINS_6detail7fn_implINS3_7diag_fnIRNS_16xarray_containerINS_7uvectorIdSaIdEEELNS_11layout_typeE1ENS_7svectorImLm4ESaImELb1EEENS_22xtensor_expression_tagEEEEEEEdSt5arrayImLm2EEEELb1EEEPSK_LSA_1EEdeEv
FNDA:0,_ZNK2xt9xiteratorINS_16xindexed_stepperINS_10xgeneratorINS_6detail7fn_implINS3_7diag_fnIRNS_16xarray_containerINS_7uvectorIdSaIdEEELNS_11layout_typeE1ENS_7svectorImLm4ESaImELb1EEENS_22xtensor_expression_tagEEEEEEEdSt5arrayImLm2EEEELb1EEEPSK_LSA_1EEdeEv
FN:1104,_ZNK2xt9xiteratorINS_16xindexed_stepperINS_10xgeneratorINS_6detail7fn_implINS3_6eye_fnIbEEEEbSt6vectorImSaImEEEELb1EEEPSA_LNS_11layout_typeE1EEdeEv
FNDA:0,_ZNK2xt9xiteratorINS_16xindexed_stepperINS_10xgeneratorINS_6detail7fn_implINS3_6eye_fnIbEEEEbSt6vectorImSaImEEEELb1EEEPSA_LNS_11layout_typeE1EEdeEv
FN:1148,_ZN2xt17xbounded_iteratorIPKmN9__gnu_cxx17__normal_iteratorIS2_St6vectorImSaImEEEEEC2ES2_S8_
FNDA:0,_ZN2xt17xbounded_iteratorIPKmN9__gnu_cxx17__normal_iteratorIS2_St6vectorImSaImEEEEEC2ES2_S8_
FN:1148,_ZN2xt17xbounded_iteratorIPKmS2_EC2ES2_S2_
FNDA:0,_ZN2xt17xbounded_iteratorIPKmS2_EC2ES2_S2_
FN:1170,_ZN2xt17xbounded_iteratorIPKmS2_EpLEl
FNDA:0,_ZN2xt17xbounded_iteratorIPKmS2_EpLEl
FN:1178,_ZN2xt17xbounded_iteratorIPKmN9__gnu_cxx17__normal_iteratorIS2_St6vectorImSaImEEEEEmIEl
FNDA:0,_ZN2xt17xbounded_iteratorIPKmN9__gnu_cxx17__normal_iteratorIS2_St6vectorImSaImEEEEEmIEl
FN:1192,_ZNK2xt17xbounded_iteratorIPKmS2_EdeEv
FNDA:0,_ZNK2xt17xbounded_iteratorIPKmS2_EdeEv
FN:1192,_ZNK2xt17xbounded_iteratorIPKmN9__gnu_cxx17__normal_iteratorIS2_St6vectorImSaImEEEEEdeEv
FNDA:0,_ZNK2xt17xbounded_iteratorIPKmN9__gnu_cxx17__normal_iteratorIS2_St6vectorImSaImEEEEEdeEv
DA:438,0
DA:440,0
DA:442,0
DA:446,0
DA:462,0
DA:470,0
DA:462,0
DA:470,0
DA:462,0
DA:464,0
DA:470,0
DA:462,0
DA:470,0
DA:462,0
DA:464,0
DA:470,0
DA:464,0
DA:464,0
DA:464,0
DA:466,0
DA:467,0
DA:467,0
DA:469,0
DA:490,0
DA:491,0
DA:493,0
DA:490,0
DA:491,0
DA:493,0
DA:496,0
DA:498,0
DA:496,0
DA:498,0
DA:502,0
DA:504,0
DA:507,0
DA:509,0
DA:502,0
DA:504,0
DA:507,0
DA:509,0
DA:522,0
DA:524,0
DA:526,0
DA:528,0
DA:522,0
DA:524,0
DA:526,0
DA:528,0
DA:546,0
DA:548,0
DA:549,0
DA:546,0
DA:548,0
DA:549,0
DA:602,0
DA:607,0
DA:608,0
DA:610,0
DA:611,0
DA:613,0
DA:614,0
DA:615,0
DA:619,0
DA:620,0
DA:622,0
DA:626,0
DA:628,0
DA:629,0
DA:602,0
DA:607,0
DA:608,0
DA:610,0
DA:611,0
DA:613,0
DA:614,0
DA:615,0
DA:619,0
DA:620,0
DA:622,0
DA:626,0
DA:628,0
DA:629,0
DA:602,0
DA:607,0
DA:608,0
DA:610,0
DA:611,0
DA:613,0
DA:614,0
DA:615,0
DA:619,0
DA:620,0
DA:622,0
DA:626,0
DA:628,0
DA:629,0
DA:602,0
DA:607,0
DA:608,0
DA:610,0
DA:611,0
DA:613,0
DA:614,0
DA:615,0
DA:619,0
DA:620,0
DA:622,0
DA:626,0
DA:628,0
DA:629,0
DA:602,0
DA:607,0
DA:608,0
DA:610,0
DA:611,0
DA:613,0
DA:614,0
DA:615,0
DA:619,0
DA:620,0
DA:622,0
DA:626,0
DA:628,0
DA:629,0
DA:923,0
DA:924,0
DA:926,0
DA:929,0
DA:931,0
DA:923,0
DA:924,0
DA:926,0
DA:929,0
DA:931,0
DA:934,0
DA:936,0
DA:934,0
DA:936,0
DA:940,0
DA:942,0
DA:944,0
DA:946,0
DA:940,0
DA:942,0
DA:944,0
DA:946,0
DA:958,0
DA:960,0
DA:962,0
DA:964,0
DA:958,0
DA:960,0
DA:962,0
DA:964,0
DA:982,0
DA:984,0
DA:985,0
DA:982,0
DA:984,0
DA:985,0
DA:1006,0
DA:1007,0
DA:1009,0
DA:1006,0
DA:1007,0
DA:1009,0
DA:1012,0
DA:1014,0
DA:1012,0
DA:1014,0
DA:1031,0
DA:1032,0
DA:1033,0
DA:1034,0
DA:1035,0
DA:1038,0
DA:1040,0
DA:1042,0
DA:1043,0
DA:1044,0
DA:1046,0
DA:1049,0
DA:1031,0
DA:1032,0
DA:1033,0
DA:1034,0
DA:1035,0
DA:1038,0
DA:1040,0
DA:1042,0
DA:1043,0
DA:1044,0
DA:1046,0
DA:1049,0
DA:1044,0
DA:1044,0
DA:1052,0
DA:1054,0
DA:1055,0
DA:1056,0
DA:1052,0
DA:1054,0
DA:1055,0
DA:1056,0
DA:1104,0
DA:1106,0
DA:1104,0
DA:1106,0
DA:1148,0
DA:1149,0
DA:1151,0
DA:1148,0
DA:1149,0
DA:1151,0
DA:1170,0
DA:1172,0
DA:1173,0
DA:1174,0
DA:1178,0
DA:1180,0
DA:1181,0
DA:1182,0
DA:1192,0
DA:1195,0
DA:1192,0
DA:1195,0
end_of_record
SF:/workspace/.xmake/packages/x/xtensor/0.24.3/7589bb6431db4fba90e4d138dda37226/include/xtensor/xutils.hpp
FN:154,_ZN2xt6detail13for_each_implILm2ERZNS_17xfunction_stepperINS0_10multipliesEJNS_7xscalarIdEERKNS_16xarray_containerINS_7uvectorIdSaIdEEELNS_11layout_typeE1ENS_7svectorImLm4ESaImELb1EEENS_22xtensor_expression_tagEEEEE5resetEmEUlRT_E_JNS_15xscalar_stepperILb1EdEENS_8xstepperISG_EEEEENSt9enable_ifIXeqT_sZT1_EvE4typeEOT0_RSt5tupleIJDpT1_EE
FNDA:0,_ZN2xt6detail13for_each_implILm2ERZNS_17xfunction_stepperINS0_10multipliesEJNS_7xscalarIdEERKNS_16xarray_containerINS_7uvectorIdSaIdEEELNS_11layout_typeE1ENS_7svectorImLm4ESaImELb1EEENS_22xtensor_expression_tagEEEEE5resetEmEUlRT_E_JNS_15xscalar_stepperILb1EdEENS_8xstepperISG_EEEEENSt9enable_ifIXeqT_sZT1_EvE4typeEOT0_RSt5tupleIJDpT1_EE
FN:154,_ZN2xt6detail13for_each_implILm2ERZNS_17xfunction_stepperINS0_5minusEJRKNS_16xarray_containerINS_7uvectorIdSaIdEEELNS_11layout_typeE1ENS_7svectorImLm4ESaImELb1EEENS_22xtensor_expression_tagEEERKNS_9xfunctionINS0_10multipliesEJNS_7xscalarIdEESF_EEEEE4stepEmEUlRT_E_JNS_8xstepperISE_EENS2_ISH_JSJ_SF_EEEEEENSt9enable_ifIXeqT_sZT1_EvE4typeEOT0_RSt5tupleIJDpT1_EE
FNDA:0,_ZN2xt6detail13for_each_implILm2ERZNS_17xfunction_stepperINS0_5minusEJRKNS_16xarray_containerINS_7uvectorIdSaIdEEELNS_11layout_typeE1ENS_7svectorImLm4ESaImELb1EEENS_22xtensor_expression_tagEEERKNS_9xfunctionINS0_10multipliesEJNS_7xscalarIdEESF_EEEEE4stepEmEUlRT_E_JNS_8xstepperISE_EENS2_ISH_JSJ_SF_EEEEEENSt9enable_ifIXeqT_sZT1_EvE4typeEOT0_RSt5tupleIJDpT1_EE
FN:154,_ZN2xt6detail13for_each_implILm2ERZNS_17xfunction_stepperINS0_5minusEJRKNS_16xarray_containerINS_7uvectorIdSaIdEEELNS_11layout_typeE1ENS_7svectorImLm4ESaImELb1EEENS_22xtensor_expression_tagEEERKNS_9xfunctionINS0_10multipliesEJNS_7xscalarIdEESF_EEEEE5resetEmEUlRT_E_JNS_8xstepperISE_EENS2_ISH_JSJ_SF_EEEEEENSt9enable_ifIXeqT_sZT1_EvE4typeEOT0_RSt5tupleIJDpT1_EE
FNDA:0,_ZN2xt6detail13for_each_implILm2ERZNS_17xfunction_stepperINS0_5minusEJRKNS_16xarray_containerINS_7uvectorIdSaIdEEELNS_11layout_typeE1ENS_7svectorImLm4ESaImELb1EEENS_22xtensor_expression_tagEEERKNS_9xfunctionINS0_10multipliesEJNS_7xscalarIdEESF_EEEEE5resetEmEUlRT_E_JNS_8xstepperISE_EENS2_ISH_JSJ_SF_EEEEEENSt9enable_ifIXeqT_sZT1_EvE4typeEOT0_RSt5tupleIJDpT1_EE
FN:154,_ZN2xt6detail13for_each_implILm2ERZNS_17xfunction_stepperINS0_5minusEJRKNS_16xarray_containerINS_7uvectorIdSaIdEEELNS_11layout_typeE1ENS_7svectorImLm4ESaImELb1EEENS_22xtensor_expression_tagEEERKNS_9xfunctionINS0_10multipliesEJNS_7xscalarIdEESF_EEEEE6to_endES8_EUlRT_E_JNS_8xstepperISE_EENS2_ISH_JSJ_SF_EEEEEENSt9enable_ifIXeqT_sZT1_EvE4typeEOT0_RSt5tupleIJDpT1_EE
FNDA:0,_ZN2xt6detail13for_each_implILm2ERZNS_17xfunction_stepperINS0_5minusEJRKNS_16xarray_containerINS_7uvectorIdSaIdEEELNS_11layout_typeE1ENS_7svectorImLm4ESaImELb1EEENS_22xtensor_expression_tagEEERKNS_9xfunctionINS0_10multipliesEJNS_7xscalarIdEESF_EEEEE6to_endES8_EUlRT_E_JNS_8xstepperISE_EENS2_ISH_JSJ_SF_EEEEEENSt9enable_ifIXeqT_sZT1_EvE4typeEOT0_RSt5tupleIJDpT1_EE
FN:154,_ZN2xt6detail13for_each_implILm2ERZNS_18xfunction_iteratorINS0_5minusEJRKNS_16xarray_containerINS_7uvectorIdSaIdEEELNS_11layout_typeE1ENS_7svectorImLm4ESaImELb1EEENS_22xtensor_expression_tagEEERKNS_9xfunctionINS0_10multipliesEJNS_7xscalarIdEESF_EEEEEppEvEUlRT_E_JPKdNS2_ISH_JSJ_SF_EEEEEENSt9enable_ifIXeqT_sZT1_EvE4typeEOT0_RSt5tupleIJDpT1_EE
FNDA:0,_ZN2xt6detail13for_each_implILm2ERZNS_18xfunction_iteratorINS0_5minusEJRKNS_16xarray_containerINS_7uvectorIdSaIdEEELNS_11layout_typeE1ENS_7svectorImLm4ESaImELb1EEENS_22xtensor_expression_tagEEERKNS_9xfunctionINS0_10multipliesEJNS_7xscalarIdEESF_EEEEEppEvEUlRT_E_JPKdNS2_ISH_JSJ_SF_EEEEEENSt9enable_ifIXeqT_sZT1_EvE4typeEOT0_RSt5tupleIJDpT1_EE
FN:154,_ZN2xt6detail13for_each_implILm2ERZNS_18xfunction_iteratorINS0_10multipliesEJNS_7xscalarIdEERKNS_16xarray_containerINS_7uvectorIdSaIdEEELNS_11layout_typeE1ENS_7svectorImLm4ESaImELb1EEENS_22xtensor_expression_tagEEEEEppEvEUlRT_E_JNS_15xdummy_iteratorILb1EdEEPKdEEENSt9enable_ifIXeqT_sZT1_EvE4typeEOT0_RSt5tupleIJDpT1_EE
FNDA:0,_ZN2xt6detail13for_each_implILm2ERZNS_18xfunction_iteratorINS0_10multipliesEJNS_7xscalarIdEERKNS_16xarray_containerINS_7uvectorIdSaIdEEELNS_11layout_typeE1ENS_7svectorImLm4ESaImELb1EEENS_22xtensor_expression_tagEEEEEppEvEUlRT_E_JNS_15xdummy_iteratorILb1EdEEPKdEEENSt9enable_ifIXeqT_sZT1_EvE4typeEOT0_RSt5tupleIJDpT1_EE
FN:154,_ZN2xt6detail13for_each_implILm2ERZNS_17xfunction_stepperINS0_10multipliesEJNS_7xscalarIdEERKNS_16xarray_containerINS_7uvectorIdSaIdEEELNS_11layout_typeE1ENS_7svectorImLm4ESaImELb1EEENS_22xtensor_expression_tagEEEEE6to_endESA_EUlRT_E_JNS_15xscalar_stepperILb1EdEENS_8xstepperISG_EEEEENSt9enable_ifIXeqT_sZT1_EvE4typeEOT0_RSt5tupleIJDpT1_EE
FNDA:0,_ZN2xt6detail13for_each_implILm2ERZNS_17xfunction_stepperINS0_10multipliesEJNS_7xscalarIdEERKNS_16xarray_containerINS_7uvectorIdSaIdEEELNS_11layout_typeE1ENS_7svectorImLm4ESaImELb1EEENS_22xtensor_expression_tagEEEEE6to_endESA_EUlRT_E_JNS_15xscalar_stepperILb1EdEENS_8xstepperISG_EEEEENSt9enable_ifIXeqT_sZT1_EvE4typeEOT0_RSt5tupleIJDpT1_EE
FN:154,_ZN2xt6detail13for_each_implILm2ERZNS_17xfunction_stepperINS0_10multipliesEJNS_7xscalarIdEERKNS_16xarray_containerINS_7uvectorIdSaIdEEELNS_11layout_typeE1ENS_7svectorImLm4ESaImELb1EEENS_22xtensor_expression_tagEEEEE4stepEmEUlRT_E_JNS_15xscalar_stepperILb1EdEENS_8xstepperISG_EEEEENSt9enable_ifIXeqT_sZT1_EvE4typeEOT0_RSt5tupleIJDpT1_EE
FNDA:0,_ZN2xt6detail13for_each_implILm2ERZNS_17xfunction_stepperINS0_10multipliesEJNS_7xscalarIdEERKNS_16xarray_containerINS_7uvectorIdSaIdEEELNS_11layout_typeE1ENS_7svectorImLm4ESaImELb1EEENS_22xtensor_expression_tagEEEEE4stepEmEUlRT_E_JNS_15xscalar_stepperILb1EdEENS_8xstepperISG_EEEEENSt9enable_ifIXeqT_sZT1_EvE4typeEOT0_RSt5tupleIJDpT1_EE
FN:160,_ZN2xt6detail13for_each_implILm0ERZNS_17xfunction_stepperINS0_5minusEJRKNS_16xarray_containerINS_7uvectorIdSaIdEEELNS_11layout_typeE1ENS_7svectorImLm4ESaImELb1EEENS_22xtensor_expression_tagEEERKNS_9xfunctionINS0_10multipliesEJNS_7xscalarIdEESF_EEEEE4stepEmEUlRT_E_JNS_8xstepperISE_EENS2_ISH_JSJ_SF_EEEEEENSt9enable_ifIXltT_sZT1_EvE4typeEOT0_RSt5tupleIJDpT1_EE
FNDA:0,_ZN2xt6detail13for_each_implILm0ERZNS_17xfunction_stepperINS0_5minusEJRKNS_16xarray_containerINS_7uvectorIdSaIdEEELNS_11layout_typeE1ENS_7svectorImLm4ESaImELb1EEENS_22xtensor_expression_tagEEERKNS_9xfunctionINS0_10multipliesEJNS_7xscalarIdEESF_EEEEE4stepEmEUlRT_E_JNS_8xstepperISE_EENS2_ISH_JSJ_SF_EEEEEENSt9enable_ifIXltT_sZT1_EvE4typeEOT0_RSt5tupleIJDpT1_EE
FN:160,_ZN2xt6detail13for_each_implILm0ERZNS_17xfunction_stepperINS0_5minusEJRKNS_16xarray_containerINS_7uvectorIdSaIdEEELNS_11layout_typeE1ENS_7svectorImLm4ESaImELb1EEENS_22xtensor_expression_tagEEERKNS_9xfunctionINS0_10multipliesEJNS_7xscalarIdEESF_EEEEE5resetEmEUlRT_E_JNS_8xstepperISE_EENS2_ISH_JSJ_SF_EEEEEENSt9enable_ifIXltT_sZT1_EvE4typeEOT0_RSt5tupleIJDpT1_EE
FNDA:0,_ZN2xt6detail13for_each_implILm0ERZNS_17xfunction_stepperINS0_5minusEJRKNS_16xarray_containerINS_7uvectorIdSaIdEEELNS_11layout_typeE1ENS_7svectorImLm4ESaImELb1EEENS_22xtensor_expression_tagEEERKNS_9xfunctionINS0_10multipliesEJNS_7xscalarIdEESF_EEEEE5resetEmEUlRT_E_JNS_8xstepperISE_EENS2_ISH_JSJ_SF_EEEEEENSt9enable_ifIXltT_sZT1_EvE4typeEOT0_RSt5tupleIJDpT1_EE
FN:160,_ZN2xt6detail13for_each_implILm0ERZNS_17xfunction_stepperINS0_5minusEJRKNS_16xarray_containerINS_7uvectorIdSaIdEEELNS_11layout_typeE1ENS_7svectorImLm4ESaImELb1EEENS_22xtensor_expression_tagEEERKNS_9xfunctionINS0_10multipliesEJNS_7xscalarIdEESF_EEEEE6to_endES8_EUlRT_E_JNS_8xstepperISE_EENS2_ISH_JSJ_SF_EEEEEENSt9enable_ifIXltT_sZT1_EvE4typeEOT0_RSt5tupleIJDpT1_EE
FNDA:0,_ZN2xt6detail13for_each_implILm0ERZNS_17xfunction_stepperINS0_5minusEJRKNS_16xarray_containerINS_7uvectorIdSaIdEEELNS_11layout_typeE1ENS_7svectorImLm4ESaImELb1EEENS_22xtensor_expression_tagEEERKNS_9xfunctionINS0_10multipliesEJNS_7xscalarIdEESF_EEEEE6to_endES8_EUlRT_E_JNS_8xstepperISE_EENS2_ISH_JSJ_SF_EEEEEENSt9enable_ifIXltT_sZT1_EvE4typeEOT0_RSt5tupleIJDpT1_EE
FN:160,_ZN2xt6detail13for_each_implILm1ERZNS_17xfunction_stepperINS0_5minusEJRKNS_16xarray_containerINS_7uvectorIdSaIdEEELNS_11layout_typeE1ENS_7svectorImLm4ESaImELb1EEENS_22xtensor_expression_tagEEERKNS_9xfunctionINS0_10multipliesEJNS_7xscalarIdEESF_EEEEE4stepEmEUlRT_E_JNS_8xstepperISE_EENS2_ISH_JSJ_SF_EEEEEENSt9enable_ifIXltT_sZT1_EvE4typeEOT0_RSt5tupleIJDpT1_EE
FNDA:0,_ZN2xt6detail13for_each_implILm1ERZNS_17xfunction_stepperINS0_5minusEJRKNS_16xarray_containerINS_7uvectorIdSaIdEEELNS_11layout_typeE1ENS_7svectorImLm4ESaImELb1EEENS_22xtensor_expression_tagEEERKNS_9xfunctionINS0_10multipliesEJNS_7xscalarIdEESF_EEEEE4stepEmEUlRT_E_JNS_8xstepperISE_EENS2_ISH_JSJ_SF_EEEEEENSt9enable_ifIXltT_sZT1_EvE4typeEOT0_RSt5tupleIJDpT1_EE
FN:160,_ZN2xt6detail13for_each_implILm1ERZNS_17xfunction_stepperINS0_5minusEJRKNS_16xarray_containerINS_7uvectorIdSaIdEEELNS_11layout_typeE1ENS_7svectorImLm4ESaImELb1EEENS_22xtensor_expression_tagEEERKNS_9xfunctionINS0_10multipliesEJNS_7xscalarIdEESF_EEEEE5resetEmEUlRT_E_JNS_8xstepperISE_EENS2_ISH_JSJ_SF_EEEEEENSt9enable_ifIXltT_sZT1_EvE4typeEOT0_RSt5tupleIJDpT1_EE
FNDA:0,_ZN2xt6detail13for_each_implILm1ERZNS_17xfunction_stepperINS0_5minusEJRKNS_16xarray_containerINS_7uvectorIdSaIdEEELNS_11layout_typeE1ENS_7svectorImLm4ESaImELb1EEENS_22xtensor_expression_tagEEERKNS_9xfunctionINS0_10multipliesEJNS_7xscalarIdEESF_EEEEE5resetEmEUlRT_E_JNS_8xstepperISE_EENS2_ISH_JSJ_SF_EEEEEENSt9enable_ifIXltT_sZT1_EvE4typeEOT0_RSt5tupleIJDpT1_EE
FN:160,_ZN2xt6detail13for_each_implILm1ERZNS_17xfunction_stepperINS0_5minusEJRKNS_16xarray_containerINS_7uvectorIdSaIdEEELNS_11layout_typeE1ENS_7svectorImLm4ESaImELb1EEENS_22xtensor_expression_tagEEERKNS_9xfunctionINS0_10multipliesEJNS_7xscalarIdEESF_EEEEE6to_endES8_EUlRT_E_JNS_8xstepperISE_EENS2_ISH_JSJ_SF_EEEEEENSt9enable_ifIXltT_sZT1_EvE4typeEOT0_RSt5tupleIJDpT1_EE
FNDA:0,_ZN2xt6detail13for_each_implILm1ERZNS_17xfunction_stepperINS0_5minusEJRKNS_16xarray_containerINS_7uvectorIdSaIdEEELNS_11layout_typeE1ENS_7svectorImLm4ESaImELb1EEENS_22xtensor_expression_tagEEERKNS_9xfunctionINS0_10multipliesEJNS_7xscalarIdEESF_EEEEE6to_endES8_EUlRT_E_JNS_8xstepperISE_EENS2_ISH_JSJ_SF_EEEEEENSt9enable_ifIXltT_sZT1_EvE4typeEOT0_RSt5tupleIJDpT1_EE
FN:160,_ZN2xt6detail13for_each_implILm0ERZNS_18xfunction_iteratorINS0_5minusEJRKNS_16xarray_containerINS_7uvectorIdSaIdEEELNS_11layout_typeE1ENS_7svectorImLm4ESaImELb1EEENS_22xtensor_expression_tagEEERKNS_9xfunctionINS0_10multipliesEJNS_7xscalarIdEESF_EEEEEppEvEUlRT_E_JPKdNS2_ISH_JSJ_SF_EEEEEENSt9enable_ifIXltT_sZT1_EvE4typeEOT0_RSt5tupleIJDpT1_EE
FNDA:0,_ZN2xt6detail13for_each_implILm0ERZNS_18xfunction_iteratorINS0_5minusEJRKNS_16xarray_containerINS_7uvectorIdSaIdEEELNS_11layout_typeE1ENS_7svectorImLm4ESaImELb1EEENS_22xtensor_expression_tagEEERKNS_9xfunctionINS0_10multipliesEJNS_7xscalarIdEESF_EEEEEppEvEUlRT_E_JPKdNS2_ISH_JSJ_SF_EEEEEENSt9enable_ifIXltT_sZT1_EvE4typeEOT0_RSt5tupleIJDpT1_EE
FN:160,_ZN2xt6detail13for_each_implILm0ERZNS_18xfunction_iteratorINS0_10multipliesEJNS_7xscalarIdEERKNS_16xarray_containerINS_7uvectorIdSaIdEEELNS_11layout_typeE1ENS_7svectorImLm4ESaImELb1EEENS_22xtensor_expression_tagEEEEEppEvEUlRT_E_JNS_15xdummy_iteratorILb1EdEEPKdEEENSt9enable_ifIXltT_sZT1_EvE4typeEOT0_RSt5tupleIJDpT1_EE
FNDA:0,_ZN2xt6detail13for_each_implILm0ERZNS_18xfunction_iteratorINS0_10multipliesEJNS_7xscalarIdEERKNS_16xarray_containerINS_7uvectorIdSaIdEEELNS_11layout_typeE1ENS_7svectorImLm4ESaImELb1EEENS_22xtensor_expression_tagEEEEEppEvEUlRT_E_JNS_15xdummy_iteratorILb1EdEEPKdEEENSt9enable_ifIXltT_sZT1_EvE4typeEOT0_RSt5tupleIJDpT1_EE
FN:160,_ZN2xt6detail13for_each_implILm1ERZNS_18xfunction_iteratorINS0_5minusEJRKNS_16xarray_containerINS_7uvectorIdSaIdEEELNS_11layout_typeE1ENS_7svectorImLm4ESaImELb1EEENS_22xtensor_expression_tagEEERKNS_9xfunctionINS0_10multipliesEJNS_7xscalarIdEESF_EEEEEppEvEUlRT_E_JPKdNS2_ISH_JSJ_SF_EEEEEENSt9enable_ifIXltT_sZT1_EvE4typeEOT0_RSt5tupleIJDpT1_EE
FNDA:0,_ZN2xt6detail13for_each_implILm1ERZNS_18xfunction_iteratorINS0_5minusEJRKNS_16xarray_containerINS_7uvectorIdSaIdEEELNS_11layout_typeE1ENS_7svectorImLm4ESaImELb1EEENS_22xtensor_expression_tagEEERKNS_9xfunctionINS0_10multipliesEJNS_7xscalarIdEESF_EEEEEppEvEUlRT_E_JPKdNS2_ISH_JSJ_SF_EEEEEENSt9enable_ifIXltT_sZT1_EvE4typeEOT0_RSt5tupleIJDpT1_EE
FN:160,_ZN2xt6detail13for_each_implILm1ERZNS_17xfunction_stepperINS0_10multipliesEJNS_7xscalarIdEERKNS_16xarray_containerINS_7uvectorIdSaIdEEELNS_11layout_typeE1ENS_7svectorImLm4ESaImELb1EEENS_22xtensor_expression_tagEEEEE6to_endESA_EUlRT_E_JNS_15xscalar_stepperILb1EdEENS_8xstepperISG_EEEEENSt9enable_ifIXltT_sZT1_EvE4typeEOT0_RSt5tupleIJDpT1_EE
FNDA:0,_ZN2xt6detail13for_each_implILm1ERZNS_17xfunction_stepperINS0_10multipliesEJNS_7xscalarIdEERKNS_16xarray_containerINS_7uvectorIdSaIdEEELNS_11layout_typeE1ENS_7svectorImLm4ESaImELb1EEENS_22xtensor_expression_tagEEEEE6to_endESA_EUlRT_E_JNS_15xscalar_stepperILb1EdEENS_8xstepperISG_EEEEENSt9enable_ifIXltT_sZT1_EvE4typeEOT0_RSt5tupleIJDpT1_EE
FN:160,_ZN2xt6detail13for_each_implILm1ERZNS_17xfunction_stepperINS0_10multipliesEJNS_7xscalarIdEERKNS_16xarray_containerINS_7uvectorIdSaIdEEELNS_11layout_typeE1ENS_7svectorImLm4ESaImELb1EEENS_22xtensor_expression_tagEEEEE5resetEmEUlRT_E_JNS_15xscalar_stepperILb1EdEENS_8xstepperISG_EEEEENSt9enable_ifIXltT_sZT1_EvE4typeEOT0_RSt5tupleIJDpT1_EE
FNDA:0,_ZN2xt6detail13for_each_implILm1ERZNS_17xfunction_stepperINS0_10multipliesEJNS_7xscalarIdEERKNS_16xarray_containerINS_7uvectorIdSaIdEEELNS_11layout_typeE1ENS_7svectorImLm4ESaImELb1EEENS_22xtensor_expression_tagEEEEE5resetEmEUlRT_E_JNS_15xscalar_stepperILb1EdEENS_8xstepperISG_EEEEENSt9enable_ifIXltT_sZT1_EvE4typeEOT0_RSt5tupleIJDpT1_EE
FN:160,_ZN2xt6detail13for_each_implILm1ERZNS_17xfunction_stepperINS0_10multipliesEJNS_7xscalarIdEERKNS_16xarray_containerINS_7uvectorIdSaIdEEELNS_11layout_typeE1ENS_7svectorImLm4ESaImELb1EEENS_22xtensor_expression_tagEEEEE4stepEmEUlRT_E_JNS_15xscalar_stepperILb1EdEENS_8xstepperISG_EEEEENSt9enable_ifIXltT_sZT1_EvE4typeEOT0_RSt5tupleIJDpT1_EE
FNDA:0,_ZN2xt6detail13for_each_implILm1ERZNS_17xfunction_stepperINS0_10multipliesEJNS_7xscalarIdEERKNS_16xarray_containerINS_7uvectorIdSaIdEEELNS_11layout_typeE1ENS_7svectorImLm4ESaImELb1EEENS_22xtensor_expression_tagEEEEE4stepEmEUlRT_E_JNS_15xscalar_stepperILb1EdEENS_8xstepperISG_EEEEENSt9enable_ifIXltT_sZT1_EvE4typeEOT0_RSt5tupleIJDpT1_EE
FN:160,_ZN2xt6detail13for_each_implILm1ERZNS_18xfunction_iteratorINS0_10multipliesEJNS_7xscalarIdEERKNS_16xarray_containerINS_7uvectorIdSaIdEEELNS_11layout_typeE1ENS_7svectorImLm4ESaImELb1EEENS_22xtensor_expression_tagEEEEEppEvEUlRT_E_JNS_15xdummy_iteratorILb1EdEEPKdEEENSt9enable_ifIXltT_sZT1_EvE4typeEOT0_RSt5tupleIJDpT1_EE
FNDA:0,_ZN2xt6detail13for_each_implILm1ERZNS_18xfunction_iteratorINS0_10multipliesEJNS_7xscalarIdEERKNS_16xarray_containerINS_7uvectorIdSaIdEEELNS_11layout_typeE1ENS_7svectorImLm4ESaImELb1EEENS_22xtensor_expression_tagEEEEEppEvEUlRT_E_JNS_15xdummy_iteratorILb1EdEEPKdEEENSt9enable_ifIXltT_sZT1_EvE4typeEOT0_RSt5tupleIJDpT1_EE
FN:160,_ZN2xt6detail13for_each_implILm0ERZNS_17xfunction_stepperINS0_10multipliesEJNS_7xscalarIdEERKNS_16xarray_containerINS_7uvectorIdSaIdEEELNS_11layout_typeE1ENS_7svectorImLm4ESaImELb1EEENS_22xtensor_expression_tagEEEEE4stepEmEUlRT_E_JNS_15xscalar_stepperILb1EdEENS_8xstepperISG_EEEEENSt9enable_ifIXltT_sZT1_EvE4typeEOT0_RSt5tupleIJDpT1_EE
FNDA:0,_ZN2xt6detail13for_each_implILm0ERZNS_17xfunction_stepperINS0_10multipliesEJNS_7xscalarIdEERKNS_16xarray_containerINS_7uvectorIdSaIdEEELNS_11layout_typeE1ENS_7svectorImLm4ESaImELb1EEENS_22xtensor_expression_tagEEEEE4stepEmEUlRT_E_JNS_15xscalar_stepperILb1EdEENS_8xstepperISG_EEEEENSt9enable_ifIXltT_sZT1_EvE4typeEOT0_RSt5tupleIJDpT1_EE
FN:160,_ZN2xt6detail13for_each_implILm0ERZNS_17xfunction_stepperINS0_10multipliesEJNS_7xscalarIdEERKNS_16xarray_containerINS_7uvectorIdSaIdEEELNS_11layout_typeE1ENS_7svectorImLm4ESaImELb1EEENS_22xtensor_expression_tagEEEEE6to_endESA_EUlRT_E_JNS_15xscalar_stepperILb1EdEENS_8xstepperISG_EEEEENSt9enable_ifIXltT_sZT1_EvE4typeEOT0_RSt5tupleIJDpT1_EE
FNDA:0,_ZN2xt6detail13for_each_implILm0ERZNS_17xfunction_stepperINS0_10multipliesEJNS_7xscalarIdEERKNS_16xarray_containerINS_7uvectorIdSaIdEEELNS_11layout_typeE1ENS_7svectorImLm4ESaImELb1EEENS_22xtensor_expression_tagEEEEE6to_endESA_EUlRT_E_JNS_15xscalar_stepperILb1EdEENS_8xstepperISG_EEEEENSt9enable_ifIXltT_sZT1_EvE4typeEOT0_RSt5tupleIJDpT1_EE
FN:160,_ZN2xt6detail13for_each_implILm0ERZNS_17xfunction_stepperINS0_10multipliesEJNS_7xscalarIdEERKNS_16xarray_containerINS_7uvectorIdSaIdEEELNS_11layout_typeE1ENS_7svectorImLm4ESaImELb1EEENS_22xtensor_expression_tagEEEEE5resetEmEUlRT_E_JNS_15xscalar_stepperILb1EdEENS_8xstepperISG_EEEEENSt9enable_ifIXltT_sZT1_EvE4typeEOT0_RSt5tupleIJDpT1_EE
FNDA:0,_ZN2xt6detail13for_each_implILm0ERZNS_17xfunction_stepperINS0_10multipliesEJNS_7xscalarIdEERKNS_16xarray_containerINS_7uvectorIdSaIdEEELNS_11layout_typeE1ENS_7svectorImLm4ESaImELb1EEENS_22xtensor_expression_tagEEEEE5resetEmEUlRT_E_JNS_15xscalar_stepperILb1EdEENS_8xstepperISG_EEEEENSt9enable_ifIXltT_sZT1_EvE4typeEOT0_RSt5tupleIJDpT1_EE
FN:169,_ZN2xt8for_eachIRZNS_17xfunction_stepperINS_6detail10multipliesEJNS_7xscalarIdEERKNS_16xarray_containerINS_7uvectorIdSaIdEEELNS_11layout_typeE1ENS_7svectorImLm4ESaImELb1EEENS_22xtensor_expression_tagEEEEE4stepEmEUlRT_E_JNS_15xscalar_stepperILb1EdEENS_8xstepperISG_EEEEEvOSJ_RSt5tupleIJDpT0_EE
FNDA:0,_ZN2xt8for_eachIRZNS_17xfunction_stepperINS_6detail10multipliesEJNS_7xscalarIdEERKNS_16xarray_containerINS_7uvectorIdSaIdEEELNS_11layout_typeE1ENS_7svectorImLm4ESaImELb1EEENS_22xtensor_expression_tagEEEEE4stepEmEUlRT_E_JNS_15xscalar_stepperILb1EdEENS_8xstepperISG_EEEEEvOSJ_RSt5tupleIJDpT0_EE
FN:169,_ZN2xt8for_eachIRZNS_18xfunction_iteratorINS_6detail5minusEJRKNS_16xarray_containerINS_7uvectorIdSaIdEEELNS_11layout_typeE1ENS_7svectorImLm4ESaImELb1EEENS_22xtensor_expression_tagEEERKNS_9xfunctionINS2_10multipliesEJNS_7xscalarIdEESF_EEEEEppEvEUlRT_E_JPKdNS1_ISH_JSJ_SF_EEEEEEvOSO_RSt5tupleIJDpT0_EE
FNDA:0,_ZN2xt8for_eachIRZNS_18xfunction_iteratorINS_6detail5minusEJRKNS_16xarray_containerINS_7uvectorIdSaIdEEELNS_11layout_typeE1ENS_7svectorImLm4ESaImELb1EEENS_22xtensor_expression_tagEEERKNS_9xfunctionINS2_10multipliesEJNS_7xscalarIdEESF_EEEEEppEvEUlRT_E_JPKdNS1_ISH_JSJ_SF_EEEEEEvOSO_RSt5tupleIJDpT0_EE
FN:169,_ZN2xt8for_eachIRZNS_17xfunction_stepperINS_6detail5minusEJRKNS_16xarray_containerINS_7uvectorIdSaIdEEELNS_11layout_typeE1ENS_7svectorImLm4ESaImELb1EEENS_22xtensor_expression_tagEEERKNS_9xfunctionINS2_10multipliesEJNS_7xscalarIdEESF_EEEEE4stepEmEUlRT_E_JNS_8xstepperISE_EENS1_ISH_JSJ_SF_EEEEEEvOSO_RSt5tupleIJDpT0_EE
FNDA:0,_ZN2xt8for_eachIRZNS_17xfunction_stepperINS_6detail5minusEJRKNS_16xarray_containerINS_7uvectorIdSaIdEEELNS_11layout_typeE1ENS_7svectorImLm4ESaImELb1EEENS_22xtensor_expression_tagEEERKNS_9xfunctionINS2_10multipliesEJNS_7xscalarIdEESF_EEEEE4stepEmEUlRT_E_JNS_8xstepperISE_EENS1_ISH_JSJ_SF_EEEEEEvOSO_RSt5tupleIJDpT0_EE
FN:169,_ZN2xt8for_eachIRZNS_17xfunction_stepperINS_6detail5minusEJRKNS_16xarray_containerINS_7uvectorIdSaIdEEELNS_11layout_typeE1ENS_7svectorImLm4ESaImELb1EEENS_22xtensor_expression_tagEEERKNS_9xfunctionINS2_10multipliesEJNS_7xscalarIdEESF_EEEEE5resetEmEUlRT_E_JNS_8xstepperISE_EENS1_ISH_JSJ_SF_EEEEEEvOSO_RSt5tupleIJDpT0_EE
FNDA:0,_ZN2xt8for_eachIRZNS_17xfunction_stepperINS_6detail5minusEJRKNS_16xarray_containerINS_7uvectorIdSaIdEEELNS_11layout_typeE1ENS_7svectorImLm4ESaImELb1EEENS_22xtensor_expression_tagEEERKNS_9xfunctionINS2_10multipliesEJNS_7xscalarIdEESF_EEEEE5resetEmEUlRT_E_JNS_8xstepperISE_EENS1_ISH_JSJ_SF_EEEEEEvOSO_RSt5tupleIJDpT0_EE
FN:169,_ZN2xt8for_eachIRZNS_17xfunction_stepperINS_6detail5minusEJRKNS_16xarray_containerINS_7uvectorIdSaIdEEELNS_11layout_typeE1ENS_7svectorImLm4ESaImELb1EEENS_22xtensor_expression_tagEEERKNS_9xfunctionINS2_10multipliesEJNS_7xscalarIdEESF_EEEEE6to_endES8_EUlRT_E_JNS_8xstepperISE_EENS1_ISH_JSJ_SF_EEEEEEvOSO_RSt5tupleIJDpT0_EE
FNDA:0,_ZN2xt8for_eachIRZNS_17xfunction_stepperINS_6detail5minusEJRKNS_16xarray_containerINS_7uvectorIdSaIdEEELNS_11layout_typeE1ENS_7svectorImLm4ESaImELb1EEENS_22xtensor_expression_tagEEERKNS_9xfunctionINS2_10multipliesEJNS_7xscalarIdEESF_EEEEE6to_endES8_EUlRT_E_JNS_8xstepperISE_EENS1_ISH_JSJ_SF_EEEEEEvOSO_RSt5tupleIJDpT0_EE
FN:169,_ZN2xt8for_eachIRZNS_17xfunction_stepperINS_6detail10multipliesEJNS_7xscalarIdEERKNS_16xarray_containerINS_7uvectorIdSaIdEEELNS_11layout_typeE1ENS_7svectorImLm4ESaImELb1EEENS_22xtensor_expression_tagEEEEE5resetEmEUlRT_E_JNS_15xscalar_stepperILb1EdEENS_8xstepperISG_EEEEEvOSJ_RSt5tupleIJDpT0_EE
FNDA:0,_ZN2xt8for_eachIRZNS_17xfunction_stepperINS_6detail10multipliesEJNS_7xscalarIdEERKNS_16xarray_containerINS_7uvectorIdSaIdEEELNS_11layout_typeE1ENS_7svectorImLm4ESaImELb1EEENS_22xtensor_expression_tagEEEEE5resetEmEUlRT_E_JNS_15xscalar_stepperILb1EdEENS_8xstepperISG_EEEEEvOSJ_RSt5tupleIJDpT0_EE
FN:169,_ZN2xt8for_eachIRZNS_18xfunction_iteratorINS_6detail10multipliesEJNS_7xscalarIdEERKNS_16xarray_containerINS_7uvectorIdSaIdEEELNS_11layout_typeE1ENS_7svectorImLm4ESaImELb1EEENS_22xtensor_expression_tagEEEEEppEvEUlRT_E_JNS_15xdummy_iteratorILb1EdEEPKdEEEvOSJ_RSt5tupleIJDpT0_EE
FNDA:0,_ZN2xt8for_eachIRZNS_18xfunction_iteratorINS_6detail10multipliesEJNS_7xscalarIdEERKNS_16xarray_containerINS_7uvectorIdSaIdEEELNS_11layout_typeE1ENS_7svectorImLm4ESaImELb1EEENS_22xtensor_expression_tagEEEEEppEvEUlRT_E_JNS_15xdummy_iteratorILb1EdEEPKdEEEvOSJ_RSt5tupleIJDpT0_EE
FN:169,_ZN2xt8for_eachIRZNS_17xfunction_stepperINS_6detail10multipliesEJNS_7xscalarIdEERKNS_16xarray_containerINS_7uvectorIdSaIdEEELNS_11layout_typeE1ENS_7svectorImLm4ESaImELb1EEENS_22xtensor_expression_tagEEEEE6to_endESA_EUlRT_E_JNS_15xscalar_stepperILb1EdEENS_8xstepperISG_EEEEEvOSJ_RSt5tupleIJDpT0_EE
FNDA:0,_ZN2xt8for_eachIRZNS_17xfunction_stepperINS_6detail10multipliesEJNS_7xscalarIdEERKNS_16xarray_containerINS_7uvectorIdSaIdEEELNS_11layout_typeE1ENS_7svectorImLm4ESaImELb1EEENS_22xtensor_expression_tagEEEEE6to_endESA_EUlRT_E_JNS_15xscalar_stepperILb1EdEENS_8xstepperISG_EEEEEvOSJ_RSt5tupleIJDpT0_EE
FN:210,_ZN2xt6detail15accumulate_implILm2ERZNKS_9xfunctionINS0_10multipliesEJNS_7xscalarIdEERKNS_16xarray_containerINS_7uvectorIdSaIdEEELNS_11layout_typeE1ENS_7svectorImLm4ESaImELb1EEENS_22xtensor_expression_tagEEEEE17compute_dimensionEvEUlmOT_E_mJS5_SH_EEENSt9enable_ifIXeqT_sZT2_ET1_E4typeEOT0_SO_RKSt5tupleIJDpT2_EE
FNDA:0,_ZN2xt6detail15accumulate_implILm2ERZNKS_9xfunctionINS0_10multipliesEJNS_7xscalarIdEERKNS_16xarray_containerINS_7uvectorIdSaIdEEELNS_11layout_typeE1ENS_7svectorImLm4ESaImELb1EEENS_22xtensor_expression_tagEEEEE17compute_dimensionEvEUlmOT_E_mJS5_SH_EEENSt9enable_ifIXeqT_sZT2_ET1_E4typeEOT0_SO_RKSt5tupleIJDpT2_EE
FN:210,_ZN2xt6detail15accumulate_implILm2EZNKS_9xfunctionINS0_10multipliesEJNS_7xscalarIdEERKNS_16xarray_containerINS_7uvectorIdSaIdEEELNS_11layout_typeE1ENS_7svectorImLm4ESaImELb1EEENS_22xtensor_expression_tagEEEEE13is_contiguousEvEUlbRKT_E_bJS5_SH_EEENSt9enable_ifIXeqT_sZT2_ET1_E4typeEOT0_SO_RKSt5tupleIJDpT2_EE
FNDA:0,_ZN2xt6detail15accumulate_implILm2EZNKS_9xfunctionINS0_10multipliesEJNS_7xscalarIdEERKNS_16xarray_containerINS_7uvectorIdSaIdEEELNS_11layout_typeE1ENS_7svectorImLm4ESaImELb1EEENS_22xtensor_expression_tagEEEEE13is_contiguousEvEUlbRKT_E_bJS5_SH_EEENSt9enable_ifIXeqT_sZT2_ET1_E4typeEOT0_SO_RKSt5tupleIJDpT2_EE
FN:210,_ZN2xt6detail15accumulate_implILm2ERZNKS_9xfunctionINS0_10multipliesEJNS_7xscalarIdEERKNS_16xarray_containerINS_7uvectorIdSaIdEEELNS_11layout_typeE1ENS_7svectorImLm4ESaImELb1EEENS_22xtensor_expression_tagEEEEE17has_linear_assignINSB_IlLm4ESaIlELb1EEEEEbRKT_EUlbOSM_E_bJS5_SH_EEENSt9enable_ifIXeqT_sZT2_ET1_E4typeEOT0_ST_RKSt5tupleIJDpT2_EE
FNDA:0,_ZN2xt6detail15accumulate_implILm2ERZNKS_9xfunctionINS0_10multipliesEJNS_7xscalarIdEERKNS_16xarray_containerINS_7uvectorIdSaIdEEELNS_11layout_typeE1ENS_7svectorImLm4ESaImELb1EEENS_22xtensor_expression_tagEEEEE17has_linear_assignINSB_IlLm4ESaIlELb1EEEEEbRKT_EUlbOSM_E_bJS5_SH_EEENSt9enable_ifIXeqT_sZT2_ET1_E4typeEOT0_ST_RKSt5tupleIJDpT2_EE
FN:210,_ZN2xt6detail15accumulate_implILm2EZNKS_9xfunctionINS0_5minusEJRKNS_16xarray_containerINS_7uvectorIdSaIdEEELNS_11layout_typeE1ENS_7svectorImLm4ESaImELb1EEENS_22xtensor_expression_tagEEERKNS2_INS0_10multipliesEJNS_7xscalarIdEESF_EEEEE13is_contiguousEvEUlbRKT_E_bJSF_SL_EEENSt9enable_ifIXeqT_sZT2_ET1_E4typeEOT0_SS_RKSt5tupleIJDpT2_EE
FNDA:0,_ZN2xt6detail15accumulate_implILm2EZNKS_9xfunctionINS0_5minusEJRKNS_16xarray_containerINS_7uvectorIdSaIdEEELNS_11layout_typeE1ENS_7svectorImLm4ESaImELb1EEENS_22xtensor_expression_tagEEERKNS2_INS0_10multipliesEJNS_7xscalarIdEESF_EEEEE13is_contiguousEvEUlbRKT_E_bJSF_SL_EEENSt9enable_ifIXeqT_sZT2_ET1_E4typeEOT0_SS_RKSt5tupleIJDpT2_EE
FN:210,_ZN2xt6detail15accumulate_implILm2ERZNKS_9xfunctionINS0_5minusEJRKNS_16xarray_containerINS_7uvectorIdSaIdEEELNS_11layout_typeE1ENS_7svectorImLm4ESaImELb1EEENS_22xtensor_expression_tagEEERKNS2_INS0_10multipliesEJNS_7xscalarIdEESF_EEEEE17compute_dimensionEvEUlmOT_E_mJSF_SL_EEENSt9enable_ifIXeqT_sZT2_ET1_E4typeEOT0_SS_RKSt5tupleIJDpT2_EE
FNDA:0,_ZN2xt6detail15accumulate_implILm2ERZNKS_9xfunctionINS0_5minusEJRKNS_16xarray_containerINS_7uvectorIdSaIdEEELNS_11layout_typeE1ENS_7svectorImLm4ESaImELb1EEENS_22xtensor_expression_tagEEERKNS2_INS0_10multipliesEJNS_7xscalarIdEESF_EEEEE17compute_dimensionEvEUlmOT_E_mJSF_SL_EEENSt9enable_ifIXeqT_sZT2_ET1_E4typeEOT0_SS_RKSt5tupleIJDpT2_EE
FN:210,_ZN2xt6detail15accumulate_implILm2ERZNKS_9xfunctionINS0_5minusEJRKNS_16xarray_containerINS_7uvectorIdSaIdEEELNS_11layout_typeE1ENS_7svectorImLm4ESaImELb1EEENS_22xtensor_expression_tagEEERKNS2_INS0_10multipliesEJNS_7xscalarIdEESF_EEEEE17has_linear_assignINS9_IlLm4ESaIlELb1EEEEEbRKT_EUlbOSQ_E_bJSF_SL_EEENSt9enable_ifIXeqT_sZT2_ET1_E4typeEOT0_SX_RKSt5tupleIJDpT2_EE
FNDA:0,_ZN2xt6detail15accumulate_implILm2ERZNKS_9xfunctionINS0_5minusEJRKNS_16xarray_containerINS_7uvectorIdSaIdEEELNS_11layout_typeE1ENS_7svectorImLm4ESaImELb1EEENS_22xtensor_expression_tagEEERKNS2_INS0_10multipliesEJNS_7xscalarIdEESF_EEEEE17has_linear_assignINS9_IlLm4ESaIlELb1EEEEEbRKT_EUlbOSQ_E_bJSF_SL_EEENSt9enable_ifIXeqT_sZT2_ET1_E4typeEOT0_SX_RKSt5tupleIJDpT2_EE
FN:210,_ZN2xt6detail15accumulate_implILm2ERZNKS_9xfunctionINS0_5minusEJRKNS_16xarray_containerINS_7uvectorIdSaIdEEELNS_11layout_typeE1ENS_7svectorImLm4ESaImELb1EEENS_22xtensor_expression_tagEEERKNS2_INS0_10multipliesEJNS_7xscalarIdEESF_EEEEE15broadcast_shapeISB_EEbRT_bEUlbOSO_E_bJSF_SL_EEENSt9enable_ifIXeqT_sZT2_ET1_E4typeEOT0_SU_RKSt5tupleIJDpT2_EE
FNDA:0,_ZN2xt6detail15accumulate_implILm2ERZNKS_9xfunctionINS0_5minusEJRKNS_16xarray_containerINS_7uvectorIdSaIdEEELNS_11layout_typeE1ENS_7svectorImLm4ESaImELb1EEENS_22xtensor_expression_tagEEERKNS2_INS0_10multipliesEJNS_7xscalarIdEESF_EEEEE15broadcast_shapeISB_EEbRT_bEUlbOSO_E_bJSF_SL_EEENSt9enable_ifIXeqT_sZT2_ET1_E4typeEOT0_SU_RKSt5tupleIJDpT2_EE
FN:210,_ZN2xt6detail15accumulate_implILm2ERZNKS_9xfunctionINS0_10multipliesEJNS_7xscalarIdEERKNS_16xarray_containerINS_7uvectorIdSaIdEEELNS_11layout_typeE1ENS_7svectorImLm4ESaImELb1EEENS_22xtensor_expression_tagEEEEE15broadcast_shapeISD_EEbRT_bEUlbOSK_E_bJS5_SH_EEENSt9enable_ifIXeqT_sZT2_ET1_E4typeEOT0_SQ_RKSt5tupleIJDpT2_EE
FNDA:0,_ZN2xt6detail15accumulate_implILm2ERZNKS_9xfunctionINS0_10multipliesEJNS_7xscalarIdEERKNS_16xarray_containerINS_7uvectorIdSaIdEEELNS_11layout_typeE1ENS_7svectorImLm4ESaImELb1EEENS_22xtensor_expression_tagEEEEE15broadcast_shapeISD_EEbRT_bEUlbOSK_E_bJS5_SH_EEENSt9enable_ifIXeqT_sZT2_ET1_E4typeEOT0_SQ_RKSt5tupleIJDpT2_EE
FN:217,_ZN2xt6detail15accumulate_implILm0ERZNKS_9xfunctionINS0_5minusEJRKNS_16xarray_containerINS_7uvectorIdSaIdEEELNS_11layout_typeE1ENS_7svectorImLm4ESaImELb1EEENS_22xtensor_expression_tagEEERKNS2_INS0_10multipliesEJNS_7xscalarIdEESF_EEEEE15broadcast_shapeISB_EEbRT_bEUlbOSO_E_bJSF_SL_EEENSt9enable_ifIXltT_sZT2_ET1_E4typeEOT0_SU_RKSt5tupleIJDpT2_EE
FNDA:0,_ZN2xt6detail15accumulate_implILm0ERZNKS_9xfunctionINS0_5minusEJRKNS_16xarray_containerINS_7uvectorIdSaIdEEELNS_11layout_typeE1ENS_7svectorImLm4ESaImELb1EEENS_22xtensor_expression_tagEEERKNS2_INS0_10multipliesEJNS_7xscalarIdEESF_EEEEE15broadcast_shapeISB_EEbRT_bEUlbOSO_E_bJSF_SL_EEENSt9enable_ifIXltT_sZT2_ET1_E4typeEOT0_SU_RKSt5tupleIJDpT2_EE
FN:217,_ZN2xt6detail15accumulate_implILm0EZNKS_9xfunctionINS0_5minusEJRKNS_16xarray_containerINS_7uvectorIdSaIdEEELNS_11layout_typeE1ENS_7svectorImLm4ESaImELb1EEENS_22xtensor_expression_tagEEERKNS2_INS0_10multipliesEJNS_7xscalarIdEESF_EEEEE13is_contiguousEvEUlbRKT_E_bJSF_SL_EEENSt9enable_ifIXltT_sZT2_ET1_E4typeEOT0_SS_RKSt5tupleIJDpT2_EE
FNDA:0,_ZN2xt6detail15accumulate_implILm0EZNKS_9xfunctionINS0_5minusEJRKNS_16xarray_containerINS_7uvectorIdSaIdEEELNS_11layout_typeE1ENS_7svectorImLm4ESaImELb1EEENS_22xtensor_expression_tagEEERKNS2_INS0_10multipliesEJNS_7xscalarIdEESF_EEEEE13is_contiguousEvEUlbRKT_E_bJSF_SL_EEENSt9enable_ifIXltT_sZT2_ET1_E4typeEOT0_SS_RKSt5tupleIJDpT2_EE
FN:217,_ZN2xt6detail15accumulate_implILm0ERZNKS_9xfunctionINS0_5minusEJRKNS_16xarray_containerINS_7uvectorIdSaIdEEELNS_11layout_typeE1ENS_7svectorImLm4ESaImELb1EEENS_22xtensor_expression_tagEEERKNS2_INS0_10multipliesEJNS_7xscalarIdEESF_EEEEE17has_linear_assignINS9_IlLm4ESaIlELb1EEEEEbRKT_EUlbOSQ_E_bJSF_SL_EEENSt9enable_ifIXltT_sZT2_ET1_E4typeEOT0_SX_RKSt5tupleIJDpT2_EE
FNDA:0,_ZN2xt6detail15accumulate_implILm0ERZNKS_9xfunctionINS0_5minusEJRKNS_16xarray_containerINS_7uvectorIdSaIdEEELNS_11layout_typeE1ENS_7svectorImLm4ESaImELb1EEENS_22xtensor_expression_tagEEERKNS2_INS0_10multipliesEJNS_7xscalarIdEESF_EEEEE17has_linear_assignINS9_IlLm4ESaIlELb1EEEEEbRKT_EUlbOSQ_E_bJSF_SL_EEENSt9enable_ifIXltT_sZT2_ET1_E4typeEOT0_SX_RKSt5tupleIJDpT2_EE
FN:217,_ZN2xt6detail15accumulate_implILm1ERZNKS_9xfunctionINS0_5minusEJRKNS_16xarray_containerINS_7uvectorIdSaIdEEELNS_11layout_typeE1ENS_7svectorImLm4ESaImELb1EEENS_22xtensor_expression_tagEEERKNS2_INS0_10multipliesEJNS_7xscalarIdEESF_EEEEE15broadcast_shapeISB_EEbRT_bEUlbOSO_E_bJSF_SL_EEENSt9enable_ifIXltT_sZT2_ET1_E4typeEOT0_SU_RKSt5tupleIJDpT2_EE
FNDA:0,_ZN2xt6detail15accumulate_implILm1ERZNKS_9xfunctionINS0_5minusEJRKNS_16xarray_containerINS_7uvectorIdSaIdEEELNS_11layout_typeE1ENS_7svectorImLm4ESaImELb1EEENS_22xtensor_expression_tagEEERKNS2_INS0_10multipliesEJNS_7xscalarIdEESF_EEEEE15broadcast_shapeISB_EEbRT_bEUlbOSO_E_bJSF_SL_EEENSt9enable_ifIXltT_sZT2_ET1_E4typeEOT0_SU_RKSt5tupleIJDpT2_EE
FN:217,_ZN2xt6detail15accumulate_implILm1ERZNKS_9xfunctionINS0_10multipliesEJNS_7xscalarIdEERKNS_16xarray_containerINS_7uvectorIdSaIdEEELNS_11layout_typeE1ENS_7svectorImLm4ESaImELb1EEENS_22xtensor_expression_tagEEEEE17compute_dimensionEvEUlmOT_E_mJS5_SH_EEENSt9enable_ifIXltT_sZT2_ET1_E4typeEOT0_SO_RKSt5tupleIJDpT2_EE
FNDA:0,_ZN2xt6detail15accumulate_implILm1ERZNKS_9xfunctionINS0_10multipliesEJNS_7xscalarIdEERKNS_16xarray_containerINS_7uvectorIdSaIdEEELNS_11layout_typeE1ENS_7svectorImLm4ESaImELb1EEENS_22xtensor_expression_tagEEEEE17compute_dimensionEvEUlmOT_E_mJS5_SH_EEENSt9enable_ifIXltT_sZT2_ET1_E4typeEOT0_SO_RKSt5tupleIJDpT2_EE
FN:217,_ZN2xt6detail15accumulate_implILm1ERZNKS_9xfunctionINS0_10multipliesEJNS_7xscalarIdEERKNS_16xarray_containerINS_7uvectorIdSaIdEEELNS_11layout_typeE1ENS_7svectorImLm4ESaImELb1EEENS_22xtensor_expression_tagEEEEE15broadcast_shapeISD_EEbRT_bEUlbOSK_E_bJS5_SH_EEENSt9enable_ifIXltT_sZT2_ET1_E4typeEOT0_SQ_RKSt5tupleIJDpT2_EE
FNDA:0,_ZN2xt6detail15accumulate_implILm1ERZNKS_9xfunctionINS0_10multipliesEJNS_7xscalarIdEERKNS_16xarray_containerINS_7uvectorIdSaIdEEELNS_11layout_typeE1ENS_7svectorImLm4ESaImELb1EEENS_22xtensor_expression_tagEEEEE15broadcast_shapeISD_EEbRT_bEUlbOSK_E_bJS5_SH_EEENSt9enable_ifIXltT_sZT2_ET1_E4typeEOT0_SQ_RKSt5tupleIJDpT2_EE
FN:217,_ZN2xt6detail15accumulate_implILm0ERZNKS_9xfunctionINS0_10multipliesEJNS_7xscalarIdEERKNS_16xarray_containerINS_7uvectorIdSaIdEEELNS_11layout_typeE1ENS_7svectorImLm4ESaImELb1EEENS_22xtensor_expression_tagEEEEE17compute_dimensionEvEUlmOT_E_mJS5_SH_EEENSt9enable_ifIXltT_sZT2_ET1_E4typeEOT0_SO_RKSt5tupleIJDpT2_EE
FNDA:0,_ZN2xt6detail15accumulate_implILm0ERZNKS_9xfunctionINS0_10multipliesEJNS_7xscalarIdEERKNS_16xarray_containerINS_7uvectorIdSaIdEEELNS_11layout_typeE1ENS_7svectorImLm4ESaImELb1EEENS_22xtensor_expression_tagEEEEE17compute_dimensionEvEUlmOT_E_mJS5_SH_EEENSt9enable_ifIXltT_sZT2_ET1_E4typeEOT0_SO_RKSt5tupleIJDpT2_EE
FN:217,_ZN2xt6detail15accumulate_implILm1ERZNKS_9xfunctionINS0_5minusEJRKNS_16xarray_containerINS_7uvectorIdSaIdEEELNS_11layout_typeE1ENS_7svectorImLm4ESaImELb1EEENS_22xtensor_expression_tagEEERKNS2_INS0_10multipliesEJNS_7xscalarIdEESF_EEEEE17compute_dimensionEvEUlmOT_E_mJSF_SL_EEENSt9enable_ifIXltT_sZT2_ET1_E4typeEOT0_SS_RKSt5tupleIJDpT2_EE
FNDA:0,_ZN2xt6detail15accumulate_implILm1ERZNKS_9xfunctionINS0_5minusEJRKNS_16xarray_containerINS_7uvectorIdSaIdEEELNS_11layout_typeE1ENS_7svectorImLm4ESaImELb1EEENS_22xtensor_expression_tagEEERKNS2_INS0_10multipliesEJNS_7xscalarIdEESF_EEEEE17compute_dimensionEvEUlmOT_E_mJSF_SL_EEENSt9enable_ifIXltT_sZT2_ET1_E4typeEOT0_SS_RKSt5tupleIJDpT2_EE
FN:217,_ZN2xt6detail15accumulate_implILm0ERZNKS_9xfunctionINS0_5minusEJRKNS_16xarray_containerINS_7uvectorIdSaIdEEELNS_11layout_typeE1ENS_7svectorImLm4ESaImELb1EEENS_22xtensor_expression_tagEEERKNS2_INS0_10multipliesEJNS_7xscalarIdEESF_EEEEE17compute_dimensionEvEUlmOT_E_mJSF_SL_EEENSt9enable_ifIXltT_sZT2_ET1_E4typeEOT0_SS_RKSt5tupleIJDpT2_EE
FNDA:0,_ZN2xt6detail15accumulate_implILm0ERZNKS_9xfunctionINS0_5minusEJRKNS_16xarray_containerINS_7uvectorIdSaIdEEELNS_11layout_typeE1ENS_7svectorImLm4ESaImELb1EEENS_22xtensor_expression_tagEEERKNS2_INS0_10multipliesEJNS_7xscalarIdEESF_EEEEE17compute_dimensionEvEUlmOT_E_mJSF_SL_EEENSt9enable_ifIXltT_sZT2_ET1_E4typeEOT0_SS_RKSt5tupleIJDpT2_EE
FN:217,_ZN2xt6detail15accumulate_implILm1ERZNKS_9xfunctionINS0_5minusEJRKNS_16xarray_containerINS_7uvectorIdSaIdEEELNS_11layout_typeE1ENS_7svectorImLm4ESaImELb1EEENS_22xtensor_expression_tagEEERKNS2_INS0_10multipliesEJNS_7xscalarIdEESF_EEEEE17has_linear_assignINS9_IlLm4ESaIlELb1EEEEEbRKT_EUlbOSQ_E_bJSF_SL_EEENSt9enable_ifIXltT_sZT2_ET1_E4typeEOT0_SX_RKSt5tupleIJDpT2_EE
FNDA:0,_ZN2xt6detail15accumulate_implILm1ERZNKS_9xfunctionINS0_5minusEJRKNS_16xarray_containerINS_7uvectorIdSaIdEEELNS_11layout_typeE1ENS_7svectorImLm4ESaImELb1EEENS_22xtensor_expression_tagEEERKNS2_INS0_10multipliesEJNS_7xscalarIdEESF_EEEEE17has_linear_assignINS9_IlLm4ESaIlELb1EEEEEbRKT_EUlbOSQ_E_bJSF_SL_EEENSt9enable_ifIXltT_sZT2_ET1_E4typeEOT0_SX_RKSt5tupleIJDpT2_EE
FN:217,_ZN2xt6detail15accumulate_implILm1EZNKS_9xfunctionINS0_5minusEJRKNS_16xarray_containerINS_7uvectorIdSaIdEEELNS_11layout_typeE1ENS_7svectorImLm4ESaImELb1EEENS_22xtensor_expression_tagEEERKNS2_INS0_10multipliesEJNS_7xscalarIdEESF_EEEEE13is_contiguousEvEUlbRKT_E_bJSF_SL_EEENSt9enable_ifIXltT_sZT2_ET1_E4typeEOT0_SS_RKSt5tupleIJDpT2_EE
FNDA:0,_ZN2xt6detail15accumulate_implILm1EZNKS_9xfunctionINS0_5minusEJRKNS_16xarray_containerINS_7uvectorIdSaIdEEELNS_11layout_typeE1ENS_7svectorImLm4ESaImELb1EEENS_22xtensor_expression_tagEEERKNS2_INS0_10multipliesEJNS_7xscalarIdEESF_EEEEE13is_contiguousEvEUlbRKT_E_bJSF_SL_EEENSt9enable_ifIXltT_sZT2_ET1_E4typeEOT0_SS_RKSt5tupleIJDpT2_EE
FN:217,_ZN2xt6detail15accumulate_implILm1EZNKS_9xfunctionINS0_10multipliesEJNS_7xscalarIdEERKNS_16xarray_containerINS_7uvectorIdSaIdEEELNS_11layout_typeE1ENS_7svectorImLm4ESaImELb1EEENS_22xtensor_expression_tagEEEEE13is_contiguousEvEUlbRKT_E_bJS5_SH_EEENSt9enable_ifIXltT_sZT2_ET1_E4typeEOT0_SO_RKSt5tupleIJDpT2_EE
FNDA:0,_ZN2xt6detail15accumulate_implILm1EZNKS_9xfunctionINS0_10multipliesEJNS_7xscalarIdEERKNS_16xarray_containerINS_7uvectorIdSaIdEEELNS_11layout_typeE1ENS_7svectorImLm4ESaImELb1EEENS_22xtensor_expression_tagEEEEE13is_contiguousEvEUlbRKT_E_bJS5_SH_EEENSt9enable_ifIXltT_sZT2_ET1_E4typeEOT0_SO_RKSt5tupleIJDpT2_EE
FN:217,_ZN2xt6detail15accumulate_implILm1ERZNKS_9xfunctionINS0_10multipliesEJNS_7xscalarIdEERKNS_16xarray_containerINS_7uvectorIdSaIdEEELNS_11layout_typeE1ENS_7svectorImLm4ESaImELb1EEENS_22xtensor_expression_tagEEEEE17has_linear_assignINSB_IlLm4ESaIlELb1EEEEEbRKT_EUlbOSM_E_bJS5_SH_EEENSt9enable_ifIXltT_sZT2_ET1_E4typeEOT0_ST_RKSt5tupleIJDpT2_EE
FNDA:0,_ZN2xt6detail15accumulate_implILm1ERZNKS_9xfunctionINS0_10multipliesEJNS_7xscalarIdEERKNS_16xarray_containerINS_7uvectorIdSaIdEEELNS_11layout_typeE1ENS_7svectorImLm4ESaImELb1EEENS_22xtensor_expression_tagEEEEE17has_linear_assignINSB_IlLm4ESaIlELb1EEEEEbRKT_EUlbOSM_E_bJS5_SH_EEENSt9enable_ifIXltT_sZT2_ET1_E4typeEOT0_ST_RKSt5tupleIJDpT2_EE
FN:217,_ZN2xt6detail15accumulate_implILm0ERZNKS_9xfunctionINS0_10multipliesEJNS_7xscalarIdEERKNS_16xarray_containerINS_7uvectorIdSaIdEEELNS_11layout_typeE1ENS_7svectorImLm4ESaImELb1EEENS_22xtensor_expression_tagEEEEE17has_linear_assignINSB_IlLm4ESaIlELb1EEEEEbRKT_EUlbOSM_E_bJS5_SH_EEENSt9enable_ifIXltT_sZT2_ET1_E4typeEOT0_ST_RKSt5tupleIJDpT2_EE
FNDA:0,_ZN2xt6detail15accumulate_implILm0ERZNKS_9xfunctionINS0_10multipliesEJNS_7xscalarIdEERKNS_16xarray_containerINS_7uvectorIdSaIdEEELNS_11layout_typeE1ENS_7svectorImLm4ESaImELb1EEENS_22xtensor_expression_tagEEEEE17has_linear_assignINSB_IlLm4ESaIlELb1EEEEEbRKT_EUlbOSM_E_bJS5_SH_EEENSt9enable_ifIXltT_sZT2_ET1_E4typeEOT0_ST_RKSt5tupleIJDpT2_EE
FN:217,_ZN2xt6detail15accumulate_implILm0ERZNKS_9xfunctionINS0_10multipliesEJNS_7xscalarIdEERKNS_16xarray_containerINS_7uvectorIdSaIdEEELNS_11layout_typeE1ENS_7svectorImLm4ESaImELb1EEENS_22xtensor_expression_tagEEEEE15broadcast_shapeISD_EEbRT_bEUlbOSK_E_bJS5_SH_EEENSt9enable_ifIXltT_sZT2_ET1_E4typeEOT0_SQ_RKSt5tupleIJDpT2_EE
FNDA:0,_ZN2xt6detail15accumulate_implILm0ERZNKS_9xfunctionINS0_10multipliesEJNS_7xscalarIdEERKNS_16xarray_containerINS_7uvectorIdSaIdEEELNS_11layout_typeE1ENS_7svectorImLm4ESaImELb1EEENS_22xtensor_expression_tagEEEEE15broadcast_shapeISD_EEbRT_bEUlbOSK_E_bJS5_SH_EEENSt9enable_ifIXltT_sZT2_ET1_E4typeEOT0_SQ_RKSt5tupleIJDpT2_EE
FN:217,_ZN2xt6detail15accumulate_implILm0EZNKS_9xfunctionINS0_10multipliesEJNS_7xscalarIdEERKNS_16xarray_containerINS_7uvectorIdSaIdEEELNS_11layout_typeE1ENS_7svectorImLm4ESaImELb1EEENS_22xtensor_expression_tagEEEEE13is_contiguousEvEUlbRKT_E_bJS5_SH_EEENSt9enable_ifIXltT_sZT2_ET1_E4typeEOT0_SO_RKSt5tupleIJDpT2_EE
FNDA:0,_ZN2xt6detail15accumulate_implILm0EZNKS_9xfunctionINS0_10multipliesEJNS_7xscalarIdEERKNS_16xarray_containerINS_7uvectorIdSaIdEEELNS_11layout_typeE1ENS_7svectorImLm4ESaImELb1EEENS_22xtensor_expression_tagEEEEE13is_contiguousEvEUlbRKT_E_bJS5_SH_EEENSt9enable_ifIXltT_sZT2_ET1_E4typeEOT0_SO_RKSt5tupleIJDpT2_EE
FN:226,_ZN2xt10accumulateIRZNKS_9xfunctionINS_6detail10multipliesEJNS_7xscalarIdEERKNS_16xarray_containerINS_7uvectorIdSaIdEEELNS_11layout_typeE1ENS_7svectorImLm4ESaImELb1EEENS_22xtensor_expression_tagEEEEE17compute_dimensionEvEUlmOT_E_mJS5_SH_EEET0_SK_SN_RKSt5tupleIJDpT1_EE
FNDA:0,_ZN2xt10accumulateIRZNKS_9xfunctionINS_6detail10multipliesEJNS_7xscalarIdEERKNS_16xarray_containerINS_7uvectorIdSaIdEEELNS_11layout_typeE1ENS_7svectorImLm4ESaImELb1EEENS_22xtensor_expression_tagEEEEE17compute_dimensionEvEUlmOT_E_mJS5_SH_EEET0_SK_SN_RKSt5tupleIJDpT1_EE
FN:226,_ZN2xt10accumulateIRZNKS_9xfunctionINS_6detail5minusEJRKNS_16xarray_containerINS_7uvectorIdSaIdEEELNS_11layout_typeE1ENS_7svectorImLm4ESaImELb1EEENS_22xtensor_expression_tagEEERKNS1_INS2_10multipliesEJNS_7xscalarIdEESF_EEEEE17compute_dimensionEvEUlmOT_E_mJSF_SL_EEET0_SO_SR_RKSt5tupleIJDpT1_EE
FNDA:0,_ZN2xt10accumulateIRZNKS_9xfunctionINS_6detail5minusEJRKNS_16xarray_containerINS_7uvectorIdSaIdEEELNS_11layout_typeE1ENS_7svectorImLm4ESaImELb1EEENS_22xtensor_expression_tagEEERKNS1_INS2_10multipliesEJNS_7xscalarIdEESF_EEEEE17compute_dimensionEvEUlmOT_E_mJSF_SL_EEET0_SO_SR_RKSt5tupleIJDpT1_EE
FN:226,_ZN2xt10accumulateIZNKS_9xfunctionINS_6detail10multipliesEJNS_7xscalarIdEERKNS_16xarray_containerINS_7uvectorIdSaIdEEELNS_11layout_typeE1ENS_7svectorImLm4ESaImELb1EEENS_22xtensor_expression_tagEEEEE13is_contiguousEvEUlbRKT_E_bJS5_SH_EEET0_OSJ_SN_RKSt5tupleIJDpT1_EE
FNDA:0,_ZN2xt10accumulateIZNKS_9xfunctionINS_6detail10multipliesEJNS_7xscalarIdEERKNS_16xarray_containerINS_7uvectorIdSaIdEEELNS_11layout_typeE1ENS_7svectorImLm4ESaImELb1EEENS_22xtensor_expression_tagEEEEE13is_contiguousEvEUlbRKT_E_bJS5_SH_EEET0_OSJ_SN_RKSt5tupleIJDpT1_EE
FN:226,_ZN2xt10accumulateIRZNKS_9xfunctionINS_6detail10multipliesEJNS_7xscalarIdEERKNS_16xarray_containerINS_7uvectorIdSaIdEEELNS_11layout_typeE1ENS_7svectorImLm4ESaImELb1EEENS_22xtensor_expression_tagEEEEE15broadcast_shapeISD_EEbRT_bEUlbOSK_E_bJS5_SH_EEET0_SM_SP_RKSt5tupleIJDpT1_EE
FNDA:0,_ZN2xt10accumulateIRZNKS_9xfunctionINS_6detail10multipliesEJNS_7xscalarIdEERKNS_16xarray_containerINS_7uvectorIdSaIdEEELNS_11layout_typeE1ENS_7svectorImLm4ESaImELb1EEENS_22xtensor_expression_tagEEEEE15broadcast_shapeISD_EEbRT_bEUlbOSK_E_bJS5_SH_EEET0_SM_SP_RKSt5tupleIJDpT1_EE
FN:226,_ZN2xt10accumulateIRZNKS_9xfunctionINS_6detail5minusEJRKNS_16xarray_containerINS_7uvectorIdSaIdEEELNS_11layout_typeE1ENS_7svectorImLm4ESaImELb1EEENS_22xtensor_expression_tagEEERKNS1_INS2_10multipliesEJNS_7xscalarIdEESF_EEEEE15broadcast_shapeISB_EEbRT_bEUlbOSO_E_bJSF_SL_EEET0_SQ_ST_RKSt5tupleIJDpT1_EE
FNDA:0,_ZN2xt10accumulateIRZNKS_9xfunctionINS_6detail5minusEJRKNS_16xarray_containerINS_7uvectorIdSaIdEEELNS_11layout_typeE1ENS_7svectorImLm4ESaImELb1EEENS_22xtensor_expression_tagEEERKNS1_INS2_10multipliesEJNS_7xscalarIdEESF_EEEEE15broadcast_shapeISB_EEbRT_bEUlbOSO_E_bJSF_SL_EEET0_SQ_ST_RKSt5tupleIJDpT1_EE
FN:226,_ZN2xt10accumulateIRZNKS_9xfunctionINS_6detail10multipliesEJNS_7xscalarIdEERKNS_16xarray_containerINS_7uvectorIdSaIdEEELNS_11layout_typeE1ENS_7svectorImLm4ESaImELb1EEENS_22xtensor_expression_tagEEEEE17has_linear_assignINSB_IlLm4ESaIlELb1EEEEEbRKT_EUlbOSM_E_bJS5_SH_EEET0_SP_SS_RKSt5tupleIJDpT1_EE
FNDA:0,_ZN2xt10accumulateIRZNKS_9xfunctionINS_6detail10multipliesEJNS_7xscalarIdEERKNS_16xarray_containerINS_7uvectorIdSaIdEEELNS_11layout_typeE1ENS_7svectorImLm4ESaImELb1EEENS_22xtensor_expression_tagEEEEE17has_linear_assignINSB_IlLm4ESaIlELb1EEEEEbRKT_EUlbOSM_E_bJS5_SH_EEET0_SP_SS_RKSt5tupleIJDpT1_EE
FN:226,_ZN2xt10accumulateIRZNKS_9xfunctionINS_6detail5minusEJRKNS_16xarray_containerINS_7uvectorIdSaIdEEELNS_11layout_typeE1ENS_7svectorImLm4ESaImELb1EEENS_22xtensor_expression_tagEEERKNS1_INS2_10multipliesEJNS_7xscalarIdEESF_EEEEE17has_linear_assignINS9_IlLm4ESaIlELb1EEEEEbRKT_EUlbOSQ_E_bJSF_SL_EEET0_ST_SW_RKSt5tupleIJDpT1_EE
FNDA:0,_ZN2xt10accumulateIRZNKS_9xfunctionINS_6detail5minusEJRKNS_16xarray_containerINS_7uvectorIdSaIdEEELNS_11layout_typeE1ENS_7svectorImLm4ESaImELb1EEENS_22xtensor_expression_tagEEERKNS1_INS2_10multipliesEJNS_7xscalarIdEESF_EEEEE17has_linear_assignINS9_IlLm4ESaIlELb1EEEEEbRKT_EUlbOSQ_E_bJSF_SL_EEET0_ST_SW_RKSt5tupleIJDpT1_EE
FN:226,_ZN2xt10accumulateIZNKS_9xfunctionINS_6detail5minusEJRKNS_16xarray_containerINS_7uvectorIdSaIdEEELNS_11layout_typeE1ENS_7svectorImLm4ESaImELb1EEENS_22xtensor_expression_tagEEERKNS1_INS2_10multipliesEJNS_7xscalarIdEESF_EEEEE13is_contiguousEvEUlbRKT_E_bJSF_SL_EEET0_OSN_SR_RKSt5tupleIJDpT1_EE
FNDA:0,_ZN2xt10accumulateIZNKS_9xfunctionINS_6detail5minusEJRKNS_16xarray_containerINS_7uvectorIdSaIdEEELNS_11layout_typeE1ENS_7svectorImLm4ESaImELb1EEENS_22xtensor_expression_tagEEERKNS1_INS2_10multipliesEJNS_7xscalarIdEESF_EEEEE13is_contiguousEvEUlbRKT_E_bJSF_SL_EEET0_OSN_SR_RKSt5tupleIJDpT1_EE
FN:338,_ZN2xt16resize_containerINS_7svectorIlLm4ESaIlELb1EEEEEbRT_NS4_9size_typeE
FNDA:0,_ZN2xt16resize_containerINS_7svectorIlLm4ESaIlELb1EEEEEbRT_NS4_9size_typeE
FN:338,_ZN2xt16resize_containerINS_7uvectorIdSaIdEEEEEbRT_NS4_9size_typeE
FNDA:0,_ZN2xt16resize_containerINS_7uvectorIdSaIdEEEEEbRT_NS4_9size_typeE
FN:695,_ZNK2xt24conditional_cast_functorILb1EdEclIbEEDaOT_
FNDA:0,_ZNK2xt24conditional_cast_functorILb1EdEclIbEEDaOT_
FN:710,_ZN2xt16conditional_castILb1EdbEEDaOT1_
FNDA:0,_ZN2xt16conditional_castILb1EdbEEDaOT1_
FN:710,_ZN2xt16conditional_castILb0EddEEDaOT1_
FNDA:0,_ZN2xt16conditional_castILb0EddEEDaOT1_
DA:154,0
DA:156,0
DA:154,0
DA:156,0
DA:154,0
DA:156,0
DA:154,0
DA:156,0
DA:154,0
DA:156,0
DA:154,0
DA:156,0
DA:154,0
DA:156,0
DA:154,0
DA:156,0
DA:160,0
DA:163,0
DA:164,0
DA:165,0
DA:160,0
DA:163,0
DA:164,0
DA:165,0
DA:160,0
DA:163,0
DA:164,0
DA:165,0
DA:160,0
DA:163,0
DA:164,0
DA:165,0
DA:160,0
DA:163,0
DA:164,0
DA:165,0
DA:160,0
DA:163,0
DA:164,0
DA:165,0
DA:160,0
DA:163,0
DA:164,0
DA:165,0
DA:160,0
DA:163,0
DA:164,0
DA:165,0
DA:160,0
DA:163,0
DA:164,0
DA:165,0
DA:160,0
DA:163,0
DA:164,0
DA:165,0
DA:160,0
DA:163,0
DA:164,0
DA:165,0
DA:160,0
DA:163,0
DA:164,0
DA:165,0
DA:160,0
DA:163,0
DA:164,0
DA:165,0
DA:160,0
DA:163,0
DA:164,0
DA:165,0
DA:160,0
DA:163,0
DA:164,0
DA:165,0
DA:160,0
DA:163,0
DA:164,0
DA:165,0
DA:169,0
DA:172,0
DA:173,0
DA:169,0
DA:172,0
DA:173,0
DA:169,0
DA:172,0
DA:173,0
DA:169,0
DA:172,0
DA:173,0
DA:169,0
DA:172,0
DA:173,0
DA:169,0
DA:172,0
DA:173,0
DA:169,0
DA:172,0
DA:173,0
DA:169,0
DA:172,0
DA:173,0
DA:210,0
DA:212,0
DA:210,0
DA:212,0
DA:210,0
DA:212,0
DA:210,0
DA:212,0
DA:210,0
DA:212,0
DA:210,0
DA:212,0
DA:210,0
DA:212,0
DA:210,0
DA:212,0
DA:217,0
DA:220,0
DA:221,0
DA:217,0
DA:220,0
DA:221,0
DA:217,0
DA:220,0
DA:221,0
DA:217,0
DA:220,0
DA:221,0
DA:217,0
DA:220,0
DA:221,0
DA:217,0
DA:220,0
DA:221,0
DA:217,0
DA:220,0
DA:221,0
DA:217,0
DA:220,0
DA:221,0
DA:217,0
DA:220,0
DA:221,0
DA:217,0
DA:220,0
DA:221,0
DA:217,0
DA:220,0
DA:221,0
DA:217,0
DA:220,0
DA:221,0
DA:217,0
DA:220,0
DA:221,0
DA:217,0
DA:220,0
DA:221,0
DA:217,0
DA:220,0
DA:221,0
DA:217,0
DA:220,0
DA:221,0
DA:226,0
DA:229,0
DA:226,0
DA:229,0
DA:226,0
DA:229,0
DA:226,0
DA:229,0
DA:226,0
DA:229,0
DA:226,0
DA:229,0
DA:226,0
DA:229,0
DA:226,0
DA:229,0
DA:338,0
DA:340,0
DA:341,0
DA:338,0
DA:340,0
DA:341,0
DA:695,0
DA:697,0
DA:710,0
DA:712,0
DA:710,0
DA:712,0
end_of_record
SF:/usr/include/c++/11/bits/stl_iterator_base_funcs.h
FN:98,_ZSt10__distanceIPKcENSt15iterator_traitsIT_E15difference_typeES3_S3_St26random_access_iterator_tag
FNDA:0,_ZSt10__distanceIPKcENSt15iterator_traitsIT_E15difference_typeES3_S3_St26random_access_iterator_tag
FN:98,_ZSt10__distanceIPKmENSt15iterator_traitsIT_E15difference_typeES3_S3_St26random_access_iterator_tag
FNDA:0,_ZSt10__distanceIPKmENSt15iterator_traitsIT_E15difference_typeES3_S3_St26random_access_iterator_tag
FN:138,_ZSt8distanceIPKcENSt15iterator_traitsIT_E15difference_typeES3_S3_
FNDA:0,_ZSt8distanceIPKcENSt15iterator_traitsIT_E15difference_typeES3_S3_
FN:138,_ZSt8distanceIPKmENSt15iterator_traitsIT_E15difference_typeES3_S3_
FNDA:0,_ZSt8distanceIPKmENSt15iterator_traitsIT_E15difference_typeES3_S3_
DA:98,0
DA:104,0
DA:98,0
DA:104,0
DA:138,0
DA:141,0
DA:142,0
DA:138,0
DA:141,0
DA:142,0
end_of_record
SF:/usr/include/c++/11/bits/basic_string.h
FN:156,_ZNSt7__cxx1112basic_stringIcSt11char_traitsIcESaIcEE12_Alloc_hiderC2EPcRKS3_
FNDA:0,_ZNSt7__cxx1112basic_stringIcSt11char_traitsIcESaIcEE12_Alloc_hiderC2EPcRKS3_
FN:178,_ZNSt7__cxx1112basic_stringIcSt11char_traitsIcESaIcEE7_M_dataEPc
FNDA:0,_ZNSt7__cxx1112basic_stringIcSt11char_traitsIcESaIcEE7_M_dataEPc
FN:182,_ZNSt7__cxx1112basic_stringIcSt11char_traitsIcESaIcEE9_M_lengthEm
FNDA:0,_ZNSt7__cxx1112basic_stringIcSt11char_traitsIcESaIcEE9_M_lengthEm
FN:186,_ZNKSt7__cxx1112basic_stringIcSt11char_traitsIcESaIcEE7_M_dataEv
FNDA:0,_ZNKSt7__cxx1112basic_stringIcSt11char_traitsIcESaIcEE7_M_dataEv
FN:190,_ZNSt7__cxx1112basic_stringIcSt11char_traitsIcESaIcEE13_M_local_dataEv
FNDA:0,_ZNSt7__cxx1112basic_stringIcSt11char_traitsIcESaIcEE13_M_local_dataEv
FN:200,_ZNKSt7__cxx1112basic_stringIcSt11char_traitsIcESaIcEE13_M_local_dataEv
FNDA:0,_ZNKSt7__cxx1112basic_stringIcSt11char_traitsIcESaIcEE13_M_local_dataEv
FN:210,_ZNSt7__cxx1112basic_stringIcSt11char_traitsIcESaIcEE11_M_capacityEm
FNDA:0,_ZNSt7__cxx1112basic_stringIcSt11char_traitsIcESaIcEE11_M_capacityEm
FN:214,_ZNSt7__cxx1112basic_stringIcSt11char_traitsIcESaIcEE13_M_set_lengthEm
FNDA:0,_ZNSt7__cxx1112basic_stringIcSt11char_traitsIcESaIcEE13_M_set_lengthEm
FN:221,_ZNKSt7__cxx1112basic_stringIcSt11char_traitsIcESaIcEE11_M_is_localEv
FNDA:0,_ZNKSt7__cxx1112basic_stringIcSt11char_traitsIcESaIcEE11_M_is_localEv
FN:229,_ZNSt7__cxx1112basic_stringIcSt11char_traitsIcESaIcEE10_M_disposeEv
FNDA:0,_ZNSt7__cxx1112basic_stringIcSt11char_traitsIcESaIcEE10_M_disposeEv
FN:236,_ZNSt7__cxx1112basic_stringIcSt11char_traitsIcESaIcEE10_M_destroyEm
FNDA:0,_ZNSt7__cxx1112basic_stringIcSt11char_traitsIcESaIcEE10_M_destroyEm
FN:243,_ZNSt7__cxx1112basic_stringIcSt11char_traitsIcESaIcEE16_M_construct_auxIPKcEEvT_S8_St12__false_type
FNDA:0,_ZNSt7__cxx1112basic_stringIcSt11char_traitsIcESaIcEE16_M_construct_auxIPKcEEvT_S8_St12__false_type
FN:263,_ZNSt7__cxx1112basic_stringIcSt11char_traitsIcESaIcEE12_M_constructIPKcEEvT_S8_
FNDA:0,_ZNSt7__cxx1112basic_stringIcSt11char_traitsIcESaIcEE12_M_constructIPKcEEvT_S8_
FN:286,_ZNSt7__cxx1112basic_stringIcSt11char_traitsIcESaIcEE16_M_get_allocatorEv
FNDA:0,_ZNSt7__cxx1112basic_stringIcSt11char_traitsIcESaIcEE16_M_get_allocatorEv
FN:290,_ZNKSt7__cxx1112basic_stringIcSt11char_traitsIcESaIcEE16_M_get_allocatorEv
FNDA:0,_ZNKSt7__cxx1112basic_stringIcSt11char_traitsIcESaIcEE16_M_get_allocatorEv
FN:346,_ZNSt7__cxx1112basic_stringIcSt11char_traitsIcESaIcEE7_S_copyEPcPKcm
FNDA:0,_ZNSt7__cxx1112basic_stringIcSt11char_traitsIcESaIcEE7_S_copyEPcPKcm
FN:396,_ZNSt7__cxx1112basic_stringIcSt11char_traitsIcESaIcEE13_S_copy_charsEPcPKcS7_
FNDA:0,_ZNSt7__cxx1112basic_stringIcSt11char_traitsIcESaIcEE13_S_copy_charsEPcPKcS7_
FN:525,_ZNSt7__cxx1112basic_stringIcSt11char_traitsIcESaIcEEC2IS3_EEPKcRKS3_
FNDA:0,_ZNSt7__cxx1112basic_stringIcSt11char_traitsIcESaIcEEC2IS3_EEPKcRKS3_
FN:657,_ZNSt7__cxx1112basic_stringIcSt11char_traitsIcESaIcEED2Ev
FNDA:0,_ZNSt7__cxx1112basic_stringIcSt11char_traitsIcESaIcEED2Ev
FN:917,_ZNKSt7__cxx1112basic_stringIcSt11char_traitsIcESaIcEE8max_sizeEv
FNDA:0,_ZNKSt7__cxx1112basic_stringIcSt11char_traitsIcESaIcEE8max_sizeEv
FN:2306,_ZNKSt7__cxx1112basic_stringIcSt11char_traitsIcESaIcEE5c_strEv
FNDA:0,_ZNKSt7__cxx1112basic_stringIcSt11char_traitsIcESaIcEE5c_strEv
DA:156,0
DA:157,0
DA:178,0
DA:179,0
DA:182,0
DA:183,0
DA:186,0
DA:187,0
DA:190,0
DA:193,0
DA:200,0
DA:203,0
DA:210,0
DA:211,0
DA:214,0
DA:216,0
DA:217,0
DA:218,0
DA:221,0
DA:222,0
DA:229,0
DA:231,0
DA:232,0
DA:233,0
DA:236,0
DA:237,0
DA:243,0
DA:247,0
DA:248,0
DA:263,0
DA:266,0
DA:267,0
DA:286,0
DA:287,0
DA:290,0
DA:291,0
DA:346,0
DA:348,0
DA:349,0
DA:351,0
DA:352,0
DA:396,0
DA:398,0
DA:525,0
DA:526,0
DA:527,0
DA:657,0
DA:658,0
DA:917,0
DA:918,0
DA:2306,0
DA:2307,0
end_of_record
SF:/workspace/.xmake/packages/x/xtensor/0.24.3/7589bb6431db4fba90e4d138dda37226/include/xtensor/xiterable.hpp
FN:480,_ZNK2xt15xconst_iterableINS_10xgeneratorINS_6detail7fn_implINS2_6eye_fnIbEEEEbSt6vectorImSaImEEEEE6cbeginILNS_11layout_typeE1EEENS_9xiteratorINS_16xindexed_stepperISA_Lb1EEEPS9_XT_EEEv
FNDA:0,_ZNK2xt15xconst_iterableINS_10xgeneratorINS_6detail7fn_implINS2_6eye_fnIbEEEEbSt6vectorImSaImEEEEE6cbeginILNS_11layout_typeE1EEENS_9xiteratorINS_16xindexed_stepperISA_Lb1EEEPS9_XT_EEEv
FN:480,_ZNK2xt15xconst_iterableINS_10xgeneratorINS_6detail7fn_implINS2_7diag_fnIRNS_16xarray_containerINS_7uvectorIdSaIdEEELNS_11layout_typeE1ENS_7svectorImLm4ESaImELb1EEENS_22xtensor_expression_tagEEEEEEEdSt5arrayImLm2EEEEE6cbeginILS9_1EEENS_9xiteratorINS_16xindexed_stepperISK_Lb1EEEPSJ_XT_EEEv
FNDA:0,_ZNK2xt15xconst_iterableINS_10xgeneratorINS_6detail7fn_implINS2_7diag_fnIRNS_16xarray_containerINS_7uvectorIdSaIdEEELNS_11layout_typeE1ENS_7svectorImLm4ESaImELb1EEENS_22xtensor_expression_tagEEEEEEEdSt5arrayImLm2EEEEE6cbeginILS9_1EEENS_9xiteratorINS_16xindexed_stepperISK_Lb1EEEPSJ_XT_EEEv
FN:673,_ZNK2xt15xconst_iterableINS_10xgeneratorINS_6detail7fn_implINS2_6eye_fnIbEEEEbSt6vectorImSaImEEEEE10get_cbeginILNS_11layout_typeE1EEENS_9xiteratorINS_16xindexed_stepperISA_Lb1EEEPS9_XT_EEEb
FNDA:0,_ZNK2xt15xconst_iterableINS_10xgeneratorINS_6detail7fn_implINS2_6eye_fnIbEEEEbSt6vectorImSaImEEEEE10get_cbeginILNS_11layout_typeE1EEENS_9xiteratorINS_16xindexed_stepperISA_Lb1EEEPS9_XT_EEEb
FN:673,_ZNK2xt15xconst_iterableINS_10xgeneratorINS_6detail7fn_implINS2_7diag_fnIRNS_16xarray_containerINS_7uvectorIdSaIdEEELNS_11layout_typeE1ENS_7svectorImLm4ESaImELb1EEENS_22xtensor_expression_tagEEEEEEEdSt5arrayImLm2EEEEE10get_cbeginILS9_1EEENS_9xiteratorINS_16xindexed_stepperISK_Lb1EEEPSJ_XT_EEEb
FNDA:0,_ZNK2xt15xconst_iterableINS_10xgeneratorINS_6detail7fn_implINS2_7diag_fnIRNS_16xarray_containerINS_7uvectorIdSaIdEEELNS_11layout_typeE1ENS_7svectorImLm4ESaImELb1EEENS_22xtensor_expression_tagEEEEEEEdSt5arrayImLm2EEEEE10get_cbeginILS9_1EEENS_9xiteratorINS_16xindexed_stepperISK_Lb1EEEPSJ_XT_EEEb
FN:701,_ZNK2xt15xconst_iterableINS_10xgeneratorINS_6detail7fn_implINS2_6eye_fnIbEEEEbSt6vectorImSaImEEEEE17get_stepper_beginIS9_EENS_16xindexed_stepperISA_Lb1EEERKT_
FNDA:0,_ZNK2xt15xconst_iterableINS_10xgeneratorINS_6detail7fn_implINS2_6eye_fnIbEEEEbSt6vectorImSaImEEEEE17get_stepper_beginIS9_EENS_16xindexed_stepperISA_Lb1EEERKT_
FN:701,_ZNK2xt15xconst_iterableINS_10xgeneratorINS_6detail7fn_implINS2_7diag_fnIRNS_16xarray_containerINS_7uvectorIdSaIdEEELNS_11layout_typeE1ENS_7svectorImLm4ESaImELb1EEENS_22xtensor_expression_tagEEEEEEEdSt5arrayImLm2EEEEE17get_stepper_beginISJ_EENS_16xindexed_stepperISK_Lb1EEERKT_
FNDA:0,_ZNK2xt15xconst_iterableINS_10xgeneratorINS_6detail7fn_implINS2_7diag_fnIRNS_16xarray_containerINS_7uvectorIdSaIdEEELNS_11layout_typeE1ENS_7svectorImLm4ESaImELb1EEENS_22xtensor_expression_tagEEEEEEEdSt5arrayImLm2EEEEE17get_stepper_beginISJ_EENS_16xindexed_stepperISK_Lb1EEERKT_
FN:714,_ZNK2xt15xconst_iterableINS_10xgeneratorINS_6detail7fn_implINS2_6eye_fnIbEEEEbSt6vectorImSaImEEEEE9get_shapeEv
FNDA:0,_ZNK2xt15xconst_iterableINS_10xgeneratorINS_6detail7fn_implINS2_6eye_fnIbEEEEbSt6vectorImSaImEEEEE9get_shapeEv
FN:714,_ZNK2xt15xconst_iterableINS_10xgeneratorINS_6detail7fn_implINS2_7diag_fnIRNS_16xarray_containerINS_7uvectorIdSaIdEEELNS_11layout_typeE1ENS_7svectorImLm4ESaImELb1EEENS_22xtensor_expression_tagEEEEEEEdSt5arrayImLm2EEEEE9get_shapeEv
FNDA:0,_ZNK2xt15xconst_iterableINS_10xgeneratorINS_6detail7fn_implINS2_7diag_fnIRNS_16xarray_containerINS_7uvectorIdSaIdEEELNS_11layout_typeE1ENS_7svectorImLm4ESaImELb1EEENS_22xtensor_expression_tagEEEEEEEdSt5arrayImLm2EEEEE9get_shapeEv
FN:720,_ZNK2xt15xconst_iterableINS_10xgeneratorINS_6detail7fn_implINS2_6eye_fnIbEEEEbSt6vectorImSaImEEEEE12derived_castEv
FNDA:0,_ZNK2xt15xconst_iterableINS_10xgeneratorINS_6detail7fn_implINS2_6eye_fnIbEEEEbSt6vectorImSaImEEEEE12derived_castEv
FN:720,_ZNK2xt15xconst_iterableINS_10xgeneratorINS_6detail7fn_implINS2_7diag_fnIRNS_16xarray_containerINS_7uvectorIdSaIdEEELNS_11layout_typeE1ENS_7svectorImLm4ESaImELb1EEENS_22xtensor_expression_tagEEEEEEEdSt5arrayImLm2EEEEE12derived_castEv
FNDA:0,_ZNK2xt15xconst_iterableINS_10xgeneratorINS_6detail7fn_implINS2_7diag_fnIRNS_16xarray_containerINS_7uvectorIdSaIdEEELNS_11layout_typeE1ENS_7svectorImLm4ESaImELb1EEENS_22xtensor_expression_tagEEEEEEEdSt5arrayImLm2EEEEE12derived_castEv
FN:927,_ZN2xt20xcontiguous_iterableINS_16xarray_containerINS_7uvectorIdSaIdEEELNS_11layout_typeE1ENS_7svectorImLm4ESaImELb1EEENS_22xtensor_expression_tagEEEE5beginILS5_1EEENSt11conditionalIXeqT_L_ZNSB_13static_layoutEEEPdNS_9xiteratorINS_8xstepperISA_EEPS8_XT_EEEE4typeEv
FNDA:0,_ZN2xt20xcontiguous_iterableINS_16xarray_containerINS_7uvectorIdSaIdEEELNS_11layout_typeE1ENS_7svectorImLm4ESaImELb1EEENS_22xtensor_expression_tagEEEE5beginILS5_1EEENSt11conditionalIXeqT_L_ZNSB_13static_layoutEEEPdNS_9xiteratorINS_8xstepperISA_EEPS8_XT_EEEE4typeEv
FN:929,_ZZN2xt20xcontiguous_iterableINS_16xarray_containerINS_7uvectorIdSaIdEEELNS_11layout_typeE1ENS_7svectorImLm4ESaImELb1EEENS_22xtensor_expression_tagEEEE5beginILS5_1EEENSt11conditionalIXeqT_L_ZNSB_13static_layoutEEEPdNS_9xiteratorINS_8xstepperISA_EEPS8_XT_EEEE4typeEvENKUlT_E_clIN3xtl8identityEEEDaSM_
FNDA:0,_ZZN2xt20xcontiguous_iterableINS_16xarray_containerINS_7uvectorIdSaIdEEELNS_11layout_typeE1ENS_7svectorImLm4ESaImELb1EEENS_22xtensor_expression_tagEEEE5beginILS5_1EEENSt11conditionalIXeqT_L_ZNSB_13static_layoutEEEPdNS_9xiteratorINS_8xstepperISA_EEPS8_XT_EEEE4typeEvENKUlT_E_clIN3xtl8identityEEEDaSM_
FN:945,_ZN2xt20xcontiguous_iterableINS_16xarray_containerINS_7uvectorIdSaIdEEELNS_11layout_typeE1ENS_7svectorImLm4ESaImELb1EEENS_22xtensor_expression_tagEEEE3endILS5_1EEENSt11conditionalIXeqT_L_ZNSB_13static_layoutEEEPdNS_9xiteratorINS_8xstepperISA_EEPS8_XT_EEEE4typeEv
FNDA:0,_ZN2xt20xcontiguous_iterableINS_16xarray_containerINS_7uvectorIdSaIdEEELNS_11layout_typeE1ENS_7svectorImLm4ESaImELb1EEENS_22xtensor_expression_tagEEEE3endILS5_1EEENSt11conditionalIXeqT_L_ZNSB_13static_layoutEEEPdNS_9xiteratorINS_8xstepperISA_EEPS8_XT_EEEE4typeEv
FN:947,_ZZN2xt20xcontiguous_iterableINS_16xarray_containerINS_7uvectorIdSaIdEEELNS_11layout_typeE1ENS_7svectorImLm4ESaImELb1EEENS_22xtensor_expression_tagEEEE3endILS5_1EEENSt11conditionalIXeqT_L_ZNSB_13static_layoutEEEPdNS_9xiteratorINS_8xstepperISA_EEPS8_XT_EEEE4typeEvENKUlT_E_clIN3xtl8identityEEEDaSM_
FNDA:0,_ZZN2xt20xcontiguous_iterableINS_16xarray_containerINS_7uvectorIdSaIdEEELNS_11layout_typeE1ENS_7svectorImLm4ESaImELb1EEENS_22xtensor_expression_tagEEEE3endILS5_1EEENSt11conditionalIXeqT_L_ZNSB_13static_layoutEEEPdNS_9xiteratorINS_8xstepperISA_EEPS8_XT_EEEE4typeEvENKUlT_E_clIN3xtl8identityEEEDaSM_
FN:1293,_ZN2xt20xcontiguous_iterableINS_16xarray_containerINS_7uvectorIdSaIdEEELNS_11layout_typeE1ENS_7svectorImLm4ESaImELb1EEENS_22xtensor_expression_tagEEEE12derived_castEv
FNDA:0,_ZN2xt20xcontiguous_iterableINS_16xarray_containerINS_7uvectorIdSaIdEEELNS_11layout_typeE1ENS_7svectorImLm4ESaImELb1EEENS_22xtensor_expression_tagEEEE12derived_castEv
DA:480,0
DA:482,0
DA:480,0
DA:482,0
DA:673,0
DA:675,0
DA:673,0
DA:675,0
DA:701,0
DA:703,0
DA:701,0
DA:703,0
DA:714,0
DA:716,0
DA:714,0
DA:716,0
DA:720,0
DA:722,0
DA:720,0
DA:722,0
DA:927,0
DA:929,0
DA:931,0
DA:935,0
DA:945,0
DA:947,0
DA:949,0
DA:953,0
DA:1293,0
DA:1295,0
end_of_record
SF:/workspace/.xmake/packages/x/xtl/0.7.4/879889b01c084e069706381a4e7b5489/include/xtl/xmeta_utils.hpp
FN:589,_ZN3xtl3mpl9static_ifIZN2xt12linear_beginINS2_9xfunctionINS2_6detail5minusEJRKNS2_16xarray_containerINS2_7uvectorIdSaIdEEELNS2_11layout_typeE1ENS2_7svectorImLm4ESaImELb1EEENS2_22xtensor_expression_tagEEERKNS4_INS5_10multipliesEJNS2_7xscalarIdEESI_EEEEEEEEDaRKT_EUlSQ_E_ZNS3_ISP_EEDaSS_EUlSQ_E0_EEDcSt17integral_constantIbLb1EESS_RKT0_
FNDA:0,_ZN3xtl3mpl9static_ifIZN2xt12linear_beginINS2_9xfunctionINS2_6detail5minusEJRKNS2_16xarray_containerINS2_7uvectorIdSaIdEEELNS2_11layout_typeE1ENS2_7svectorImLm4ESaImELb1EEENS2_22xtensor_expression_tagEEERKNS4_INS5_10multipliesEJNS2_7xscalarIdEESI_EEEEEEEEDaRKT_EUlSQ_E_ZNS3_ISP_EEDaSS_EUlSQ_E0_EEDcSt17integral_constantIbLb1EESS_RKT0_
FN:589,_ZN3xtl3mpl9static_ifIZN2xt18assign_xexpressionINS2_16xarray_containerINS2_7uvectorIdSaIdEEELNS2_11layout_typeE1ENS2_7svectorImLm4ESaImELb1EEENS2_22xtensor_expression_tagEEENS2_10xbroadcastINS2_7xscalarIdEESt5arrayImLm1EEEEEEvRNS2_11xexpressionIT_EERKNSK_IT0_EEEUlSL_E_ZNS3_ISD_SJ_EEvSN_SR_EUlSL_E0_EEDcSt17integral_constantIbLb1EERKSL_RKSO_
FNDA:0,_ZN3xtl3mpl9static_ifIZN2xt18assign_xexpressionINS2_16xarray_containerINS2_7uvectorIdSaIdEEELNS2_11layout_typeE1ENS2_7svectorImLm4ESaImELb1EEENS2_22xtensor_expression_tagEEENS2_10xbroadcastINS2_7xscalarIdEESt5arrayImLm1EEEEEEvRNS2_11xexpressionIT_EERKNSK_IT0_EEEUlSL_E_ZNS3_ISD_SJ_EEvSN_SR_EUlSL_E0_EEDcSt17integral_constantIbLb1EERKSL_RKSO_
FN:589,_ZN3xtl3mpl9static_ifIZN2xt20xcontiguous_iterableINS2_16xarray_containerINS2_7uvectorIdSaIdEEELNS2_11layout_typeE1ENS2_7svectorImLm4ESaImELb1EEENS2_22xtensor_expression_tagEEEE5beginILS8_1EEENSt11conditionalIXeqT_L_ZNSE_13static_layoutEEEPdNS2_9xiteratorINS2_8xstepperISD_EEPSB_XT_EEEE4typeEvEUlT_E_ZNSF_ILS8_1EEESO_vEUlSP_E0_EEDcSt17integral_constantIbLb1EERKSP_RKT0_
FNDA:0,_ZN3xtl3mpl9static_ifIZN2xt20xcontiguous_iterableINS2_16xarray_containerINS2_7uvectorIdSaIdEEELNS2_11layout_typeE1ENS2_7svectorImLm4ESaImELb1EEENS2_22xtensor_expression_tagEEEE5beginILS8_1EEENSt11conditionalIXeqT_L_ZNSE_13static_layoutEEEPdNS2_9xiteratorINS2_8xstepperISD_EEPSB_XT_EEEE4typeEvEUlT_E_ZNSF_ILS8_1EEESO_vEUlSP_E0_EEDcSt17integral_constantIbLb1EERKSP_RKT0_
FN:589,_ZN3xtl3mpl9static_ifIZN2xt20xcontiguous_iterableINS2_16xarray_containerINS2_7uvectorIdSaIdEEELNS2_11layout_typeE1ENS2_7svectorImLm4ESaImELb1EEENS2_22xtensor_expression_tagEEEE3endILS8_1EEENSt11conditionalIXeqT_L_ZNSE_13static_layoutEEEPdNS2_9xiteratorINS2_8xstepperISD_EEPSB_XT_EEEE4typeEvEUlT_E_ZNSF_ILS8_1EEESO_vEUlSP_E0_EEDcSt17integral_constantIbLb1EERKSP_RKT0_
FNDA:0,_ZN3xtl3mpl9static_ifIZN2xt20xcontiguous_iterableINS2_16xarray_containerINS2_7uvectorIdSaIdEEELNS2_11layout_typeE1ENS2_7svectorImLm4ESaImELb1EEENS2_22xtensor_expression_tagEEEE3endILS8_1EEENSt11conditionalIXeqT_L_ZNSE_13static_layoutEEEPdNS2_9xiteratorINS2_8xstepperISD_EEPSB_XT_EEEE4typeEvEUlT_E_ZNSF_ILS8_1EEESO_vEUlSP_E0_EEDcSt17integral_constantIbLb1EERKSP_RKT0_
FN:589,_ZN3xtl3mpl9static_ifIZN2xt12linear_beginINS2_16xarray_containerINS2_7uvectorIdSaIdEEELNS2_11layout_typeE1ENS2_7svectorImLm4ESaImELb1EEENS2_22xtensor_expression_tagEEEEEDaRT_EUlSE_E_ZNS3_ISD_EEDaSF_EUlSE_E0_EEDcSt17integral_constantIbLb1EERKSE_RKT0_
FNDA:0,_ZN3xtl3mpl9static_ifIZN2xt12linear_beginINS2_16xarray_containerINS2_7uvectorIdSaIdEEELNS2_11layout_typeE1ENS2_7svectorImLm4ESaImELb1EEENS2_22xtensor_expression_tagEEEEEDaRT_EUlSE_E_ZNS3_ISD_EEDaSF_EUlSE_E0_EEDcSt17integral_constantIbLb1EERKSE_RKT0_
FN:589,_ZN3xtl3mpl9static_ifIZN2xt12linear_beginINS2_9xfunctionINS2_6detail10multipliesEJNS2_7xscalarIdEERKNS2_16xarray_containerINS2_7uvectorIdSaIdEEELNS2_11layout_typeE1ENS2_7svectorImLm4ESaImELb1EEENS2_22xtensor_expression_tagEEEEEEEEDaRKT_EUlSM_E_ZNS3_ISL_EEDaSO_EUlSM_E0_EEDcSt17integral_constantIbLb1EESO_RKT0_
FNDA:0,_ZN3xtl3mpl9static_ifIZN2xt12linear_beginINS2_9xfunctionINS2_6detail10multipliesEJNS2_7xscalarIdEERKNS2_16xarray_containerINS2_7uvectorIdSaIdEEELNS2_11layout_typeE1ENS2_7svectorImLm4ESaImELb1EEENS2_22xtensor_expression_tagEEEEEEEEDaRKT_EUlSM_E_ZNS3_ISL_EEDaSO_EUlSM_E0_EEDcSt17integral_constantIbLb1EESO_RKT0_
FN:589,_ZN3xtl3mpl9static_ifIZN2xt12linear_beginINS2_16xarray_containerINS2_7uvectorIdSaIdEEELNS2_11layout_typeE1ENS2_7svectorImLm4ESaImELb1EEENS2_22xtensor_expression_tagEEEEEDaRKT_EUlSE_E_ZNS3_ISD_EEDaSG_EUlSE_E0_EEDcSt17integral_constantIbLb1EESG_RKT0_
FNDA:0,_ZN3xtl3mpl9static_ifIZN2xt12linear_beginINS2_16xarray_containerINS2_7uvectorIdSaIdEEELNS2_11layout_typeE1ENS2_7svectorImLm4ESaImELb1EEENS2_22xtensor_expression_tagEEEEEDaRKT_EUlSE_E_ZNS3_ISD_EEDaSG_EUlSE_E0_EEDcSt17integral_constantIbLb1EESG_RKT0_
FN:595,_ZN3xtl3mpl9static_ifIZN2xt12linear_beginINS2_10xgeneratorINS2_6detail7fn_implINS5_7diag_fnIRNS2_16xarray_containerINS2_7uvectorIdSaIdEEELNS2_11layout_typeE1ENS2_7svectorImLm4ESaImELb1EEENS2_22xtensor_expression_tagEEEEEEEdSt5arrayImLm2EEEEEEDaRKT_EUlSO_E_ZNS3_ISN_EEDaSQ_EUlSO_E0_EEDcSt17integral_constantIbLb0EESQ_RKT0_
FNDA:0,_ZN3xtl3mpl9static_ifIZN2xt12linear_beginINS2_10xgeneratorINS2_6detail7fn_implINS5_7diag_fnIRNS2_16xarray_containerINS2_7uvectorIdSaIdEEELNS2_11layout_typeE1ENS2_7svectorImLm4ESaImELb1EEENS2_22xtensor_expression_tagEEEEEEEdSt5arrayImLm2EEEEEEDaRKT_EUlSO_E_ZNS3_ISN_EEDaSQ_EUlSO_E0_EEDcSt17integral_constantIbLb0EESQ_RKT0_
FN:595,_ZN3xtl3mpl9static_ifIZN2xt18assign_xexpressionINS2_16xarray_containerINS2_7uvectorIdSaIdEEELNS2_11layout_typeE1ENS2_7svectorImLm4ESaImELb1EEENS2_22xtensor_expression_tagEEENS2_10xgeneratorINS2_6detail7fn_implINSF_7diag_fnIRSD_EEEEdSt5arrayImLm2EEEEEEvRNS2_11xexpressionIT_EERKNSO_IT0_EEEUlSP_E_ZNS3_ISD_SN_EEvSR_SV_EUlSP_E0_EEDcSt17integral_constantIbLb0EERKSP_RKSS_
FNDA:0,_ZN3xtl3mpl9static_ifIZN2xt18assign_xexpressionINS2_16xarray_containerINS2_7uvectorIdSaIdEEELNS2_11layout_typeE1ENS2_7svectorImLm4ESaImELb1EEENS2_22xtensor_expression_tagEEENS2_10xgeneratorINS2_6detail7fn_implINSF_7diag_fnIRSD_EEEEdSt5arrayImLm2EEEEEEvRNS2_11xexpressionIT_EERKNSO_IT0_EEEUlSP_E_ZNS3_ISD_SN_EEvSR_SV_EUlSP_E0_EEDcSt17integral_constantIbLb0EERKSP_RKSS_
FN:595,_ZN3xtl3mpl9static_ifIZN2xt18assign_xexpressionINS2_16xarray_containerINS2_7uvectorIdSaIdEEELNS2_11layout_typeE1ENS2_7svectorImLm4ESaImELb1EEENS2_22xtensor_expression_tagEEENS2_10xgeneratorINS2_6detail7fn_implINSF_6eye_fnIbEEEEbSt6vectorImSA_EEEEEvRNS2_11xexpressionIT_EERKNSN_IT0_EEEUlSO_E_ZNS3_ISD_SM_EEvSQ_SU_EUlSO_E0_EEDcSt17integral_constantIbLb0EERKSO_RKSR_
FNDA:0,_ZN3xtl3mpl9static_ifIZN2xt18assign_xexpressionINS2_16xarray_containerINS2_7uvectorIdSaIdEEELNS2_11layout_typeE1ENS2_7svectorImLm4ESaImELb1EEENS2_22xtensor_expression_tagEEENS2_10xgeneratorINS2_6detail7fn_implINSF_6eye_fnIbEEEEbSt6vectorImSA_EEEEEvRNS2_11xexpressionIT_EERKNSN_IT0_EEEUlSO_E_ZNS3_ISD_SM_EEvSQ_SU_EUlSO_E0_EEDcSt17integral_constantIbLb0EERKSO_RKSR_
FN:595,_ZN3xtl3mpl9static_ifIZN2xt12linear_beginINS2_10xgeneratorINS2_6detail7fn_implINS5_6eye_fnIbEEEEbSt6vectorImSaImEEEEEEDaRKT_EUlSE_E_ZNS3_ISD_EEDaSG_EUlSE_E0_EEDcSt17integral_constantIbLb0EESG_RKT0_
FNDA:0,_ZN3xtl3mpl9static_ifIZN2xt12linear_beginINS2_10xgeneratorINS2_6detail7fn_implINS5_6eye_fnIbEEEEbSt6vectorImSaImEEEEEEDaRKT_EUlSE_E_ZNS3_ISD_EEDaSG_EUlSE_E0_EEDcSt17integral_constantIbLb0EESG_RKT0_
FN:595,_ZN3xtl3mpl9static_ifIZN2xt18assign_xexpressionINS2_16xarray_containerINS2_7uvectorIdSaIdEEELNS2_11layout_typeE1ENS2_7svectorImLm4ESaImELb1EEENS2_22xtensor_expression_tagEEENS2_9xfunctionINS2_6detail5minusEJRKSD_RKNSE_INSF_10multipliesEJNS2_7xscalarIdEESI_EEEEEEEEvRNS2_11xexpressionIT_EERKNSQ_IT0_EEEUlSR_E_ZNS3_ISD_SP_EEvST_SX_EUlSR_E0_EEDcSt17integral_constantIbLb0EERKSR_RKSU_
FNDA:0,_ZN3xtl3mpl9static_ifIZN2xt18assign_xexpressionINS2_16xarray_containerINS2_7uvectorIdSaIdEEELNS2_11layout_typeE1ENS2_7svectorImLm4ESaImELb1EEENS2_22xtensor_expression_tagEEENS2_9xfunctionINS2_6detail5minusEJRKSD_RKNSE_INSF_10multipliesEJNS2_7xscalarIdEESI_EEEEEEEEvRNS2_11xexpressionIT_EERKNSQ_IT0_EEEUlSR_E_ZNS3_ISD_SP_EEvST_SX_EUlSR_E0_EEDcSt17integral_constantIbLb0EERKSR_RKSU_
FN:595,_ZN3xtl3mpl9static_ifIZN2xt20xexpression_assignerINS2_22xtensor_expression_tagEE6resizeINS2_16xarray_containerINS2_7uvectorIdSaIdEEELNS2_11layout_typeE1ENS2_7svectorImLm4ESaImELb1EEES4_EENS2_6detail5minusEJRKSF_RKNS2_9xfunctionINSG_10multipliesEJNS2_7xscalarIdEESJ_EEEEEEbRT_RKNSK_IT0_JDpT1_EEEEUlSR_E_ZNS6_ISF_SH_JSJ_SQ_EEEbSS_SY_EUlSR_E0_EEDcSt17integral_constantIbLb0EERKSR_RKST_
FNDA:0,_ZN3xtl3mpl9static_ifIZN2xt20xexpression_assignerINS2_22xtensor_expression_tagEE6resizeINS2_16xarray_containerINS2_7uvectorIdSaIdEEELNS2_11layout_typeE1ENS2_7svectorImLm4ESaImELb1EEES4_EENS2_6detail5minusEJRKSF_RKNS2_9xfunctionINSG_10multipliesEJNS2_7xscalarIdEESJ_EEEEEEbRT_RKNSK_IT0_JDpT1_EEEEUlSR_E_ZNS6_ISF_SH_JSJ_SQ_EEEbSS_SY_EUlSR_E0_EEDcSt17integral_constantIbLb0EERKSR_RKST_
FN:601,_ZN3xtl3mpl9static_ifILb0EZN2xt12linear_beginINS2_10xgeneratorINS2_6detail7fn_implINS5_6eye_fnIbEEEEbSt6vectorImSaImEEEEEEDaRKT_EUlSE_E_ZNS3_ISD_EEDaSG_EUlSE_E0_EEDcRKT0_RKT1_
FNDA:0,_ZN3xtl3mpl9static_ifILb0EZN2xt12linear_beginINS2_10xgeneratorINS2_6detail7fn_implINS5_6eye_fnIbEEEEbSt6vectorImSaImEEEEEEDaRKT_EUlSE_E_ZNS3_ISD_EEDaSG_EUlSE_E0_EEDcRKT0_RKT1_
FN:601,_ZN3xtl3mpl9static_ifILb1EZN2xt12linear_beginINS2_16xarray_containerINS2_7uvectorIdSaIdEEELNS2_11layout_typeE1ENS2_7svectorImLm4ESaImELb1EEENS2_22xtensor_expression_tagEEEEEDaRT_EUlSE_E_ZNS3_ISD_EEDaSF_EUlSE_E0_EEDcRKT0_RKT1_
FNDA:0,_ZN3xtl3mpl9static_ifILb1EZN2xt12linear_beginINS2_16xarray_containerINS2_7uvectorIdSaIdEEELNS2_11layout_typeE1ENS2_7svectorImLm4ESaImELb1EEENS2_22xtensor_expression_tagEEEEEDaRT_EUlSE_E_ZNS3_ISD_EEDaSF_EUlSE_E0_EEDcRKT0_RKT1_
FN:601,_ZN3xtl3mpl9static_ifILb1EZN2xt12linear_beginINS2_16xarray_containerINS2_7uvectorIdSaIdEEELNS2_11layout_typeE1ENS2_7svectorImLm4ESaImELb1EEENS2_22xtensor_expression_tagEEEEEDaRKT_EUlSE_E_ZNS3_ISD_EEDaSG_EUlSE_E0_EEDcRKT0_RKT1_
FNDA:0,_ZN3xtl3mpl9static_ifILb1EZN2xt12linear_beginINS2_16xarray_containerINS2_7uvectorIdSaIdEEELNS2_11layout_typeE1ENS2_7svectorImLm4ESaImELb1EEENS2_22xtensor_expression_tagEEEEEDaRKT_EUlSE_E_ZNS3_ISD_EEDaSG_EUlSE_E0_EEDcRKT0_RKT1_
FN:601,_ZN3xtl3mpl9static_ifILb0EZN2xt12linear_beginINS2_10xgeneratorINS2_6detail7fn_implINS5_7diag_fnIRNS2_16xarray_containerINS2_7uvectorIdSaIdEEELNS2_11layout_typeE1ENS2_7svectorImLm4ESaImELb1EEENS2_22xtensor_expression_tagEEEEEEEdSt5arrayImLm2EEEEEEDaRKT_EUlSO_E_ZNS3_ISN_EEDaSQ_EUlSO_E0_EEDcRKT0_RKT1_
FNDA:0,_ZN3xtl3mpl9static_ifILb0EZN2xt12linear_beginINS2_10xgeneratorINS2_6detail7fn_implINS5_7diag_fnIRNS2_16xarray_containerINS2_7uvectorIdSaIdEEELNS2_11layout_typeE1ENS2_7svectorImLm4ESaImELb1EEENS2_22xtensor_expression_tagEEEEEEEdSt5arrayImLm2EEEEEEDaRKT_EUlSO_E_ZNS3_ISN_EEDaSQ_EUlSO_E0_EEDcRKT0_RKT1_
FN:601,_ZN3xtl3mpl9static_ifILb1EZN2xt20xcontiguous_iterableINS2_16xarray_containerINS2_7uvectorIdSaIdEEELNS2_11layout_typeE1ENS2_7svectorImLm4ESaImELb1EEENS2_22xtensor_expression_tagEEEE3endILS8_1EEENSt11conditionalIXeqT_L_ZNSE_13static_layoutEEEPdNS2_9xiteratorINS2_8xstepperISD_EEPSB_XT_EEEE4typeEvEUlT_E_ZNSF_ILS8_1EEESO_vEUlSP_E0_EEDcRKT0_RKT1_
FNDA:0,_ZN3xtl3mpl9static_ifILb1EZN2xt20xcontiguous_iterableINS2_16xarray_containerINS2_7uvectorIdSaIdEEELNS2_11layout_typeE1ENS2_7svectorImLm4ESaImELb1EEENS2_22xtensor_expression_tagEEEE3endILS8_1EEENSt11conditionalIXeqT_L_ZNSE_13static_layoutEEEPdNS2_9xiteratorINS2_8xstepperISD_EEPSB_XT_EEEE4typeEvEUlT_E_ZNSF_ILS8_1EEESO_vEUlSP_E0_EEDcRKT0_RKT1_
FN:601,_ZN3xtl3mpl9static_ifILb0EZN2xt18assign_xexpressionINS2_16xarray_containerINS2_7uvectorIdSaIdEEELNS2_11layout_typeE1ENS2_7svectorImLm4ESaImELb1EEENS2_22xtensor_expression_tagEEENS2_9xfunctionINS2_6detail5minusEJRKSD_RKNSE_INSF_10multipliesEJNS2_7xscalarIdEESI_EEEEEEEEvRNS2_11xexpressionIT_EERKNSQ_IT0_EEEUlSR_E_ZNS3_ISD_SP_EEvST_SX_EUlSR_E0_EEDcRKSU_RKT1_
FNDA:0,_ZN3xtl3mpl9static_ifILb0EZN2xt18assign_xexpressionINS2_16xarray_containerINS2_7uvectorIdSaIdEEELNS2_11layout_typeE1ENS2_7svectorImLm4ESaImELb1EEENS2_22xtensor_expression_tagEEENS2_9xfunctionINS2_6detail5minusEJRKSD_RKNSE_INSF_10multipliesEJNS2_7xscalarIdEESI_EEEEEEEEvRNS2_11xexpressionIT_EERKNSQ_IT0_EEEUlSR_E_ZNS3_ISD_SP_EEvST_SX_EUlSR_E0_EEDcRKSU_RKT1_
FN:601,_ZN3xtl3mpl9static_ifILb1EZN2xt20xcontiguous_iterableINS2_16xarray_containerINS2_7uvectorIdSaIdEEELNS2_11layout_typeE1ENS2_7svectorImLm4ESaImELb1EEENS2_22xtensor_expression_tagEEEE5beginILS8_1EEENSt11conditionalIXeqT_L_ZNSE_13static_layoutEEEPdNS2_9xiteratorINS2_8xstepperISD_EEPSB_XT_EEEE4typeEvEUlT_E_ZNSF_ILS8_1EEESO_vEUlSP_E0_EEDcRKT0_RKT1_
FNDA:0,_ZN3xtl3mpl9static_ifILb1EZN2xt20xcontiguous_iterableINS2_16xarray_containerINS2_7uvectorIdSaIdEEELNS2_11layout_typeE1ENS2_7svectorImLm4ESaImELb1EEENS2_22xtensor_expression_tagEEEE5beginILS8_1EEENSt11conditionalIXeqT_L_ZNSE_13static_layoutEEEPdNS2_9xiteratorINS2_8xstepperISD_EEPSB_XT_EEEE4typeEvEUlT_E_ZNSF_ILS8_1EEESO_vEUlSP_E0_EEDcRKT0_RKT1_
FN:601,_ZN3xtl3mpl9static_ifILb1EZN2xt12linear_beginINS2_9xfunctionINS2_6detail10multipliesEJNS2_7xscalarIdEERKNS2_16xarray_containerINS2_7uvectorIdSaIdEEELNS2_11layout_typeE1ENS2_7svectorImLm4ESaImELb1EEENS2_22xtensor_expression_tagEEEEEEEEDaRKT_EUlSM_E_ZNS3_ISL_EEDaSO_EUlSM_E0_EEDcRKT0_RKT1_
FNDA:0,_ZN3xtl3mpl9static_ifILb1EZN2xt12linear_beginINS2_9xfunctionINS2_6detail10multipliesEJNS2_7xscalarIdEERKNS2_16xarray_containerINS2_7uvectorIdSaIdEEELNS2_11layout_typeE1ENS2_7svectorImLm4ESaImELb1EEENS2_22xtensor_expression_tagEEEEEEEEDaRKT_EUlSM_E_ZNS3_ISL_EEDaSO_EUlSM_E0_EEDcRKT0_RKT1_
FN:601,_ZN3xtl3mpl9static_ifILb1EZN2xt18assign_xexpressionINS2_16xarray_containerINS2_7uvectorIdSaIdEEELNS2_11layout_typeE1ENS2_7svectorImLm4ESaImELb1EEENS2_22xtensor_expression_tagEEENS2_10xbroadcastINS2_7xscalarIdEESt5arrayImLm1EEEEEEvRNS2_11xexpressionIT_EERKNSK_IT0_EEEUlSL_E_ZNS3_ISD_SJ_EEvSN_SR_EUlSL_E0_EEDcRKSO_RKT1_
FNDA:0,_ZN3xtl3mpl9static_ifILb1EZN2xt18assign_xexpressionINS2_16xarray_containerINS2_7uvectorIdSaIdEEELNS2_11layout_typeE1ENS2_7svectorImLm4ESaImELb1EEENS2_22xtensor_expression_tagEEENS2_10xbroadcastINS2_7xscalarIdEESt5arrayImLm1EEEEEEvRNS2_11xexpressionIT_EERKNSK_IT0_EEEUlSL_E_ZNS3_ISD_SJ_EEvSN_SR_EUlSL_E0_EEDcRKSO_RKT1_
FN:601,_ZN3xtl3mpl9static_ifILb1EZN2xt12linear_beginINS2_9xfunctionINS2_6detail5minusEJRKNS2_16xarray_containerINS2_7uvectorIdSaIdEEELNS2_11layout_typeE1ENS2_7svectorImLm4ESaImELb1EEENS2_22xtensor_expression_tagEEERKNS4_INS5_10multipliesEJNS2_7xscalarIdEESI_EEEEEEEEDaRKT_EUlSQ_E_ZNS3_ISP_EEDaSS_EUlSQ_E0_EEDcRKT0_RKT1_
FNDA:0,_ZN3xtl3mpl9static_ifILb1EZN2xt12linear_beginINS2_9xfunctionINS2_6detail5minusEJRKNS2_16xarray_containerINS2_7uvectorIdSaIdEEELNS2_11layout_typeE1ENS2_7svectorImLm4ESaImELb1EEENS2_22xtensor_expression_tagEEERKNS4_INS5_10multipliesEJNS2_7xscalarIdEESI_EEEEEEEEDaRKT_EUlSQ_E_ZNS3_ISP_EEDaSS_EUlSQ_E0_EEDcRKT0_RKT1_
FN:601,_ZN3xtl3mpl9static_ifILb0EZN2xt18assign_xexpressionINS2_16xarray_containerINS2_7uvectorIdSaIdEEELNS2_11layout_typeE1ENS2_7svectorImLm4ESaImELb1EEENS2_22xtensor_expression_tagEEENS2_10xgeneratorINS2_6detail7fn_implINSF_6eye_fnIbEEEEbSt6vectorImSA_EEEEEvRNS2_11xexpressionIT_EERKNSN_IT0_EEEUlSO_E_ZNS3_ISD_SM_EEvSQ_SU_EUlSO_E0_EEDcRKSR_RKT1_
FNDA:0,_ZN3xtl3mpl9static_ifILb0EZN2xt18assign_xexpressionINS2_16xarray_containerINS2_7uvectorIdSaIdEEELNS2_11layout_typeE1ENS2_7svectorImLm4ESaImELb1EEENS2_22xtensor_expression_tagEEENS2_10xgeneratorINS2_6detail7fn_implINSF_6eye_fnIbEEEEbSt6vectorImSA_EEEEEvRNS2_11xexpressionIT_EERKNSN_IT0_EEEUlSO_E_ZNS3_ISD_SM_EEvSQ_SU_EUlSO_E0_EEDcRKSR_RKT1_
FN:601,_ZN3xtl3mpl9static_ifILb0EZN2xt18assign_xexpressionINS2_16xarray_containerINS2_7uvectorIdSaIdEEELNS2_11layout_typeE1ENS2_7svectorImLm4ESaImELb1EEENS2_22xtensor_expression_tagEEENS2_10xgeneratorINS2_6detail7fn_implINSF_7diag_fnIRSD_EEEEdSt5arrayImLm2EEEEEEvRNS2_11xexpressionIT_EERKNSO_IT0_EEEUlSP_E_ZNS3_ISD_SN_EEvSR_SV_EUlSP_E0_EEDcRKSS_RKT1_
FNDA:0,_ZN3xtl3mpl9static_ifILb0EZN2xt18assign_xexpressionINS2_16xarray_containerINS2_7uvectorIdSaIdEEELNS2_11layout_typeE1ENS2_7svectorImLm4ESaImELb1EEENS2_22xtensor_expression_tagEEENS2_10xgeneratorINS2_6detail7fn_implINSF_7diag_fnIRSD_EEEEdSt5arrayImLm2EEEEEEvRNS2_11xexpressionIT_EERKNSO_IT0_EEEUlSP_E_ZNS3_ISD_SN_EEvSR_SV_EUlSP_E0_EEDcRKSS_RKT1_
FN:601,_ZN3xtl3mpl9static_ifILb0EZN2xt20xexpression_assignerINS2_22xtensor_expression_tagEE6resizeINS2_16xarray_containerINS2_7uvectorIdSaIdEEELNS2_11layout_typeE1ENS2_7svectorImLm4ESaImELb1EEES4_EENS2_6detail5minusEJRKSF_RKNS2_9xfunctionINSG_10multipliesEJNS2_7xscalarIdEESJ_EEEEEEbRT_RKNSK_IT0_JDpT1_EEEEUlSR_E_ZNS6_ISF_SH_JSJ_SQ_EEEbSS_SY_EUlSR_E0_EEDcRKST_RKT1_
FNDA:0,_ZN3xtl3mpl9static_ifILb0EZN2xt20xexpression_assignerINS2_22xtensor_expression_tagEE6resizeINS2_16xarray_containerINS2_7uvectorIdSaIdEEELNS2_11layout_typeE1ENS2_7svectorImLm4ESaImELb1EEES4_EENS2_6detail5minusEJRKSF_RKNS2_9xfunctionINSG_10multipliesEJNS2_7xscalarIdEESJ_EEEEEEbRT_RKNSK_IT0_JDpT1_EEEEUlSR_E_ZNS6_ISF_SH_JSJ_SQ_EEEbSS_SY_EUlSR_E0_EEDcRKST_RKT1_
DA:589,0
DA:591,0
DA:589,0
DA:591,0
DA:589,0
DA:591,0
DA:589,0
DA:591,0
DA:589,0
DA:591,0
DA:589,0
DA:591,0
DA:589,0
DA:591,0
DA:595,0
DA:597,0
DA:595,0
DA:597,0
DA:595,0
DA:597,0
DA:595,0
DA:597,0
DA:595,0
DA:597,0
DA:595,0
DA:597,0
DA:601,0
DA:603,0
DA:601,0
DA:603,0
DA:601,0
DA:603,0
DA:601,0
DA:603,0
DA:601,0
DA:603,0
DA:601,0
DA:603,0
DA:601,0
DA:603,0
DA:601,0
DA:603,0
DA:601,0
DA:603,0
DA:601,0
DA:603,0
DA:601,0
DA:603,0
DA:601,0
DA:603,0
DA:601,0
DA:603,0
end_of_record
SF:/usr/include/c++/11/ext/atomicity.h
DA:54,0
DA:66,0
DA:84,0
DA:85,0
DA:86,0
DA:98,0
DA:99,0
DA:101,0
end_of_record
SF:/usr/include/c++/11/initializer_list
FN:71,_ZNKSt16initializer_listImE4sizeEv
FNDA:0,_ZNKSt16initializer_listImE4sizeEv
FN:75,_ZNKSt16initializer_listImE5beginEv
FNDA:0,_ZNKSt16initializer_listImE5beginEv
FN:79,_ZNKSt16initializer_listImE3endEv
FNDA:0,_ZNKSt16initializer_listImE3endEv
DA:71,0
DA:75,0
DA:79,0
end_of_record
SF:/usr/include/c++/11/ext/alloc_traits.h
FN:97,_ZN9__gnu_cxx14__alloc_traitsISaImEmE17_S_select_on_copyERKS1_
FNDA:0,_ZN9__gnu_cxx14__alloc_traitsISaImEmE17_S_select_on_copyERKS1_
DA:97,0
DA:98,0
end_of_record
SF:/usr/include/c++/11/limits
FN:1274,_ZNSt14numeric_limitsImE3maxEv
FNDA:0,_ZNSt14numeric_limitsImE3maxEv
DA:1274,0
end_of_record
SF:/usr/include/c++/11/bits/stl_algobase.h
FN:90,_ZSt8__memcmpIllEiPKT_PKT0_m
FNDA:0,_ZSt8__memcmpIllEiPKT_PKT0_m
FN:90,_ZSt8__memcmpImmEiPKT_PKT0_m
FNDA:0,_ZSt8__memcmpImmEiPKT_PKT0_m
FN:230,_ZSt3minImERKT_S2_S2_
FNDA:0,_ZSt3minImERKT_S2_S2_
FN:254,_ZSt3maxImERKT_S2_S2_
FNDA:0,_ZSt3maxImERKT_S2_S2_
FN:313,_ZSt12__niter_baseIPKlET_S2_
FNDA:0,_ZSt12__niter_baseIPKlET_S2_
FN:313,_ZSt12__niter_baseISt16ostream_iteratorImcSt11char_traitsIcEEET_S4_
FNDA:0,_ZSt12__niter_baseISt16ostream_iteratorImcSt11char_traitsIcEEET_S4_
FN:313,_ZSt12__niter_baseIPlET_S1_
FNDA:0,_ZSt12__niter_baseIPlET_S1_
FN:313,_ZSt12__niter_baseIPmET_S1_
FNDA:0,_ZSt12__niter_baseIPmET_S1_
FN:313,_ZSt12__niter_baseIPKmET_S2_
FNDA:0,_ZSt12__niter_baseIPKmET_S2_
FN:313,_ZSt12__niter_baseIPcET_S1_
FNDA:0,_ZSt12__niter_baseIPcET_S1_
FN:313,_ZSt12__niter_baseIPKcET_S2_
FNDA:0,_ZSt12__niter_baseIPKcET_S2_
FN:335,_ZSt12__niter_wrapIPmET_RKS1_S1_
FNDA:0,_ZSt12__niter_wrapIPmET_RKS1_S1_
FN:335,_ZSt12__niter_wrapIPcET_RKS1_S1_
FNDA:0,_ZSt12__niter_wrapIPcET_RKS1_S1_
FN:335,_ZSt12__niter_wrapIPlET_RKS1_S1_
FNDA:0,_ZSt12__niter_wrapIPlET_RKS1_S1_
FN:335,_ZSt12__niter_wrapISt16ostream_iteratorImcSt11char_traitsIcEEET_RKS4_S4_
FNDA:0,_ZSt12__niter_wrapISt16ostream_iteratorImcSt11char_traitsIcEEET_RKS4_S4_
FN:380,_ZNSt11__copy_moveILb0ELb0ESt26random_access_iterator_tagE8__copy_mIPKcPcEET0_T_S7_S6_
FNDA:0,_ZNSt11__copy_moveILb0ELb0ESt26random_access_iterator_tagE8__copy_mIPKcPcEET0_T_S7_S6_
FN:380,_ZNSt11__copy_moveILb0ELb0ESt26random_access_iterator_tagE8__copy_mIPmS3_EET0_T_S5_S4_
FNDA:0,_ZNSt11__copy_moveILb0ELb0ESt26random_access_iterator_tagE8__copy_mIPmS3_EET0_T_S5_S4_
FN:380,_ZNSt11__copy_moveILb0ELb0ESt26random_access_iterator_tagE8__copy_mIPlS3_EET0_T_S5_S4_
FNDA:0,_ZNSt11__copy_moveILb0ELb0ESt26random_access_iterator_tagE8__copy_mIPlS3_EET0_T_S5_S4_
FN:380,_ZNSt11__copy_moveILb0ELb0ESt26random_access_iterator_tagE8__copy_mIPKmPmEET0_T_S7_S6_
FNDA:0,_ZNSt11__copy_moveILb0ELb0ESt26random_access_iterator_tagE8__copy_mIPKmPmEET0_T_S7_S6_
FN:380,_ZNSt11__copy_moveILb0ELb0ESt26random_access_iterator_tagE8__copy_mIPKmSt16ostream_iteratorImcSt11char_traitsIcEEEET0_T_SA_S9_
FNDA:0,_ZNSt11__copy_moveILb0ELb0ESt26random_access_iterator_tagE8__copy_mIPKmSt16ostream_iteratorImcSt11char_traitsIcEEEET0_T_SA_S9_
FN:420,_ZNSt11__copy_moveILb0ELb1ESt26random_access_iterator_tagE8__copy_mImEEPT_PKS3_S6_S4_
FNDA:0,_ZNSt11__copy_moveILb0ELb1ESt26random_access_iterator_tagE8__copy_mImEEPT_PKS3_S6_S4_
FN:420,_ZNSt11__copy_moveILb0ELb1ESt26random_access_iterator_tagE8__copy_mIcEEPT_PKS3_S6_S4_
FNDA:0,_ZNSt11__copy_moveILb0ELb1ESt26random_access_iterator_tagE8__copy_mIcEEPT_PKS3_S6_S4_
FN:420,_ZNSt11__copy_moveILb0ELb1ESt26random_access_iterator_tagE8__copy_mIlEEPT_PKS3_S6_S4_
FNDA:0,_ZNSt11__copy_moveILb0ELb1ESt26random_access_iterator_tagE8__copy_mIlEEPT_PKS3_S6_S4_
FN:486,_ZSt14__copy_move_a2ILb0EPKmSt16ostream_iteratorImcSt11char_traitsIcEEET1_T0_S7_S6_
FNDA:0,_ZSt14__copy_move_a2ILb0EPKmSt16ostream_iteratorImcSt11char_traitsIcEEET1_T0_S7_S6_
FN:486,_ZSt14__copy_move_a2ILb0EPlS0_ET1_T0_S2_S1_
FNDA:0,_ZSt14__copy_move_a2ILb0EPlS0_ET1_T0_S2_S1_
FN:486,_ZSt14__copy_move_a2ILb0EPmS0_ET1_T0_S2_S1_
FNDA:0,_ZSt14__copy_move_a2ILb0EPmS0_ET1_T0_S2_S1_
FN:486,_ZSt14__copy_move_a2ILb0EPKmPmET1_T0_S4_S3_
FNDA:0,_ZSt14__copy_move_a2ILb0EPKmPmET1_T0_S4_S3_
FN:486,_ZSt14__copy_move_a2ILb0EPKcPcET1_T0_S4_S3_
FNDA:0,_ZSt14__copy_move_a2ILb0EPKcPcET1_T0_S4_S3_
FN:521,_ZSt14__copy_move_a1ILb0EPmS0_ET1_T0_S2_S1_
FNDA:0,_ZSt14__copy_move_a1ILb0EPmS0_ET1_T0_S2_S1_
FN:521,_ZSt14__copy_move_a1ILb0EPKmSt16ostream_iteratorImcSt11char_traitsIcEEET1_T0_S7_S6_
FNDA:0,_ZSt14__copy_move_a1ILb0EPKmSt16ostream_iteratorImcSt11char_traitsIcEEET1_T0_S7_S6_
FN:521,_ZSt14__copy_move_a1ILb0EPlS0_ET1_T0_S2_S1_
FNDA:0,_ZSt14__copy_move_a1ILb0EPlS0_ET1_T0_S2_S1_
FN:521,_ZSt14__copy_move_a1ILb0EPKcPcET1_T0_S4_S3_
FNDA:0,_ZSt14__copy_move_a1ILb0EPKcPcET1_T0_S4_S3_
FN:521,_ZSt14__copy_move_a1ILb0EPKmPmET1_T0_S4_S3_
FNDA:0,_ZSt14__copy_move_a1ILb0EPKmPmET1_T0_S4_S3_
FN:527,_ZSt13__copy_move_aILb0EPKmPmET1_T0_S4_S3_
FNDA:0,_ZSt13__copy_move_aILb0EPKmPmET1_T0_S4_S3_
FN:527,_ZSt13__copy_move_aILb0EPmS0_ET1_T0_S2_S1_
FNDA:0,_ZSt13__copy_move_aILb0EPmS0_ET1_T0_S2_S1_
FN:527,_ZSt13__copy_move_aILb0EPlS0_ET1_T0_S2_S1_
FNDA:0,_ZSt13__copy_move_aILb0EPlS0_ET1_T0_S2_S1_
FN:527,_ZSt13__copy_move_aILb0EPKcPcET1_T0_S4_S3_
FNDA:0,_ZSt13__copy_move_aILb0EPKcPcET1_T0_S4_S3_
FN:527,_ZSt13__copy_move_aILb0EPKmSt16ostream_iteratorImcSt11char_traitsIcEEET1_T0_S7_S6_
FNDA:0,_ZSt13__copy_move_aILb0EPKmSt16ostream_iteratorImcSt11char_traitsIcEEET1_T0_S7_S6_
FN:527,_ZSt13__copy_move_aILb0EN9__gnu_cxx17__normal_iteratorIPKmSt6vectorImSaImEEEEPmET1_T0_SA_S9_
FNDA:0,_ZSt13__copy_move_aILb0EN9__gnu_cxx17__normal_iteratorIPKmSt6vectorImSaImEEEEPmET1_T0_SA_S9_
FN:611,_ZSt4copyIPmS0_ET0_T_S2_S1_
FNDA:0,_ZSt4copyIPmS0_ET0_T_S2_S1_
FN:611,_ZSt4copyIPKmSt16ostream_iteratorImcSt11char_traitsIcEEET0_T_S7_S6_
FNDA:0,_ZSt4copyIPKmSt16ostream_iteratorImcSt11char_traitsIcEEET0_T_S7_S6_
FN:611,_ZSt4copyIPlS0_ET0_T_S2_S1_
FNDA:0,_ZSt4copyIPlS0_ET0_T_S2_S1_
FN:611,_ZSt4copyIPKmPmET0_T_S4_S3_
FNDA:0,_ZSt4copyIPKmPmET0_T_S4_S3_
FN:611,_ZSt4copyIN9__gnu_cxx17__normal_iteratorIPKmSt6vectorImSaImEEEEPmET0_T_SA_S9_
FNDA:0,_ZSt4copyIN9__gnu_cxx17__normal_iteratorIPKmSt6vectorImSaImEEEEPmET0_T_SA_S9_
FN:611,_ZSt4copyIPKcPcET0_T_S4_S3_
FNDA:0,_ZSt4copyIPKcPcET0_T_S4_S3_
FN:919,_ZSt9__fill_a1IPmmEN9__gnu_cxx11__enable_ifIXsrSt11__is_scalarIT0_E7__valueEvE6__typeET_S8_RKS4_
FNDA:0,_ZSt9__fill_a1IPmmEN9__gnu_cxx11__enable_ifIXsrSt11__is_scalarIT0_E7__valueEvE6__typeET_S8_RKS4_
FN:919,_ZSt9__fill_a1IPddEN9__gnu_cxx11__enable_ifIXsrSt11__is_scalarIT0_E7__valueEvE6__typeET_S8_RKS4_
FNDA:0,_ZSt9__fill_a1IPddEN9__gnu_cxx11__enable_ifIXsrSt11__is_scalarIT0_E7__valueEvE6__typeET_S8_RKS4_
FN:919,_ZSt9__fill_a1IPllEN9__gnu_cxx11__enable_ifIXsrSt11__is_scalarIT0_E7__valueEvE6__typeET_S8_RKS4_
FNDA:0,_ZSt9__fill_a1IPllEN9__gnu_cxx11__enable_ifIXsrSt11__is_scalarIT0_E7__valueEvE6__typeET_S8_RKS4_
FN:968,_ZSt8__fill_aIPllEvT_S1_RKT0_
FNDA:0,_ZSt8__fill_aIPllEvT_S1_RKT0_
FN:968,_ZSt8__fill_aIPddEvT_S1_RKT0_
FNDA:0,_ZSt8__fill_aIPddEvT_S1_RKT0_
FN:968,_ZSt8__fill_aIPmmEvT_S1_RKT0_
FNDA:0,_ZSt8__fill_aIPmmEvT_S1_RKT0_
FN:992,_ZSt4fillIPmmEvT_S1_RKT0_
FNDA:0,_ZSt4fillIPmmEvT_S1_RKT0_
FN:992,_ZSt4fillIPddEvT_S1_RKT0_
FNDA:0,_ZSt4fillIPddEvT_S1_RKT0_
FN:992,_ZSt4fillIPllEvT_S1_RKT0_
FNDA:0,_ZSt4fillIPllEvT_S1_RKT0_
FN:1010,_ZSt17__size_to_integerm
FNDA:0,_ZSt17__size_to_integerm
FN:1109,_ZSt10__fill_n_aIPmmmET_S1_T0_RKT1_St26random_access_iterator_tag
FNDA:0,_ZSt10__fill_n_aIPmmmET_S1_T0_RKT1_St26random_access_iterator_tag
FN:1144,_ZSt6fill_nIPmmmET_S1_T0_RKT1_
FNDA:0,_ZSt6fill_nIPmmmET_S1_T0_RKT1_
FN:1174,_ZNSt7__equalILb1EE5equalImEEbPKT_S4_S4_
FNDA:0,_ZNSt7__equalILb1EE5equalImEEbPKT_S4_S4_
FN:1174,_ZNSt7__equalILb1EE5equalIlEEbPKT_S4_S4_
FNDA:0,_ZNSt7__equalILb1EE5equalIlEEbPKT_S4_S4_
FN:1205,_ZSt12__equal_aux1IPmS0_EbT_S1_T0_
FNDA:0,_ZSt12__equal_aux1IPmS0_EbT_S1_T0_
FN:1205,_ZSt12__equal_aux1IPKmPmEbT_S3_T0_
FNDA:0,_ZSt12__equal_aux1IPKmPmEbT_S3_T0_
FN:1205,_ZSt12__equal_aux1IPKlS1_EbT_S2_T0_
FNDA:0,_ZSt12__equal_aux1IPKlS1_EbT_S2_T0_
FN:1217,_ZSt11__equal_auxIPmS0_EbT_S1_T0_
FNDA:0,_ZSt11__equal_auxIPmS0_EbT_S1_T0_
FN:1217,_ZSt11__equal_auxIN9__gnu_cxx17__normal_iteratorIPKmSt6vectorImSaImEEEEPmEbT_S9_T0_
FNDA:0,_ZSt11__equal_auxIN9__gnu_cxx17__normal_iteratorIPKmSt6vectorImSaImEEEEPmEbT_S9_T0_
FN:1217,_ZSt11__equal_auxIPKmPmEbT_S3_T0_
FNDA:0,_ZSt11__equal_auxIPKmPmEbT_S3_T0_
FN:1217,_ZSt11__equal_auxIPKlS1_EbT_S2_T0_
FNDA:0,_ZSt11__equal_auxIPKlS1_EbT_S2_T0_
FN:1546,_ZSt5equalIPmS0_EbT_S1_T0_
FNDA:0,_ZSt5equalIPmS0_EbT_S1_T0_
FN:1546,_ZSt5equalIPKlS1_EbT_S2_T0_
FNDA:0,_ZSt5equalIPKlS1_EbT_S2_T0_
FN:1546,_ZSt5equalIN9__gnu_cxx17__normal_iteratorIPKmSt6vectorImSaImEEEEPmEbT_S9_T0_
FNDA:0,_ZSt5equalIN9__gnu_cxx17__normal_iteratorIPKmSt6vectorImSaImEEEEPmEbT_S9_T0_
FN:1546,_ZSt5equalIPKmPmEbT_S3_T0_
FNDA:0,_ZSt5equalIPKmPmEbT_S3_T0_
DA:90,0
DA:96,0
DA:98,0
DA:99,0
DA:100,0
DA:101,0
DA:105,0
DA:90,0
DA:96,0
DA:98,0
DA:99,0
DA:100,0
DA:101,0
DA:105,0
DA:230,0
DA:235,0
DA:236,0
DA:237,0
DA:254,0
DA:259,0
DA:260,0
DA:261,0
DA:313,0
DA:315,0
DA:313,0
DA:315,0
DA:313,0
DA:315,0
DA:313,0
DA:315,0
DA:313,0
DA:315,0
DA:313,0
DA:315,0
DA:313,0
DA:315,0
DA:335,0
DA:336,0
DA:335,0
DA:336,0
DA:335,0
DA:336,0
DA:335,0
DA:336,0
DA:380,0
DA:383,0
DA:385,0
DA:386,0
DA:387,0
DA:389,0
DA:380,0
DA:383,0
DA:385,0
DA:386,0
DA:387,0
DA:389,0
DA:380,0
DA:383,0
DA:385,0
DA:386,0
DA:387,0
DA:389,0
DA:380,0
DA:383,0
DA:385,0
DA:386,0
DA:387,0
DA:389,0
DA:380,0
DA:383,0
DA:385,0
DA:386,0
DA:387,0
DA:389,0
DA:420,0
DA:429,0
DA:430,0
DA:431,0
DA:432,0
DA:420,0
DA:429,0
DA:430,0
DA:431,0
DA:432,0
DA:420,0
DA:429,0
DA:430,0
DA:431,0
DA:432,0
DA:486,0
DA:490,0
DA:492,0
DA:495,0
DA:486,0
DA:490,0
DA:492,0
DA:495,0
DA:486,0
DA:490,0
DA:492,0
DA:495,0
DA:486,0
DA:490,0
DA:492,0
DA:495,0
DA:486,0
DA:490,0
DA:492,0
DA:495,0
DA:521,0
DA:522,0
DA:521,0
DA:522,0
DA:521,0
DA:522,0
DA:521,0
DA:522,0
DA:521,0
DA:522,0
DA:527,0
DA:529,0
DA:532,0
DA:527,0
DA:532,0
DA:527,0
DA:529,0
DA:532,0
DA:527,0
DA:529,0
DA:532,0
DA:527,0
DA:529,0
DA:532,0
DA:527,0
DA:529,0
DA:532,0
DA:611,0
DA:620,0
DA:611,0
DA:620,0
DA:611,0
DA:620,0
DA:611,0
DA:620,0
DA:611,0
DA:620,0
DA:611,0
DA:620,0
DA:919,0
DA:922,0
DA:923,0
DA:924,0
DA:925,0
DA:919,0
DA:922,0
DA:923,0
DA:924,0
DA:925,0
DA:919,0
DA:922,0
DA:923,0
DA:924,0
DA:925,0
DA:968,0
DA:969,0
DA:968,0
DA:969,0
DA:968,0
DA:969,0
DA:992,0
DA:999,0
DA:1000,0
DA:992,0
DA:999,0
DA:1000,0
DA:992,0
DA:999,0
DA:1000,0
DA:1010,0
DA:1109,0
DA:1115,0
DA:1116,0
DA:1120,0
DA:1121,0
DA:1144,0
DA:1149,0
DA:1150,0
DA:1174,0
DA:1176,0
DA:1177,0
DA:1178,0
DA:1174,0
DA:1176,0
DA:1177,0
DA:1178,0
DA:1205,0
DA:1208,0
DA:1211,0
DA:1205,0
DA:1208,0
DA:1211,0
DA:1205,0
DA:1208,0
DA:1211,0
DA:1217,0
DA:1219,0
DA:1221,0
DA:1217,0
DA:1219,0
DA:1221,0
DA:1217,0
DA:1219,0
DA:1221,0
DA:1217,0
DA:1219,0
DA:1221,0
DA:1546,0
DA:1556,0
DA:1546,0
DA:1556,0
DA:1546,0
DA:1556,0
DA:1546,0
DA:1556,0
end_of_record
SF:/workspace/.xmake/packages/x/xtensor/0.24.3/7589bb6431db4fba90e4d138dda37226/include/xtensor/xbroadcast.hpp
FN:242,_ZN2xt9broadcastIdmLm1EEEDaOT_RAT1__KT0_
FNDA:0,_ZN2xt9broadcastIdmLm1EEEDaOT_RAT1__KT0_
FN:287,_ZN2xt10xbroadcastINS_7xscalarIdEESt5arrayImLm1EEEC2IdEEOT_OS4_
FNDA:0,_ZN2xt10xbroadcastINS_7xscalarIdEESt5arrayImLm1EEEC2IdEEOT_OS4_
FN:302,_ZNK2xt10xbroadcastINS_7xscalarIdEESt5arrayImLm1EEE5shapeEv
FNDA:0,_ZNK2xt10xbroadcastINS_7xscalarIdEESt5arrayImLm1EEE5shapeEv
FN:441,_ZNK2xt10xbroadcastINS_7xscalarIdEESt5arrayImLm1EEE9assign_toINS_16xarray_containerINS_7uvectorIdSaIdEEELNS_11layout_typeE1ENS_7svectorImLm4ESaImELb1EEENS_22xtensor_expression_tagEEES2_vEEvRNS_11xexpressionIT_EE
FNDA:0,_ZNK2xt10xbroadcastINS_7xscalarIdEESt5arrayImLm1EEE9assign_toINS_16xarray_containerINS_7uvectorIdSaIdEEELNS_11layout_typeE1ENS_7svectorImLm4ESaImELb1EEENS_22xtensor_expression_tagEEES2_vEEvRNS_11xexpressionIT_EE
DA:242,0
DA:246,0
DA:287,0
DA:288,0
DA:290,0
DA:291,0
DA:302,0
DA:304,0
DA:441,0
DA:443,0
DA:444,0
DA:445,0
DA:446,0
end_of_record
SF:/usr/include/c++/11/tuple
FN:182,_ZNSt10_Head_baseILm1ERKN2xt9xfunctionINS0_6detail10multipliesEJNS0_7xscalarIdEERKNS0_16xarray_containerINS0_7uvectorIdSaIdEEELNS0_11layout_typeE1ENS0_7svectorImLm4ESaImELb1EEENS0_22xtensor_expression_tagEEEEEELb0EEC2ESK_
FNDA:0,_ZNSt10_Head_baseILm1ERKN2xt9xfunctionINS0_6detail10multipliesEJNS0_7xscalarIdEERKNS0_16xarray_containerINS0_7uvectorIdSaIdEEELNS0_11layout_typeE1ENS0_7svectorImLm4ESaImELb1EEENS0_22xtensor_expression_tagEEEEEELb0EEC2ESK_
FN:189,_ZNSt10_Head_baseILm0EN2xt15xscalar_stepperILb1EdEELb0EEC2IS2_EEOT_
FNDA:0,_ZNSt10_Head_baseILm0EN2xt15xscalar_stepperILb1EdEELb0EEC2IS2_EEOT_
FN:189,_ZNSt10_Head_baseILm1EPKdLb0EEC2IS1_EEOT_
FNDA:0,_ZNSt10_Head_baseILm1EPKdLb0EEC2IS1_EEOT_
FN:189,_ZNSt10_Head_baseILm1EN2xt18xfunction_iteratorINS0_6detail10multipliesEJNS0_7xscalarIdEERKNS0_16xarray_containerINS0_7uvectorIdSaIdEEELNS0_11layout_typeE1ENS0_7svectorImLm4ESaImELb1EEENS0_22xtensor_expression_tagEEEEEELb0EEC2ISI_EEOT_
FNDA:0,_ZNSt10_Head_baseILm1EN2xt18xfunction_iteratorINS0_6detail10multipliesEJNS0_7xscalarIdEERKNS0_16xarray_containerINS0_7uvectorIdSaIdEEELNS0_11layout_typeE1ENS0_7svectorImLm4ESaImELb1EEENS0_22xtensor_expression_tagEEEEEELb0EEC2ISI_EEOT_
FN:189,_ZNSt10_Head_baseILm0EN2xt8xstepperIKNS0_16xarray_containerINS0_7uvectorIdSaIdEEELNS0_11layout_typeE1ENS0_7svectorImLm4ESaImELb1EEENS0_22xtensor_expression_tagEEEEELb0EEC2ISD_EEOT_
FNDA:0,_ZNSt10_Head_baseILm0EN2xt8xstepperIKNS0_16xarray_containerINS0_7uvectorIdSaIdEEELNS0_11layout_typeE1ENS0_7svectorImLm4ESaImELb1EEENS0_22xtensor_expression_tagEEEEELb0EEC2ISD_EEOT_
FN:189,_ZNSt10_Head_baseILm1EN2xt8xstepperIKNS0_16xarray_containerINS0_7uvectorIdSaIdEEELNS0_11layout_typeE1ENS0_7svectorImLm4ESaImELb1EEENS0_22xtensor_expression_tagEEEEELb0EEC2ISD_EEOT_
FNDA:0,_ZNSt10_Head_baseILm1EN2xt8xstepperIKNS0_16xarray_containerINS0_7uvectorIdSaIdEEELNS0_11layout_typeE1ENS0_7svectorImLm4ESaImELb1EEENS0_22xtensor_expression_tagEEEEELb0EEC2ISD_EEOT_
FN:189,_ZNSt10_Head_baseILm0EN2xt15xdummy_iteratorILb1EdEELb0EEC2IS2_EEOT_
FNDA:0,_ZNSt10_Head_baseILm0EN2xt15xdummy_iteratorILb1EdEELb0EEC2IS2_EEOT_
FN:189,_ZNSt10_Head_baseILm0EPKdLb0EEC2IS1_EEOT_
FNDA:0,_ZNSt10_Head_baseILm0EPKdLb0EEC2IS1_EEOT_
FN:189,_ZNSt10_Head_baseILm1EN2xt17xfunction_stepperINS0_6detail10multipliesEJNS0_7xscalarIdEERKNS0_16xarray_containerINS0_7uvectorIdSaIdEEELNS0_11layout_typeE1ENS0_7svectorImLm4ESaImELb1EEENS0_22xtensor_expression_tagEEEEEELb0EEC2ISI_EEOT_
FNDA:0,_ZNSt10_Head_baseILm1EN2xt17xfunction_stepperINS0_6detail10multipliesEJNS0_7xscalarIdEERKNS0_16xarray_containerINS0_7uvectorIdSaIdEEELNS0_11layout_typeE1ENS0_7svectorImLm4ESaImELb1EEENS0_22xtensor_expression_tagEEEEEELb0EEC2ISI_EEOT_
FN:189,_ZNSt10_Head_baseILm0ERKN2xt16xarray_containerINS0_7uvectorIdSaIdEEELNS0_11layout_typeE1ENS0_7svectorImLm4ESaImELb1EEENS0_22xtensor_expression_tagEEELb0EEC2IRSA_EEOT_
FNDA:0,_ZNSt10_Head_baseILm0ERKN2xt16xarray_containerINS0_7uvectorIdSaIdEEELNS0_11layout_typeE1ENS0_7svectorImLm4ESaImELb1EEENS0_22xtensor_expression_tagEEELb0EEC2IRSA_EEOT_
FN:189,_ZNSt10_Head_baseILm1ERKN2xt16xarray_containerINS0_7uvectorIdSaIdEEELNS0_11layout_typeE1ENS0_7svectorImLm4ESaImELb1EEENS0_22xtensor_expression_tagEEELb0EEC2IRSA_EEOT_
FNDA:0,_ZNSt10_Head_baseILm1ERKN2xt16xarray_containerINS0_7uvectorIdSaIdEEELNS0_11layout_typeE1ENS0_7svectorImLm4ESaImELb1EEENS0_22xtensor_expression_tagEEELb0EEC2IRSA_EEOT_
FN:189,_ZNSt10_Head_baseILm0EN2xt7xscalarIdEELb0EEC2IdEEOT_
FNDA:0,_ZNSt10_Head_baseILm0EN2xt7xscalarIdEELb0EEC2IdEEOT_
FN:219,_ZNSt10_Head_baseILm0EN2xt15xdummy_iteratorILb1EdEELb0EE7_M_headERS3_
FNDA:0,_ZNSt10_Head_baseILm0EN2xt15xdummy_iteratorILb1EdEELb0EE7_M_headERS3_
FN:219,_ZNSt10_Head_baseILm0EPKdLb0EE7_M_headERS2_
FNDA:0,_ZNSt10_Head_baseILm0EPKdLb0EE7_M_headERS2_
FN:219,_ZNSt10_Head_baseILm0EN2xt8xstepperIKNS0_16xarray_containerINS0_7uvectorIdSaIdEEELNS0_11layout_typeE1ENS0_7svectorImLm4ESaImELb1EEENS0_22xtensor_expression_tagEEEEELb0EE7_M_headERSE_
FNDA:0,_ZNSt10_Head_baseILm0EN2xt8xstepperIKNS0_16xarray_containerINS0_7uvectorIdSaIdEEELNS0_11layout_typeE1ENS0_7svectorImLm4ESaImELb1EEENS0_22xtensor_expression_tagEEEEELb0EE7_M_headERSE_
FN:219,_ZNSt10_Head_baseILm0EN2xt15xscalar_stepperILb1EdEELb0EE7_M_headERS3_
FNDA:0,_ZNSt10_Head_baseILm0EN2xt15xscalar_stepperILb1EdEELb0EE7_M_headERS3_
FN:219,_ZNSt10_Head_baseILm1EN2xt18xfunction_iteratorINS0_6detail10multipliesEJNS0_7xscalarIdEERKNS0_16xarray_containerINS0_7uvectorIdSaIdEEELNS0_11layout_typeE1ENS0_7svectorImLm4ESaImELb1EEENS0_22xtensor_expression_tagEEEEEELb0EE7_M_headERSJ_
FNDA:0,_ZNSt10_Head_baseILm1EN2xt18xfunction_iteratorINS0_6detail10multipliesEJNS0_7xscalarIdEERKNS0_16xarray_containerINS0_7uvectorIdSaIdEEELNS0_11layout_typeE1ENS0_7svectorImLm4ESaImELb1EEENS0_22xtensor_expression_tagEEEEEELb0EE7_M_headERSJ_
FN:219,_ZNSt10_Head_baseILm1EN2xt17xfunction_stepperINS0_6detail10multipliesEJNS0_7xscalarIdEERKNS0_16xarray_containerINS0_7uvectorIdSaIdEEELNS0_11layout_typeE1ENS0_7svectorImLm4ESaImELb1EEENS0_22xtensor_expression_tagEEEEEELb0EE7_M_headERSJ_
FNDA:0,_ZNSt10_Head_baseILm1EN2xt17xfunction_stepperINS0_6detail10multipliesEJNS0_7xscalarIdEERKNS0_16xarray_containerINS0_7uvectorIdSaIdEEELNS0_11layout_typeE1ENS0_7svectorImLm4ESaImELb1EEENS0_22xtensor_expression_tagEEEEEELb0EE7_M_headERSJ_
FN:219,_ZNSt10_Head_baseILm1EPKdLb0EE7_M_headERS2_
FNDA:0,_ZNSt10_Head_baseILm1EPKdLb0EE7_M_headERS2_
FN:219,_ZNSt10_Head_baseILm1EN2xt8xstepperIKNS0_16xarray_containerINS0_7uvectorIdSaIdEEELNS0_11layout_typeE1ENS0_7svectorImLm4ESaImELb1EEENS0_22xtensor_expression_tagEEEEELb0EE7_M_headERSE_
FNDA:0,_ZNSt10_Head_baseILm1EN2xt8xstepperIKNS0_16xarray_containerINS0_7uvectorIdSaIdEEELNS0_11layout_typeE1ENS0_7svectorImLm4ESaImELb1EEENS0_22xtensor_expression_tagEEEEELb0EE7_M_headERSE_
FN:222,_ZNSt10_Head_baseILm0EN2xt8xstepperIKNS0_16xarray_containerINS0_7uvectorIdSaIdEEELNS0_11layout_typeE1ENS0_7svectorImLm4ESaImELb1EEENS0_22xtensor_expression_tagEEEEELb0EE7_M_headERKSE_
FNDA:0,_ZNSt10_Head_baseILm0EN2xt8xstepperIKNS0_16xarray_containerINS0_7uvectorIdSaIdEEELNS0_11layout_typeE1ENS0_7svectorImLm4ESaImELb1EEENS0_22xtensor_expression_tagEEEEELb0EE7_M_headERKSE_
FN:222,_ZNSt10_Head_baseILm0EN2xt15xscalar_stepperILb1EdEELb0EE7_M_headERKS3_
FNDA:0,_ZNSt10_Head_baseILm0EN2xt15xscalar_stepperILb1EdEELb0EE7_M_headERKS3_
FN:222,_ZNSt10_Head_baseILm1EN2xt18xfunction_iteratorINS0_6detail10multipliesEJNS0_7xscalarIdEERKNS0_16xarray_containerINS0_7uvectorIdSaIdEEELNS0_11layout_typeE1ENS0_7svectorImLm4ESaImELb1EEENS0_22xtensor_expression_tagEEEEEELb0EE7_M_headERKSJ_
FNDA:0,_ZNSt10_Head_baseILm1EN2xt18xfunction_iteratorINS0_6detail10multipliesEJNS0_7xscalarIdEERKNS0_16xarray_containerINS0_7uvectorIdSaIdEEELNS0_11layout_typeE1ENS0_7svectorImLm4ESaImELb1EEENS0_22xtensor_expression_tagEEEEEELb0EE7_M_headERKSJ_
FN:222,_ZNSt10_Head_baseILm0EPKdLb0EE7_M_headERKS2_
FNDA:0,_ZNSt10_Head_baseILm0EPKdLb0EE7_M_headERKS2_
FN:222,_ZNSt10_Head_baseILm1EN2xt17xfunction_stepperINS0_6detail10multipliesEJNS0_7xscalarIdEERKNS0_16xarray_containerINS0_7uvectorIdSaIdEEELNS0_11layout_typeE1ENS0_7svectorImLm4ESaImELb1EEENS0_22xtensor_expression_tagEEEEEELb0EE7_M_headERKSJ_
FNDA:0,_ZNSt10_Head_baseILm1EN2xt17xfunction_stepperINS0_6detail10multipliesEJNS0_7xscalarIdEERKNS0_16xarray_containerINS0_7uvectorIdSaIdEEELNS0_11layout_typeE1ENS0_7svectorImLm4ESaImELb1EEENS0_22xtensor_expression_tagEEEEEELb0EE7_M_headERKSJ_
FN:222,_ZNSt10_Head_baseILm1ERKN2xt16xarray_containerINS0_7uvectorIdSaIdEEELNS0_11layout_typeE1ENS0_7svectorImLm4ESaImELb1EEENS0_22xtensor_expression_tagEEELb0EE7_M_headERKSD_
FNDA:0,_ZNSt10_Head_baseILm1ERKN2xt16xarray_containerINS0_7uvectorIdSaIdEEELNS0_11layout_typeE1ENS0_7svectorImLm4ESaImELb1EEENS0_22xtensor_expression_tagEEELb0EE7_M_headERKSD_
FN:222,_ZNSt10_Head_baseILm0EN2xt7xscalarIdEELb0EE7_M_headERKS3_
FNDA:0,_ZNSt10_Head_baseILm0EN2xt7xscalarIdEELb0EE7_M_headERKS3_
FN:222,_ZNSt10_Head_baseILm1ERKN2xt9xfunctionINS0_6detail10multipliesEJNS0_7xscalarIdEERKNS0_16xarray_containerINS0_7uvectorIdSaIdEEELNS0_11layout_typeE1ENS0_7svectorImLm4ESaImELb1EEENS0_22xtensor_expression_tagEEEEEELb0EE7_M_headERKSL_
FNDA:0,_ZNSt10_Head_baseILm1ERKN2xt9xfunctionINS0_6detail10multipliesEJNS0_7xscalarIdEERKNS0_16xarray_containerINS0_7uvectorIdSaIdEEELNS0_11layout_typeE1ENS0_7svectorImLm4ESaImELb1EEENS0_22xtensor_expression_tagEEEEEELb0EE7_M_headERKSL_
FN:222,_ZNSt10_Head_baseILm0ERKN2xt16xarray_containerINS0_7uvectorIdSaIdEEELNS0_11layout_typeE1ENS0_7svectorImLm4ESaImELb1EEENS0_22xtensor_expression_tagEEELb0EE7_M_headERKSD_
FNDA:0,_ZNSt10_Head_baseILm0ERKN2xt16xarray_containerINS0_7uvectorIdSaIdEEELNS0_11layout_typeE1ENS0_7svectorImLm4ESaImELb1EEENS0_22xtensor_expression_tagEEELb0EE7_M_headERKSD_
FN:222,_ZNSt10_Head_baseILm0EN2xt15xdummy_iteratorILb1EdEELb0EE7_M_headERKS3_
FNDA:0,_ZNSt10_Head_baseILm0EN2xt15xdummy_iteratorILb1EdEELb0EE7_M_headERKS3_
FN:222,_ZNSt10_Head_baseILm1EPKdLb0EE7_M_headERKS2_
FNDA:0,_ZNSt10_Head_baseILm1EPKdLb0EE7_M_headERKS2_
FN:222,_ZNSt10_Head_baseILm1EN2xt8xstepperIKNS0_16xarray_containerINS0_7uvectorIdSaIdEEELNS0_11layout_typeE1ENS0_7svectorImLm4ESaImELb1EEENS0_22xtensor_expression_tagEEEEELb0EE7_M_headERKSE_
FNDA:0,_ZNSt10_Head_baseILm1EN2xt8xstepperIKNS0_16xarray_containerINS0_7uvectorIdSaIdEEELNS0_11layout_typeE1ENS0_7svectorImLm4ESaImELb1EEENS0_22xtensor_expression_tagEEEEELb0EE7_M_headERKSE_
FN:254,_ZNSt11_Tuple_implILm0EJN2xt15xdummy_iteratorILb1EdEEPKdEE7_M_headERS5_
FNDA:0,_ZNSt11_Tuple_implILm0EJN2xt15xdummy_iteratorILb1EdEEPKdEE7_M_headERS5_
FN:254,_ZNSt11_Tuple_implILm0EJN2xt8xstepperIKNS0_16xarray_containerINS0_7uvectorIdSaIdEEELNS0_11layout_typeE1ENS0_7svectorImLm4ESaImELb1EEENS0_22xtensor_expression_tagEEEEENS0_17xfunction_stepperINS0_6detail10multipliesEJNS0_7xscalarIdEERSC_EEEEE7_M_headERSL_
FNDA:0,_ZNSt11_Tuple_implILm0EJN2xt8xstepperIKNS0_16xarray_containerINS0_7uvectorIdSaIdEEELNS0_11layout_typeE1ENS0_7svectorImLm4ESaImELb1EEENS0_22xtensor_expression_tagEEEEENS0_17xfunction_stepperINS0_6detail10multipliesEJNS0_7xscalarIdEERSC_EEEEE7_M_headERSL_
FN:254,_ZNSt11_Tuple_implILm0EJN2xt15xscalar_stepperILb1EdEENS0_8xstepperIKNS0_16xarray_containerINS0_7uvectorIdSaIdEEELNS0_11layout_typeE1ENS0_7svectorImLm4ESaImELb1EEENS0_22xtensor_expression_tagEEEEEEE7_M_headERSG_
FNDA:0,_ZNSt11_Tuple_implILm0EJN2xt15xscalar_stepperILb1EdEENS0_8xstepperIKNS0_16xarray_containerINS0_7uvectorIdSaIdEEELNS0_11layout_typeE1ENS0_7svectorImLm4ESaImELb1EEENS0_22xtensor_expression_tagEEEEEEE7_M_headERSG_
FN:254,_ZNSt11_Tuple_implILm0EJPKdN2xt18xfunction_iteratorINS2_6detail10multipliesEJNS2_7xscalarIdEERKNS2_16xarray_containerINS2_7uvectorIdSaIdEEELNS2_11layout_typeE1ENS2_7svectorImLm4ESaImELb1EEENS2_22xtensor_expression_tagEEEEEEEE7_M_headERSL_
FNDA:0,_ZNSt11_Tuple_implILm0EJPKdN2xt18xfunction_iteratorINS2_6detail10multipliesEJNS2_7xscalarIdEERKNS2_16xarray_containerINS2_7uvectorIdSaIdEEELNS2_11layout_typeE1ENS2_7svectorImLm4ESaImELb1EEENS2_22xtensor_expression_tagEEEEEEEE7_M_headERSL_
FN:257,_ZNSt11_Tuple_implILm0EJPKdN2xt18xfunction_iteratorINS2_6detail10multipliesEJNS2_7xscalarIdEERKNS2_16xarray_containerINS2_7uvectorIdSaIdEEELNS2_11layout_typeE1ENS2_7svectorImLm4ESaImELb1EEENS2_22xtensor_expression_tagEEEEEEEE7_M_headERKSL_
FNDA:0,_ZNSt11_Tuple_implILm0EJPKdN2xt18xfunction_iteratorINS2_6detail10multipliesEJNS2_7xscalarIdEERKNS2_16xarray_containerINS2_7uvectorIdSaIdEEELNS2_11layout_typeE1ENS2_7svectorImLm4ESaImELb1EEENS2_22xtensor_expression_tagEEEEEEEE7_M_headERKSL_
FN:257,_ZNSt11_Tuple_implILm0EJRKN2xt16xarray_containerINS0_7uvectorIdSaIdEEELNS0_11layout_typeE1ENS0_7svectorImLm4ESaImELb1EEENS0_22xtensor_expression_tagEEERKNS0_9xfunctionINS0_6detail10multipliesEJNS0_7xscalarIdEESC_EEEEE7_M_headERKSL_
FNDA:0,_ZNSt11_Tuple_implILm0EJRKN2xt16xarray_containerINS0_7uvectorIdSaIdEEELNS0_11layout_typeE1ENS0_7svectorImLm4ESaImELb1EEENS0_22xtensor_expression_tagEEERKNS0_9xfunctionINS0_6detail10multipliesEJNS0_7xscalarIdEESC_EEEEE7_M_headERKSL_
FN:257,_ZNSt11_Tuple_implILm0EJN2xt7xscalarIdEERKNS0_16xarray_containerINS0_7uvectorIdSaIdEEELNS0_11layout_typeE1ENS0_7svectorImLm4ESaImELb1EEENS0_22xtensor_expression_tagEEEEE7_M_headERKSF_
FNDA:0,_ZNSt11_Tuple_implILm0EJN2xt7xscalarIdEERKNS0_16xarray_containerINS0_7uvectorIdSaIdEEELNS0_11layout_typeE1ENS0_7svectorImLm4ESaImELb1EEENS0_22xtensor_expression_tagEEEEE7_M_headERKSF_
FN:257,_ZNSt11_Tuple_implILm0EJN2xt15xscalar_stepperILb1EdEENS0_8xstepperIKNS0_16xarray_containerINS0_7uvectorIdSaIdEEELNS0_11layout_typeE1ENS0_7svectorImLm4ESaImELb1EEENS0_22xtensor_expression_tagEEEEEEE7_M_headERKSG_
FNDA:0,_ZNSt11_Tuple_implILm0EJN2xt15xscalar_stepperILb1EdEENS0_8xstepperIKNS0_16xarray_containerINS0_7uvectorIdSaIdEEELNS0_11layout_typeE1ENS0_7svectorImLm4ESaImELb1EEENS0_22xtensor_expression_tagEEEEEEE7_M_headERKSG_
FN:257,_ZNSt11_Tuple_implILm0EJN2xt15xdummy_iteratorILb1EdEEPKdEE7_M_headERKS5_
FNDA:0,_ZNSt11_Tuple_implILm0EJN2xt15xdummy_iteratorILb1EdEEPKdEE7_M_headERKS5_
FN:257,_ZNSt11_Tuple_implILm0EJN2xt8xstepperIKNS0_16xarray_containerINS0_7uvectorIdSaIdEEELNS0_11layout_typeE1ENS0_7svectorImLm4ESaImELb1EEENS0_22xtensor_expression_tagEEEEENS0_17xfunction_stepperINS0_6detail10multipliesEJNS0_7xscalarIdEERSC_EEEEE7_M_headERKSL_
FNDA:0,_ZNSt11_Tuple_implILm0EJN2xt8xstepperIKNS0_16xarray_containerINS0_7uvectorIdSaIdEEELNS0_11layout_typeE1ENS0_7svectorImLm4ESaImELb1EEENS0_22xtensor_expression_tagEEEEENS0_17xfunction_stepperINS0_6detail10multipliesEJNS0_7xscalarIdEERSC_EEEEE7_M_headERKSL_
FN:260,_ZNSt11_Tuple_implILm0EJN2xt15xdummy_iteratorILb1EdEEPKdEE7_M_tailERS5_
FNDA:0,_ZNSt11_Tuple_implILm0EJN2xt15xdummy_iteratorILb1EdEEPKdEE7_M_tailERS5_
FN:260,_ZNSt11_Tuple_implILm0EJN2xt15xscalar_stepperILb1EdEENS0_8xstepperIKNS0_16xarray_containerINS0_7uvectorIdSaIdEEELNS0_11layout_typeE1ENS0_7svectorImLm4ESaImELb1EEENS0_22xtensor_expression_tagEEEEEEE7_M_tailERSG_
FNDA:0,_ZNSt11_Tuple_implILm0EJN2xt15xscalar_stepperILb1EdEENS0_8xstepperIKNS0_16xarray_containerINS0_7uvectorIdSaIdEEELNS0_11layout_typeE1ENS0_7svectorImLm4ESaImELb1EEENS0_22xtensor_expression_tagEEEEEEE7_M_tailERSG_
FN:276,_ZNSt11_Tuple_implILm0EJN2xt15xdummy_iteratorILb1EdEEPKdEEC2IS2_JS4_EvEEOT_DpOT0_
FNDA:0,_ZNSt11_Tuple_implILm0EJN2xt15xdummy_iteratorILb1EdEEPKdEEC2IS2_JS4_EvEEOT_DpOT0_
FN:276,_ZNSt11_Tuple_implILm0EJPKdN2xt18xfunction_iteratorINS2_6detail10multipliesEJNS2_7xscalarIdEERKNS2_16xarray_containerINS2_7uvectorIdSaIdEEELNS2_11layout_typeE1ENS2_7svectorImLm4ESaImELb1EEENS2_22xtensor_expression_tagEEEEEEEEC2IS1_JSK_EvEEOT_DpOT0_
FNDA:0,_ZNSt11_Tuple_implILm0EJPKdN2xt18xfunction_iteratorINS2_6detail10multipliesEJNS2_7xscalarIdEERKNS2_16xarray_containerINS2_7uvectorIdSaIdEEELNS2_11layout_typeE1ENS2_7svectorImLm4ESaImELb1EEENS2_22xtensor_expression_tagEEEEEEEEC2IS1_JSK_EvEEOT_DpOT0_
FN:276,_ZNSt11_Tuple_implILm0EJRKN2xt16xarray_containerINS0_7uvectorIdSaIdEEELNS0_11layout_typeE1ENS0_7svectorImLm4ESaImELb1EEENS0_22xtensor_expression_tagEEERKNS0_9xfunctionINS0_6detail10multipliesEJNS0_7xscalarIdEESC_EEEEEC2IRSA_JSK_EvEEOT_DpOT0_
FNDA:0,_ZNSt11_Tuple_implILm0EJRKN2xt16xarray_containerINS0_7uvectorIdSaIdEEELNS0_11layout_typeE1ENS0_7svectorImLm4ESaImELb1EEENS0_22xtensor_expression_tagEEERKNS0_9xfunctionINS0_6detail10multipliesEJNS0_7xscalarIdEESC_EEEEEC2IRSA_JSK_EvEEOT_DpOT0_
FN:276,_ZNSt11_Tuple_implILm0EJN2xt8xstepperIKNS0_16xarray_containerINS0_7uvectorIdSaIdEEELNS0_11layout_typeE1ENS0_7svectorImLm4ESaImELb1EEENS0_22xtensor_expression_tagEEEEENS0_17xfunction_stepperINS0_6detail10multipliesEJNS0_7xscalarIdEERSC_EEEEEC2ISD_JSK_EvEEOT_DpOT0_
FNDA:0,_ZNSt11_Tuple_implILm0EJN2xt8xstepperIKNS0_16xarray_containerINS0_7uvectorIdSaIdEEELNS0_11layout_typeE1ENS0_7svectorImLm4ESaImELb1EEENS0_22xtensor_expression_tagEEEEENS0_17xfunction_stepperINS0_6detail10multipliesEJNS0_7xscalarIdEERSC_EEEEEC2ISD_JSK_EvEEOT_DpOT0_
FN:276,_ZNSt11_Tuple_implILm0EJN2xt15xscalar_stepperILb1EdEENS0_8xstepperIKNS0_16xarray_containerINS0_7uvectorIdSaIdEEELNS0_11layout_typeE1ENS0_7svectorImLm4ESaImELb1EEENS0_22xtensor_expression_tagEEEEEEEC2IS2_JSF_EvEEOT_DpOT0_
FNDA:0,_ZNSt11_Tuple_implILm0EJN2xt15xscalar_stepperILb1EdEENS0_8xstepperIKNS0_16xarray_containerINS0_7uvectorIdSaIdEEELNS0_11layout_typeE1ENS0_7svectorImLm4ESaImELb1EEENS0_22xtensor_expression_tagEEEEEEEC2IS2_JSF_EvEEOT_DpOT0_
FN:276,_ZNSt11_Tuple_implILm0EJN2xt7xscalarIdEERKNS0_16xarray_containerINS0_7uvectorIdSaIdEEELNS0_11layout_typeE1ENS0_7svectorImLm4ESaImELb1EEENS0_22xtensor_expression_tagEEEEEC2IdJRSC_EvEEOT_DpOT0_
FNDA:0,_ZNSt11_Tuple_implILm0EJN2xt7xscalarIdEERKNS0_16xarray_containerINS0_7uvectorIdSaIdEEELNS0_11layout_typeE1ENS0_7svectorImLm4ESaImELb1EEENS0_22xtensor_expression_tagEEEEEC2IdJRSC_EvEEOT_DpOT0_
FN:288,_ZNSt11_Tuple_implILm0EJN2xt15xscalar_stepperILb1EdEENS0_8xstepperIKNS0_16xarray_containerINS0_7uvectorIdSaIdEEELNS0_11layout_typeE1ENS0_7svectorImLm4ESaImELb1EEENS0_22xtensor_expression_tagEEEEEEEC2EOSG_
FNDA:0,_ZNSt11_Tuple_implILm0EJN2xt15xscalar_stepperILb1EdEENS0_8xstepperIKNS0_16xarray_containerINS0_7uvectorIdSaIdEEELNS0_11layout_typeE1ENS0_7svectorImLm4ESaImELb1EEENS0_22xtensor_expression_tagEEEEEEEC2EOSG_
FN:288,_ZNSt11_Tuple_implILm0EJN2xt15xdummy_iteratorILb1EdEEPKdEEC2EOS5_
FNDA:0,_ZNSt11_Tuple_implILm0EJN2xt15xdummy_iteratorILb1EdEEPKdEEC2EOS5_
FN:415,_ZNSt11_Tuple_implILm1EJN2xt17xfunction_stepperINS0_6detail10multipliesEJNS0_7xscalarIdEERKNS0_16xarray_containerINS0_7uvectorIdSaIdEEELNS0_11layout_typeE1ENS0_7svectorImLm4ESaImELb1EEENS0_22xtensor_expression_tagEEEEEEEE7_M_headERSJ_
FNDA:0,_ZNSt11_Tuple_implILm1EJN2xt17xfunction_stepperINS0_6detail10multipliesEJNS0_7xscalarIdEERKNS0_16xarray_containerINS0_7uvectorIdSaIdEEELNS0_11layout_typeE1ENS0_7svectorImLm4ESaImELb1EEENS0_22xtensor_expression_tagEEEEEEEE7_M_headERSJ_
FN:415,_ZNSt11_Tuple_implILm1EJPKdEE7_M_headERS2_
FNDA:0,_ZNSt11_Tuple_implILm1EJPKdEE7_M_headERS2_
FN:415,_ZNSt11_Tuple_implILm1EJN2xt8xstepperIKNS0_16xarray_containerINS0_7uvectorIdSaIdEEELNS0_11layout_typeE1ENS0_7svectorImLm4ESaImELb1EEENS0_22xtensor_expression_tagEEEEEEE7_M_headERSE_
FNDA:0,_ZNSt11_Tuple_implILm1EJN2xt8xstepperIKNS0_16xarray_containerINS0_7uvectorIdSaIdEEELNS0_11layout_typeE1ENS0_7svectorImLm4ESaImELb1EEENS0_22xtensor_expression_tagEEEEEEE7_M_headERSE_
FN:415,_ZNSt11_Tuple_implILm1EJN2xt18xfunction_iteratorINS0_6detail10multipliesEJNS0_7xscalarIdEERKNS0_16xarray_containerINS0_7uvectorIdSaIdEEELNS0_11layout_typeE1ENS0_7svectorImLm4ESaImELb1EEENS0_22xtensor_expression_tagEEEEEEEE7_M_headERSJ_
FNDA:0,_ZNSt11_Tuple_implILm1EJN2xt18xfunction_iteratorINS0_6detail10multipliesEJNS0_7xscalarIdEERKNS0_16xarray_containerINS0_7uvectorIdSaIdEEELNS0_11layout_typeE1ENS0_7svectorImLm4ESaImELb1EEENS0_22xtensor_expression_tagEEEEEEEE7_M_headERSJ_
FN:418,_ZNSt11_Tuple_implILm1EJRKN2xt9xfunctionINS0_6detail10multipliesEJNS0_7xscalarIdEERKNS0_16xarray_containerINS0_7uvectorIdSaIdEEELNS0_11layout_typeE1ENS0_7svectorImLm4ESaImELb1EEENS0_22xtensor_expression_tagEEEEEEEE7_M_headERKSL_
FNDA:0,_ZNSt11_Tuple_implILm1EJRKN2xt9xfunctionINS0_6detail10multipliesEJNS0_7xscalarIdEERKNS0_16xarray_containerINS0_7uvectorIdSaIdEEELNS0_11layout_typeE1ENS0_7svectorImLm4ESaImELb1EEENS0_22xtensor_expression_tagEEEEEEEE7_M_headERKSL_
FN:418,_ZNSt11_Tuple_implILm1EJN2xt18xfunction_iteratorINS0_6detail10multipliesEJNS0_7xscalarIdEERKNS0_16xarray_containerINS0_7uvectorIdSaIdEEELNS0_11layout_typeE1ENS0_7svectorImLm4ESaImELb1EEENS0_22xtensor_expression_tagEEEEEEEE7_M_headERKSJ_
FNDA:0,_ZNSt11_Tuple_implILm1EJN2xt18xfunction_iteratorINS0_6detail10multipliesEJNS0_7xscalarIdEERKNS0_16xarray_containerINS0_7uvectorIdSaIdEEELNS0_11layout_typeE1ENS0_7svectorImLm4ESaImELb1EEENS0_22xtensor_expression_tagEEEEEEEE7_M_headERKSJ_
FN:418,_ZNSt11_Tuple_implILm1EJN2xt17xfunction_stepperINS0_6detail10multipliesEJNS0_7xscalarIdEERKNS0_16xarray_containerINS0_7uvectorIdSaIdEEELNS0_11layout_typeE1ENS0_7svectorImLm4ESaImELb1EEENS0_22xtensor_expression_tagEEEEEEEE7_M_headERKSJ_
FNDA:0,_ZNSt11_Tuple_implILm1EJN2xt17xfunction_stepperINS0_6detail10multipliesEJNS0_7xscalarIdEERKNS0_16xarray_containerINS0_7uvectorIdSaIdEEELNS0_11layout_typeE1ENS0_7svectorImLm4ESaImELb1EEENS0_22xtensor_expression_tagEEEEEEEE7_M_headERKSJ_
FN:418,_ZNSt11_Tuple_implILm1EJPKdEE7_M_headERKS2_
FNDA:0,_ZNSt11_Tuple_implILm1EJPKdEE7_M_headERKS2_
FN:418,_ZNSt11_Tuple_implILm1EJN2xt8xstepperIKNS0_16xarray_containerINS0_7uvectorIdSaIdEEELNS0_11layout_typeE1ENS0_7svectorImLm4ESaImELb1EEENS0_22xtensor_expression_tagEEEEEEE7_M_headERKSE_
FNDA:0,_ZNSt11_Tuple_implILm1EJN2xt8xstepperIKNS0_16xarray_containerINS0_7uvectorIdSaIdEEELNS0_11layout_typeE1ENS0_7svectorImLm4ESaImELb1EEENS0_22xtensor_expression_tagEEEEEEE7_M_headERKSE_
FN:418,_ZNSt11_Tuple_implILm1EJRKN2xt16xarray_containerINS0_7uvectorIdSaIdEEELNS0_11layout_typeE1ENS0_7svectorImLm4ESaImELb1EEENS0_22xtensor_expression_tagEEEEE7_M_headERKSD_
FNDA:0,_ZNSt11_Tuple_implILm1EJRKN2xt16xarray_containerINS0_7uvectorIdSaIdEEELNS0_11layout_typeE1ENS0_7svectorImLm4ESaImELb1EEENS0_22xtensor_expression_tagEEEEE7_M_headERKSD_
FN:425,_ZNSt11_Tuple_implILm1EJRKN2xt9xfunctionINS0_6detail10multipliesEJNS0_7xscalarIdEERKNS0_16xarray_containerINS0_7uvectorIdSaIdEEELNS0_11layout_typeE1ENS0_7svectorImLm4ESaImELb1EEENS0_22xtensor_expression_tagEEEEEEEEC2ESK_
FNDA:0,_ZNSt11_Tuple_implILm1EJRKN2xt9xfunctionINS0_6detail10multipliesEJNS0_7xscalarIdEERKNS0_16xarray_containerINS0_7uvectorIdSaIdEEELNS0_11layout_typeE1ENS0_7svectorImLm4ESaImELb1EEENS0_22xtensor_expression_tagEEEEEEEEC2ESK_
FN:431,_ZNSt11_Tuple_implILm1EJN2xt17xfunction_stepperINS0_6detail10multipliesEJNS0_7xscalarIdEERKNS0_16xarray_containerINS0_7uvectorIdSaIdEEELNS0_11layout_typeE1ENS0_7svectorImLm4ESaImELb1EEENS0_22xtensor_expression_tagEEEEEEEEC2ISI_EEOT_
FNDA:0,_ZNSt11_Tuple_implILm1EJN2xt17xfunction_stepperINS0_6detail10multipliesEJNS0_7xscalarIdEERKNS0_16xarray_containerINS0_7uvectorIdSaIdEEELNS0_11layout_typeE1ENS0_7svectorImLm4ESaImELb1EEENS0_22xtensor_expression_tagEEEEEEEEC2ISI_EEOT_
FN:431,_ZNSt11_Tuple_implILm1EJRKN2xt16xarray_containerINS0_7uvectorIdSaIdEEELNS0_11layout_typeE1ENS0_7svectorImLm4ESaImELb1EEENS0_22xtensor_expression_tagEEEEEC2IRSA_EEOT_
FNDA:0,_ZNSt11_Tuple_implILm1EJRKN2xt16xarray_containerINS0_7uvectorIdSaIdEEELNS0_11layout_typeE1ENS0_7svectorImLm4ESaImELb1EEENS0_22xtensor_expression_tagEEEEEC2IRSA_EEOT_
FN:431,_ZNSt11_Tuple_implILm1EJN2xt18xfunction_iteratorINS0_6detail10multipliesEJNS0_7xscalarIdEERKNS0_16xarray_containerINS0_7uvectorIdSaIdEEELNS0_11layout_typeE1ENS0_7svectorImLm4ESaImELb1EEENS0_22xtensor_expression_tagEEEEEEEEC2ISI_EEOT_
FNDA:0,_ZNSt11_Tuple_implILm1EJN2xt18xfunction_iteratorINS0_6detail10multipliesEJNS0_7xscalarIdEERKNS0_16xarray_containerINS0_7uvectorIdSaIdEEELNS0_11layout_typeE1ENS0_7svectorImLm4ESaImELb1EEENS0_22xtensor_expression_tagEEEEEEEEC2ISI_EEOT_
FN:431,_ZNSt11_Tuple_implILm1EJPKdEEC2IS1_EEOT_
FNDA:0,_ZNSt11_Tuple_implILm1EJPKdEEC2IS1_EEOT_
FN:431,_ZNSt11_Tuple_implILm1EJN2xt8xstepperIKNS0_16xarray_containerINS0_7uvectorIdSaIdEEELNS0_11layout_typeE1ENS0_7svectorImLm4ESaImELb1EEENS0_22xtensor_expression_tagEEEEEEEC2ISD_EEOT_
FNDA:0,_ZNSt11_Tuple_implILm1EJN2xt8xstepperIKNS0_16xarray_containerINS0_7uvectorIdSaIdEEELNS0_11layout_typeE1ENS0_7svectorImLm4ESaImELb1EEENS0_22xtensor_expression_tagEEEEEEEC2ISD_EEOT_
FN:442,_ZNSt11_Tuple_implILm1EJN2xt8xstepperIKNS0_16xarray_containerINS0_7uvectorIdSaIdEEELNS0_11layout_typeE1ENS0_7svectorImLm4ESaImELb1EEENS0_22xtensor_expression_tagEEEEEEEC2EOSE_
FNDA:0,_ZNSt11_Tuple_implILm1EJN2xt8xstepperIKNS0_16xarray_containerINS0_7uvectorIdSaIdEEELNS0_11layout_typeE1ENS0_7svectorImLm4ESaImELb1EEENS0_22xtensor_expression_tagEEEEEEEC2EOSE_
FN:442,_ZNSt11_Tuple_implILm1EJPKdEEC2EOS2_
FNDA:0,_ZNSt11_Tuple_implILm1EJPKdEEC2EOS2_
FN:1066,_ZNSt5tupleIJPKdN2xt18xfunction_iteratorINS2_6detail10multipliesEJNS2_7xscalarIdEERKNS2_16xarray_containerINS2_7uvectorIdSaIdEEELNS2_11layout_typeE1ENS2_7svectorImLm4ESaImELb1EEENS2_22xtensor_expression_tagEEEEEEEEC2IS1_SK_Lb1EEEOT_OT0_
FNDA:0,_ZNSt5tupleIJPKdN2xt18xfunction_iteratorINS2_6detail10multipliesEJNS2_7xscalarIdEERKNS2_16xarray_containerINS2_7uvectorIdSaIdEEELNS2_11layout_typeE1ENS2_7svectorImLm4ESaImELb1EEENS2_22xtensor_expression_tagEEEEEEEEC2IS1_SK_Lb1EEEOT_OT0_
FN:1066,_ZNSt5tupleIJN2xt7xscalarIdEERKNS0_16xarray_containerINS0_7uvectorIdSaIdEEELNS0_11layout_typeE1ENS0_7svectorImLm4ESaImELb1EEENS0_22xtensor_expression_tagEEEEEC2IdRSC_Lb1EEEOT_OT0_
FNDA:0,_ZNSt5tupleIJN2xt7xscalarIdEERKNS0_16xarray_containerINS0_7uvectorIdSaIdEEELNS0_11layout_typeE1ENS0_7svectorImLm4ESaImELb1EEENS0_22xtensor_expression_tagEEEEEC2IdRSC_Lb1EEEOT_OT0_
FN:1066,_ZNSt5tupleIJRKN2xt16xarray_containerINS0_7uvectorIdSaIdEEELNS0_11layout_typeE1ENS0_7svectorImLm4ESaImELb1EEENS0_22xtensor_expression_tagEEERKNS0_9xfunctionINS0_6detail10multipliesEJNS0_7xscalarIdEESC_EEEEEC2IRSA_SK_Lb1EEEOT_OT0_
FNDA:0,_ZNSt5tupleIJRKN2xt16xarray_containerINS0_7uvectorIdSaIdEEELNS0_11layout_typeE1ENS0_7svectorImLm4ESaImELb1EEENS0_22xtensor_expression_tagEEERKNS0_9xfunctionINS0_6detail10multipliesEJNS0_7xscalarIdEESC_EEEEEC2IRSA_SK_Lb1EEEOT_OT0_
FN:1066,_ZNSt5tupleIJN2xt15xdummy_iteratorILb1EdEEPKdEEC2IS2_S4_Lb1EEEOT_OT0_
FNDA:0,_ZNSt5tupleIJN2xt15xdummy_iteratorILb1EdEEPKdEEC2IS2_S4_Lb1EEEOT_OT0_
FN:1066,_ZNSt5tupleIJN2xt8xstepperIKNS0_16xarray_containerINS0_7uvectorIdSaIdEEELNS0_11layout_typeE1ENS0_7svectorImLm4ESaImELb1EEENS0_22xtensor_expression_tagEEEEENS0_17xfunction_stepperINS0_6detail10multipliesEJNS0_7xscalarIdEERSC_EEEEEC2ISD_SK_Lb1EEEOT_OT0_
FNDA:0,_ZNSt5tupleIJN2xt8xstepperIKNS0_16xarray_containerINS0_7uvectorIdSaIdEEELNS0_11layout_typeE1ENS0_7svectorImLm4ESaImELb1EEENS0_22xtensor_expression_tagEEEEENS0_17xfunction_stepperINS0_6detail10multipliesEJNS0_7xscalarIdEERSC_EEEEEC2ISD_SK_Lb1EEEOT_OT0_
FN:1066,_ZNSt5tupleIJN2xt15xscalar_stepperILb1EdEENS0_8xstepperIKNS0_16xarray_containerINS0_7uvectorIdSaIdEEELNS0_11layout_typeE1ENS0_7svectorImLm4ESaImELb1EEENS0_22xtensor_expression_tagEEEEEEEC2IS2_SF_Lb1EEEOT_OT0_
FNDA:0,_ZNSt5tupleIJN2xt15xscalar_stepperILb1EdEENS0_8xstepperIKNS0_16xarray_containerINS0_7uvectorIdSaIdEEELNS0_11layout_typeE1ENS0_7svectorImLm4ESaImELb1EEENS0_22xtensor_expression_tagEEEEEEEC2IS2_SF_Lb1EEEOT_OT0_
FN:1079,_ZNSt5tupleIJN2xt15xscalar_stepperILb1EdEENS0_8xstepperIKNS0_16xarray_containerINS0_7uvectorIdSaIdEEELNS0_11layout_typeE1ENS0_7svectorImLm4ESaImELb1EEENS0_22xtensor_expression_tagEEEEEEEC2EOSG_
FNDA:0,_ZNSt5tupleIJN2xt15xscalar_stepperILb1EdEENS0_8xstepperIKNS0_16xarray_containerINS0_7uvectorIdSaIdEEELNS0_11layout_typeE1ENS0_7svectorImLm4ESaImELb1EEENS0_22xtensor_expression_tagEEEEEEEC2EOSG_
FN:1079,_ZNSt5tupleIJN2xt15xdummy_iteratorILb1EdEEPKdEEC2EOS5_
FNDA:0,_ZNSt5tupleIJN2xt15xdummy_iteratorILb1EdEEPKdEEC2EOS5_
FN:1366,_ZSt12__get_helperILm0EPKdJN2xt18xfunction_iteratorINS2_6detail10multipliesEJNS2_7xscalarIdEERKNS2_16xarray_containerINS2_7uvectorIdSaIdEEELNS2_11layout_typeE1ENS2_7svectorImLm4ESaImELb1EEENS2_22xtensor_expression_tagEEEEEEEERT0_RSt11_Tuple_implIXT_EJSL_DpT1_EE
FNDA:0,_ZSt12__get_helperILm0EPKdJN2xt18xfunction_iteratorINS2_6detail10multipliesEJNS2_7xscalarIdEERKNS2_16xarray_containerINS2_7uvectorIdSaIdEEELNS2_11layout_typeE1ENS2_7svectorImLm4ESaImELb1EEENS2_22xtensor_expression_tagEEEEEEEERT0_RSt11_Tuple_implIXT_EJSL_DpT1_EE
FN:1366,_ZSt12__get_helperILm1EPKdJEERT0_RSt11_Tuple_implIXT_EJS2_DpT1_EE
FNDA:0,_ZSt12__get_helperILm1EPKdJEERT0_RSt11_Tuple_implIXT_EJS2_DpT1_EE
FN:1366,_ZSt12__get_helperILm1EN2xt18xfunction_iteratorINS0_6detail10multipliesEJNS0_7xscalarIdEERKNS0_16xarray_containerINS0_7uvectorIdSaIdEEELNS0_11layout_typeE1ENS0_7svectorImLm4ESaImELb1EEENS0_22xtensor_expression_tagEEEEEEJEERT0_RSt11_Tuple_implIXT_EJSJ_DpT1_EE
FNDA:0,_ZSt12__get_helperILm1EN2xt18xfunction_iteratorINS0_6detail10multipliesEJNS0_7xscalarIdEERKNS0_16xarray_containerINS0_7uvectorIdSaIdEEELNS0_11layout_typeE1ENS0_7svectorImLm4ESaImELb1EEENS0_22xtensor_expression_tagEEEEEEJEERT0_RSt11_Tuple_implIXT_EJSJ_DpT1_EE
FN:1366,_ZSt12__get_helperILm0EN2xt8xstepperIKNS0_16xarray_containerINS0_7uvectorIdSaIdEEELNS0_11layout_typeE1ENS0_7svectorImLm4ESaImELb1EEENS0_22xtensor_expression_tagEEEEEJNS0_17xfunction_stepperINS0_6detail10multipliesEJNS0_7xscalarIdEERSC_EEEEERT0_RSt11_Tuple_implIXT_EJSL_DpT1_EE
FNDA:0,_ZSt12__get_helperILm0EN2xt8xstepperIKNS0_16xarray_containerINS0_7uvectorIdSaIdEEELNS0_11layout_typeE1ENS0_7svectorImLm4ESaImELb1EEENS0_22xtensor_expression_tagEEEEEJNS0_17xfunction_stepperINS0_6detail10multipliesEJNS0_7xscalarIdEERSC_EEEEERT0_RSt11_Tuple_implIXT_EJSL_DpT1_EE
FN:1366,_ZSt12__get_helperILm0EN2xt15xscalar_stepperILb1EdEEJNS0_8xstepperIKNS0_16xarray_containerINS0_7uvectorIdSaIdEEELNS0_11layout_typeE1ENS0_7svectorImLm4ESaImELb1EEENS0_22xtensor_expression_tagEEEEEEERT0_RSt11_Tuple_implIXT_EJSG_DpT1_EE
FNDA:0,_ZSt12__get_helperILm0EN2xt15xscalar_stepperILb1EdEEJNS0_8xstepperIKNS0_16xarray_containerINS0_7uvectorIdSaIdEEELNS0_11layout_typeE1ENS0_7svectorImLm4ESaImELb1EEENS0_22xtensor_expression_tagEEEEEEERT0_RSt11_Tuple_implIXT_EJSG_DpT1_EE
FN:1366,_ZSt12__get_helperILm1EN2xt17xfunction_stepperINS0_6detail10multipliesEJNS0_7xscalarIdEERKNS0_16xarray_containerINS0_7uvectorIdSaIdEEELNS0_11layout_typeE1ENS0_7svectorImLm4ESaImELb1EEENS0_22xtensor_expression_tagEEEEEEJEERT0_RSt11_Tuple_implIXT_EJSJ_DpT1_EE
FNDA:0,_ZSt12__get_helperILm1EN2xt17xfunction_stepperINS0_6detail10multipliesEJNS0_7xscalarIdEERKNS0_16xarray_containerINS0_7uvectorIdSaIdEEELNS0_11layout_typeE1ENS0_7svectorImLm4ESaImELb1EEENS0_22xtensor_expression_tagEEEEEEJEERT0_RSt11_Tuple_implIXT_EJSJ_DpT1_EE
FN:1366,_ZSt12__get_helperILm1EN2xt8xstepperIKNS0_16xarray_containerINS0_7uvectorIdSaIdEEELNS0_11layout_typeE1ENS0_7svectorImLm4ESaImELb1EEENS0_22xtensor_expression_tagEEEEEJEERT0_RSt11_Tuple_implIXT_EJSE_DpT1_EE
FNDA:0,_ZSt12__get_helperILm1EN2xt8xstepperIKNS0_16xarray_containerINS0_7uvectorIdSaIdEEELNS0_11layout_typeE1ENS0_7svectorImLm4ESaImELb1EEENS0_22xtensor_expression_tagEEEEEJEERT0_RSt11_Tuple_implIXT_EJSE_DpT1_EE
FN:1366,_ZSt12__get_helperILm0EN2xt15xdummy_iteratorILb1EdEEJPKdEERT0_RSt11_Tuple_implIXT_EJS5_DpT1_EE
FNDA:0,_ZSt12__get_helperILm0EN2xt15xdummy_iteratorILb1EdEEJPKdEERT0_RSt11_Tuple_implIXT_EJS5_DpT1_EE
FN:1371,_ZSt12__get_helperILm1EN2xt8xstepperIKNS0_16xarray_containerINS0_7uvectorIdSaIdEEELNS0_11layout_typeE1ENS0_7svectorImLm4ESaImELb1EEENS0_22xtensor_expression_tagEEEEEJEERKT0_RKSt11_Tuple_implIXT_EJSE_DpT1_EE
FNDA:0,_ZSt12__get_helperILm1EN2xt8xstepperIKNS0_16xarray_containerINS0_7uvectorIdSaIdEEELNS0_11layout_typeE1ENS0_7svectorImLm4ESaImELb1EEENS0_22xtensor_expression_tagEEEEEJEERKT0_RKSt11_Tuple_implIXT_EJSE_DpT1_EE
FN:1371,_ZSt12__get_helperILm0EN2xt15xscalar_stepperILb1EdEEJNS0_8xstepperIKNS0_16xarray_containerINS0_7uvectorIdSaIdEEELNS0_11layout_typeE1ENS0_7svectorImLm4ESaImELb1EEENS0_22xtensor_expression_tagEEEEEEERKT0_RKSt11_Tuple_implIXT_EJSG_DpT1_EE
FNDA:0,_ZSt12__get_helperILm0EN2xt15xscalar_stepperILb1EdEEJNS0_8xstepperIKNS0_16xarray_containerINS0_7uvectorIdSaIdEEELNS0_11layout_typeE1ENS0_7svectorImLm4ESaImELb1EEENS0_22xtensor_expression_tagEEEEEEERKT0_RKSt11_Tuple_implIXT_EJSG_DpT1_EE
FN:1371,_ZSt12__get_helperILm1EN2xt17xfunction_stepperINS0_6detail10multipliesEJNS0_7xscalarIdEERKNS0_16xarray_containerINS0_7uvectorIdSaIdEEELNS0_11layout_typeE1ENS0_7svectorImLm4ESaImELb1EEENS0_22xtensor_expression_tagEEEEEEJEERKT0_RKSt11_Tuple_implIXT_EJSJ_DpT1_EE
FNDA:0,_ZSt12__get_helperILm1EN2xt17xfunction_stepperINS0_6detail10multipliesEJNS0_7xscalarIdEERKNS0_16xarray_containerINS0_7uvectorIdSaIdEEELNS0_11layout_typeE1ENS0_7svectorImLm4ESaImELb1EEENS0_22xtensor_expression_tagEEEEEEJEERKT0_RKSt11_Tuple_implIXT_EJSJ_DpT1_EE
FN:1371,_ZSt12__get_helperILm0EN2xt8xstepperIKNS0_16xarray_containerINS0_7uvectorIdSaIdEEELNS0_11layout_typeE1ENS0_7svectorImLm4ESaImELb1EEENS0_22xtensor_expression_tagEEEEEJNS0_17xfunction_stepperINS0_6detail10multipliesEJNS0_7xscalarIdEERSC_EEEEERKT0_RKSt11_Tuple_implIXT_EJSL_DpT1_EE
FNDA:0,_ZSt12__get_helperILm0EN2xt8xstepperIKNS0_16xarray_containerINS0_7uvectorIdSaIdEEELNS0_11layout_typeE1ENS0_7svectorImLm4ESaImELb1EEENS0_22xtensor_expression_tagEEEEEJNS0_17xfunction_stepperINS0_6detail10multipliesEJNS0_7xscalarIdEERSC_EEEEERKT0_RKSt11_Tuple_implIXT_EJSL_DpT1_EE
FN:1371,_ZSt12__get_helperILm0ERKN2xt16xarray_containerINS0_7uvectorIdSaIdEEELNS0_11layout_typeE1ENS0_7svectorImLm4ESaImELb1EEENS0_22xtensor_expression_tagEEEJRKNS0_9xfunctionINS0_6detail10multipliesEJNS0_7xscalarIdEESC_EEEEERKT0_RKSt11_Tuple_implIXT_EJSL_DpT1_EE
FNDA:0,_ZSt12__get_helperILm0ERKN2xt16xarray_containerINS0_7uvectorIdSaIdEEELNS0_11layout_typeE1ENS0_7svectorImLm4ESaImELb1EEENS0_22xtensor_expression_tagEEEJRKNS0_9xfunctionINS0_6detail10multipliesEJNS0_7xscalarIdEESC_EEEEERKT0_RKSt11_Tuple_implIXT_EJSL_DpT1_EE
FN:1371,_ZSt12__get_helperILm0EPKdJN2xt18xfunction_iteratorINS2_6detail10multipliesEJNS2_7xscalarIdEERKNS2_16xarray_containerINS2_7uvectorIdSaIdEEELNS2_11layout_typeE1ENS2_7svectorImLm4ESaImELb1EEENS2_22xtensor_expression_tagEEEEEEEERKT0_RKSt11_Tuple_implIXT_EJSL_DpT1_EE
FNDA:0,_ZSt12__get_helperILm0EPKdJN2xt18xfunction_iteratorINS2_6detail10multipliesEJNS2_7xscalarIdEERKNS2_16xarray_containerINS2_7uvectorIdSaIdEEELNS2_11layout_typeE1ENS2_7svectorImLm4ESaImELb1EEENS2_22xtensor_expression_tagEEEEEEEERKT0_RKSt11_Tuple_implIXT_EJSL_DpT1_EE
FN:1371,_ZSt12__get_helperILm1EN2xt18xfunction_iteratorINS0_6detail10multipliesEJNS0_7xscalarIdEERKNS0_16xarray_containerINS0_7uvectorIdSaIdEEELNS0_11layout_typeE1ENS0_7svectorImLm4ESaImELb1EEENS0_22xtensor_expression_tagEEEEEEJEERKT0_RKSt11_Tuple_implIXT_EJSJ_DpT1_EE
FNDA:0,_ZSt12__get_helperILm1EN2xt18xfunction_iteratorINS0_6detail10multipliesEJNS0_7xscalarIdEERKNS0_16xarray_containerINS0_7uvectorIdSaIdEEELNS0_11layout_typeE1ENS0_7svectorImLm4ESaImELb1EEENS0_22xtensor_expression_tagEEEEEEJEERKT0_RKSt11_Tuple_implIXT_EJSJ_DpT1_EE
FN:1371,_ZSt12__get_helperILm1ERKN2xt16xarray_containerINS0_7uvectorIdSaIdEEELNS0_11layout_typeE1ENS0_7svectorImLm4ESaImELb1EEENS0_22xtensor_expression_tagEEEJEERKT0_RKSt11_Tuple_implIXT_EJSD_DpT1_EE
FNDA:0,_ZSt12__get_helperILm1ERKN2xt16xarray_containerINS0_7uvectorIdSaIdEEELNS0_11layout_typeE1ENS0_7svectorImLm4ESaImELb1EEENS0_22xtensor_expression_tagEEEJEERKT0_RKSt11_Tuple_implIXT_EJSD_DpT1_EE
FN:1371,_ZSt12__get_helperILm0EN2xt7xscalarIdEEJRKNS0_16xarray_containerINS0_7uvectorIdSaIdEEELNS0_11layout_typeE1ENS0_7svectorImLm4ESaImELb1EEENS0_22xtensor_expression_tagEEEEERKT0_RKSt11_Tuple_implIXT_EJSF_DpT1_EE
FNDA:0,_ZSt12__get_helperILm0EN2xt7xscalarIdEEJRKNS0_16xarray_containerINS0_7uvectorIdSaIdEEELNS0_11layout_typeE1ENS0_7svectorImLm4ESaImELb1EEENS0_22xtensor_expression_tagEEEEERKT0_RKSt11_Tuple_implIXT_EJSF_DpT1_EE
FN:1371,_ZSt12__get_helperILm1EPKdJEERKT0_RKSt11_Tuple_implIXT_EJS2_DpT1_EE
FNDA:0,_ZSt12__get_helperILm1EPKdJEERKT0_RKSt11_Tuple_implIXT_EJS2_DpT1_EE
FN:1371,_ZSt12__get_helperILm1ERKN2xt9xfunctionINS0_6detail10multipliesEJNS0_7xscalarIdEERKNS0_16xarray_containerINS0_7uvectorIdSaIdEEELNS0_11layout_typeE1ENS0_7svectorImLm4ESaImELb1EEENS0_22xtensor_expression_tagEEEEEEJEERKT0_RKSt11_Tuple_implIXT_EJSL_DpT1_EE
FNDA:0,_ZSt12__get_helperILm1ERKN2xt9xfunctionINS0_6detail10multipliesEJNS0_7xscalarIdEERKNS0_16xarray_containerINS0_7uvectorIdSaIdEEELNS0_11layout_typeE1ENS0_7svectorImLm4ESaImELb1EEENS0_22xtensor_expression_tagEEEEEEJEERKT0_RKSt11_Tuple_implIXT_EJSL_DpT1_EE
FN:1371,_ZSt12__get_helperILm0EN2xt15xdummy_iteratorILb1EdEEJPKdEERKT0_RKSt11_Tuple_implIXT_EJS5_DpT1_EE
FNDA:0,_ZSt12__get_helperILm0EN2xt15xdummy_iteratorILb1EdEEJPKdEERKT0_RKSt11_Tuple_implIXT_EJS5_DpT1_EE
FN:1377,_ZSt3getILm0EJN2xt8xstepperIKNS0_16xarray_containerINS0_7uvectorIdSaIdEEELNS0_11layout_typeE1ENS0_7svectorImLm4ESaImELb1EEENS0_22xtensor_expression_tagEEEEENS0_17xfunction_stepperINS0_6detail10multipliesEJNS0_7xscalarIdEERSC_EEEEERNSt13tuple_elementIXT_ESt5tupleIJDpT0_EEE4typeERSP_
FNDA:0,_ZSt3getILm0EJN2xt8xstepperIKNS0_16xarray_containerINS0_7uvectorIdSaIdEEELNS0_11layout_typeE1ENS0_7svectorImLm4ESaImELb1EEENS0_22xtensor_expression_tagEEEEENS0_17xfunction_stepperINS0_6detail10multipliesEJNS0_7xscalarIdEERSC_EEEEERNSt13tuple_elementIXT_ESt5tupleIJDpT0_EEE4typeERSP_
FN:1377,_ZSt3getILm1EJN2xt15xdummy_iteratorILb1EdEEPKdEERNSt13tuple_elementIXT_ESt5tupleIJDpT0_EEE4typeERS9_
FNDA:0,_ZSt3getILm1EJN2xt15xdummy_iteratorILb1EdEEPKdEERNSt13tuple_elementIXT_ESt5tupleIJDpT0_EEE4typeERS9_
FN:1377,_ZSt3getILm0EJPKdN2xt18xfunction_iteratorINS2_6detail10multipliesEJNS2_7xscalarIdEERKNS2_16xarray_containerINS2_7uvectorIdSaIdEEELNS2_11layout_typeE1ENS2_7svectorImLm4ESaImELb1EEENS2_22xtensor_expression_tagEEEEEEEERNSt13tuple_elementIXT_ESt5tupleIJDpT0_EEE4typeERSP_
FNDA:0,_ZSt3getILm0EJPKdN2xt18xfunction_iteratorINS2_6detail10multipliesEJNS2_7xscalarIdEERKNS2_16xarray_containerINS2_7uvectorIdSaIdEEELNS2_11layout_typeE1ENS2_7svectorImLm4ESaImELb1EEENS2_22xtensor_expression_tagEEEEEEEERNSt13tuple_elementIXT_ESt5tupleIJDpT0_EEE4typeERSP_
FN:1377,_ZSt3getILm1EJPKdN2xt18xfunction_iteratorINS2_6detail10multipliesEJNS2_7xscalarIdEERKNS2_16xarray_containerINS2_7uvectorIdSaIdEEELNS2_11layout_typeE1ENS2_7svectorImLm4ESaImELb1EEENS2_22xtensor_expression_tagEEEEEEEERNSt13tuple_elementIXT_ESt5tupleIJDpT0_EEE4typeERSP_
FNDA:0,_ZSt3getILm1EJPKdN2xt18xfunction_iteratorINS2_6detail10multipliesEJNS2_7xscalarIdEERKNS2_16xarray_containerINS2_7uvectorIdSaIdEEELNS2_11layout_typeE1ENS2_7svectorImLm4ESaImELb1EEENS2_22xtensor_expression_tagEEEEEEEERNSt13tuple_elementIXT_ESt5tupleIJDpT0_EEE4typeERSP_
FN:1377,_ZSt3getILm1EJN2xt8xstepperIKNS0_16xarray_containerINS0_7uvectorIdSaIdEEELNS0_11layout_typeE1ENS0_7svectorImLm4ESaImELb1EEENS0_22xtensor_expression_tagEEEEENS0_17xfunction_stepperINS0_6detail10multipliesEJNS0_7xscalarIdEERSC_EEEEERNSt13tuple_elementIXT_ESt5tupleIJDpT0_EEE4typeERSP_
FNDA:0,_ZSt3getILm1EJN2xt8xstepperIKNS0_16xarray_containerINS0_7uvectorIdSaIdEEELNS0_11layout_typeE1ENS0_7svectorImLm4ESaImELb1EEENS0_22xtensor_expression_tagEEEEENS0_17xfunction_stepperINS0_6detail10multipliesEJNS0_7xscalarIdEERSC_EEEEERNSt13tuple_elementIXT_ESt5tupleIJDpT0_EEE4typeERSP_
FN:1377,_ZSt3getILm1EJN2xt15xscalar_stepperILb1EdEENS0_8xstepperIKNS0_16xarray_containerINS0_7uvectorIdSaIdEEELNS0_11layout_typeE1ENS0_7svectorImLm4ESaImELb1EEENS0_22xtensor_expression_tagEEEEEEERNSt13tuple_elementIXT_ESt5tupleIJDpT0_EEE4typeERSK_
FNDA:0,_ZSt3getILm1EJN2xt15xscalar_stepperILb1EdEENS0_8xstepperIKNS0_16xarray_containerINS0_7uvectorIdSaIdEEELNS0_11layout_typeE1ENS0_7svectorImLm4ESaImELb1EEENS0_22xtensor_expression_tagEEEEEEERNSt13tuple_elementIXT_ESt5tupleIJDpT0_EEE4typeERSK_
FN:1377,_ZSt3getILm0EJN2xt15xdummy_iteratorILb1EdEEPKdEERNSt13tuple_elementIXT_ESt5tupleIJDpT0_EEE4typeERS9_
FNDA:0,_ZSt3getILm0EJN2xt15xdummy_iteratorILb1EdEEPKdEERNSt13tuple_elementIXT_ESt5tupleIJDpT0_EEE4typeERS9_
FN:1377,_ZSt3getILm0EJN2xt15xscalar_stepperILb1EdEENS0_8xstepperIKNS0_16xarray_containerINS0_7uvectorIdSaIdEEELNS0_11layout_typeE1ENS0_7svectorImLm4ESaImELb1EEENS0_22xtensor_expression_tagEEEEEEERNSt13tuple_elementIXT_ESt5tupleIJDpT0_EEE4typeERSK_
FNDA:0,_ZSt3getILm0EJN2xt15xscalar_stepperILb1EdEENS0_8xstepperIKNS0_16xarray_containerINS0_7uvectorIdSaIdEEELNS0_11layout_typeE1ENS0_7svectorImLm4ESaImELb1EEENS0_22xtensor_expression_tagEEEEEEERNSt13tuple_elementIXT_ESt5tupleIJDpT0_EEE4typeERSK_
FN:1383,_ZSt3getILm1EJN2xt8xstepperIKNS0_16xarray_containerINS0_7uvectorIdSaIdEEELNS0_11layout_typeE1ENS0_7svectorImLm4ESaImELb1EEENS0_22xtensor_expression_tagEEEEENS0_17xfunction_stepperINS0_6detail10multipliesEJNS0_7xscalarIdEERSC_EEEEERKNSt13tuple_elementIXT_ESt5tupleIJDpT0_EEE4typeERKSP_
FNDA:0,_ZSt3getILm1EJN2xt8xstepperIKNS0_16xarray_containerINS0_7uvectorIdSaIdEEELNS0_11layout_typeE1ENS0_7svectorImLm4ESaImELb1EEENS0_22xtensor_expression_tagEEEEENS0_17xfunction_stepperINS0_6detail10multipliesEJNS0_7xscalarIdEERSC_EEEEERKNSt13tuple_elementIXT_ESt5tupleIJDpT0_EEE4typeERKSP_
FN:1383,_ZSt3getILm1EJN2xt15xdummy_iteratorILb1EdEEPKdEERKNSt13tuple_elementIXT_ESt5tupleIJDpT0_EEE4typeERKS9_
FNDA:0,_ZSt3getILm1EJN2xt15xdummy_iteratorILb1EdEEPKdEERKNSt13tuple_elementIXT_ESt5tupleIJDpT0_EEE4typeERKS9_
FN:1383,_ZSt3getILm0EJRKN2xt16xarray_containerINS0_7uvectorIdSaIdEEELNS0_11layout_typeE1ENS0_7svectorImLm4ESaImELb1EEENS0_22xtensor_expression_tagEEERKNS0_9xfunctionINS0_6detail10multipliesEJNS0_7xscalarIdEESC_EEEEERKNSt13tuple_elementIXT_ESt5tupleIJDpT0_EEE4typeERKSP_
FNDA:0,_ZSt3getILm0EJRKN2xt16xarray_containerINS0_7uvectorIdSaIdEEELNS0_11layout_typeE1ENS0_7svectorImLm4ESaImELb1EEENS0_22xtensor_expression_tagEEERKNS0_9xfunctionINS0_6detail10multipliesEJNS0_7xscalarIdEESC_EEEEERKNSt13tuple_elementIXT_ESt5tupleIJDpT0_EEE4typeERKSP_
FN:1383,_ZSt3getILm1EJRKN2xt16xarray_containerINS0_7uvectorIdSaIdEEELNS0_11layout_typeE1ENS0_7svectorImLm4ESaImELb1EEENS0_22xtensor_expression_tagEEERKNS0_9xfunctionINS0_6detail10multipliesEJNS0_7xscalarIdEESC_EEEEERKNSt13tuple_elementIXT_ESt5tupleIJDpT0_EEE4typeERKSP_
FNDA:0,_ZSt3getILm1EJRKN2xt16xarray_containerINS0_7uvectorIdSaIdEEELNS0_11layout_typeE1ENS0_7svectorImLm4ESaImELb1EEENS0_22xtensor_expression_tagEEERKNS0_9xfunctionINS0_6detail10multipliesEJNS0_7xscalarIdEESC_EEEEERKNSt13tuple_elementIXT_ESt5tupleIJDpT0_EEE4typeERKSP_
FN:1383,_ZSt3getILm0EJN2xt7xscalarIdEERKNS0_16xarray_containerINS0_7uvectorIdSaIdEEELNS0_11layout_typeE1ENS0_7svectorImLm4ESaImELb1EEENS0_22xtensor_expression_tagEEEEERKNSt13tuple_elementIXT_ESt5tupleIJDpT0_EEE4typeERKSJ_
FNDA:0,_ZSt3getILm0EJN2xt7xscalarIdEERKNS0_16xarray_containerINS0_7uvectorIdSaIdEEELNS0_11layout_typeE1ENS0_7svectorImLm4ESaImELb1EEENS0_22xtensor_expression_tagEEEEERKNSt13tuple_elementIXT_ESt5tupleIJDpT0_EEE4typeERKSJ_
FN:1383,_ZSt3getILm1EJN2xt7xscalarIdEERKNS0_16xarray_containerINS0_7uvectorIdSaIdEEELNS0_11layout_typeE1ENS0_7svectorImLm4ESaImELb1EEENS0_22xtensor_expression_tagEEEEERKNSt13tuple_elementIXT_ESt5tupleIJDpT0_EEE4typeERKSJ_
FNDA:0,_ZSt3getILm1EJN2xt7xscalarIdEERKNS0_16xarray_containerINS0_7uvectorIdSaIdEEELNS0_11layout_typeE1ENS0_7svectorImLm4ESaImELb1EEENS0_22xtensor_expression_tagEEEEERKNSt13tuple_elementIXT_ESt5tupleIJDpT0_EEE4typeERKSJ_
FN:1383,_ZSt3getILm0EJN2xt8xstepperIKNS0_16xarray_containerINS0_7uvectorIdSaIdEEELNS0_11layout_typeE1ENS0_7svectorImLm4ESaImELb1EEENS0_22xtensor_expression_tagEEEEENS0_17xfunction_stepperINS0_6detail10multipliesEJNS0_7xscalarIdEERSC_EEEEERKNSt13tuple_elementIXT_ESt5tupleIJDpT0_EEE4typeERKSP_
FNDA:0,_ZSt3getILm0EJN2xt8xstepperIKNS0_16xarray_containerINS0_7uvectorIdSaIdEEELNS0_11layout_typeE1ENS0_7svectorImLm4ESaImELb1EEENS0_22xtensor_expression_tagEEEEENS0_17xfunction_stepperINS0_6detail10multipliesEJNS0_7xscalarIdEERSC_EEEEERKNSt13tuple_elementIXT_ESt5tupleIJDpT0_EEE4typeERKSP_
FN:1383,_ZSt3getILm1EJN2xt15xscalar_stepperILb1EdEENS0_8xstepperIKNS0_16xarray_containerINS0_7uvectorIdSaIdEEELNS0_11layout_typeE1ENS0_7svectorImLm4ESaImELb1EEENS0_22xtensor_expression_tagEEEEEEERKNSt13tuple_elementIXT_ESt5tupleIJDpT0_EEE4typeERKSK_
FNDA:0,_ZSt3getILm1EJN2xt15xscalar_stepperILb1EdEENS0_8xstepperIKNS0_16xarray_containerINS0_7uvectorIdSaIdEEELNS0_11layout_typeE1ENS0_7svectorImLm4ESaImELb1EEENS0_22xtensor_expression_tagEEEEEEERKNSt13tuple_elementIXT_ESt5tupleIJDpT0_EEE4typeERKSK_
FN:1383,_ZSt3getILm0EJN2xt15xdummy_iteratorILb1EdEEPKdEERKNSt13tuple_elementIXT_ESt5tupleIJDpT0_EEE4typeERKS9_
FNDA:0,_ZSt3getILm0EJN2xt15xdummy_iteratorILb1EdEEPKdEERKNSt13tuple_elementIXT_ESt5tupleIJDpT0_EEE4typeERKS9_
FN:1383,_ZSt3getILm0EJPKdN2xt18xfunction_iteratorINS2_6detail10multipliesEJNS2_7xscalarIdEERKNS2_16xarray_containerINS2_7uvectorIdSaIdEEELNS2_11layout_typeE1ENS2_7svectorImLm4ESaImELb1EEENS2_22xtensor_expression_tagEEEEEEEERKNSt13tuple_elementIXT_ESt5tupleIJDpT0_EEE4typeERKSP_
FNDA:0,_ZSt3getILm0EJPKdN2xt18xfunction_iteratorINS2_6detail10multipliesEJNS2_7xscalarIdEERKNS2_16xarray_containerINS2_7uvectorIdSaIdEEELNS2_11layout_typeE1ENS2_7svectorImLm4ESaImELb1EEENS2_22xtensor_expression_tagEEEEEEEERKNSt13tuple_elementIXT_ESt5tupleIJDpT0_EEE4typeERKSP_
FN:1383,_ZSt3getILm1EJPKdN2xt18xfunction_iteratorINS2_6detail10multipliesEJNS2_7xscalarIdEERKNS2_16xarray_containerINS2_7uvectorIdSaIdEEELNS2_11layout_typeE1ENS2_7svectorImLm4ESaImELb1EEENS2_22xtensor_expression_tagEEEEEEEERKNSt13tuple_elementIXT_ESt5tupleIJDpT0_EEE4typeERKSP_
FNDA:0,_ZSt3getILm1EJPKdN2xt18xfunction_iteratorINS2_6detail10multipliesEJNS2_7xscalarIdEERKNS2_16xarray_containerINS2_7uvectorIdSaIdEEELNS2_11layout_typeE1ENS2_7svectorImLm4ESaImELb1EEENS2_22xtensor_expression_tagEEEEEEEERKNSt13tuple_elementIXT_ESt5tupleIJDpT0_EEE4typeERKSP_
FN:1383,_ZSt3getILm0EJN2xt15xscalar_stepperILb1EdEENS0_8xstepperIKNS0_16xarray_containerINS0_7uvectorIdSaIdEEELNS0_11layout_typeE1ENS0_7svectorImLm4ESaImELb1EEENS0_22xtensor_expression_tagEEEEEEERKNSt13tuple_elementIXT_ESt5tupleIJDpT0_EEE4typeERKSK_
FNDA:0,_ZSt3getILm0EJN2xt15xscalar_stepperILb1EdEENS0_8xstepperIKNS0_16xarray_containerINS0_7uvectorIdSaIdEEELNS0_11layout_typeE1ENS0_7svectorImLm4ESaImELb1EEENS0_22xtensor_expression_tagEEEEEEERKNSt13tuple_elementIXT_ESt5tupleIJDpT0_EEE4typeERKSK_
DA:182,0
DA:183,0
DA:189,0
DA:190,0
DA:189,0
DA:190,0
DA:189,0
DA:190,0
DA:189,0
DA:190,0
DA:189,0
DA:190,0
DA:189,0
DA:190,0
DA:189,0
DA:190,0
DA:189,0
DA:190,0
DA:189,0
DA:190,0
DA:189,0
DA:190,0
DA:189,0
DA:190,0
DA:219,0
DA:219,0
DA:219,0
DA:219,0
DA:219,0
DA:219,0
DA:219,0
DA:219,0
DA:222,0
DA:222,0
DA:222,0
DA:222,0
DA:222,0
DA:222,0
DA:222,0
DA:222,0
DA:222,0
DA:222,0
DA:222,0
DA:222,0
DA:254,0
DA:254,0
DA:254,0
DA:254,0
DA:257,0
DA:257,0
DA:257,0
DA:257,0
DA:257,0
DA:257,0
DA:260,0
DA:260,0
DA:276,0
DA:278,0
DA:279,0
DA:276,0
DA:278,0
DA:279,0
DA:276,0
DA:278,0
DA:279,0
DA:276,0
DA:278,0
DA:279,0
DA:276,0
DA:278,0
DA:279,0
DA:276,0
DA:278,0
DA:279,0
DA:288,0
DA:291,0
DA:292,0
DA:293,0
DA:288,0
DA:291,0
DA:292,0
DA:293,0
DA:415,0
DA:415,0
DA:415,0
DA:415,0
DA:418,0
DA:418,0
DA:418,0
DA:418,0
DA:418,0
DA:418,0
DA:425,0
DA:426,0
DA:427,0
DA:431,0
DA:432,0
DA:433,0
DA:431,0
DA:432,0
DA:433,0
DA:431,0
DA:432,0
DA:433,0
DA:431,0
DA:432,0
DA:433,0
DA:431,0
DA:432,0
DA:433,0
DA:442,0
DA:444,0
DA:445,0
DA:442,0
DA:444,0
DA:445,0
DA:1066,0
DA:1068,0
DA:1066,0
DA:1068,0
DA:1066,0
DA:1068,0
DA:1066,0
DA:1068,0
DA:1066,0
DA:1068,0
DA:1066,0
DA:1068,0
DA:1079,0
DA:1079,0
DA:1366,0
DA:1367,0
DA:1366,0
DA:1367,0
DA:1366,0
DA:1367,0
DA:1366,0
DA:1367,0
DA:1366,0
DA:1367,0
DA:1366,0
DA:1367,0
DA:1366,0
DA:1367,0
DA:1366,0
DA:1367,0
DA:1371,0
DA:1372,0
DA:1371,0
DA:1372,0
DA:1371,0
DA:1372,0
DA:1371,0
DA:1372,0
DA:1371,0
DA:1372,0
DA:1371,0
DA:1372,0
DA:1371,0
DA:1372,0
DA:1371,0
DA:1372,0
DA:1371,0
DA:1372,0
DA:1371,0
DA:1372,0
DA:1371,0
DA:1372,0
DA:1371,0
DA:1372,0
DA:1377,0
DA:1378,0
DA:1377,0
DA:1378,0
DA:1377,0
DA:1378,0
DA:1377,0
DA:1378,0
DA:1377,0
DA:1378,0
DA:1377,0
DA:1378,0
DA:1377,0
DA:1378,0
DA:1377,0
DA:1378,0
DA:1383,0
DA:1384,0
DA:1383,0
DA:1384,0
DA:1383,0
DA:1384,0
DA:1383,0
DA:1384,0
DA:1383,0
DA:1384,0
DA:1383,0
DA:1384,0
DA:1383,0
DA:1384,0
DA:1383,0
DA:1384,0
DA:1383,0
DA:1384,0
DA:1383,0
DA:1384,0
DA:1383,0
DA:1384,0
DA:1383,0
DA:1384,0
end_of_record
SF:/workspace/xmake/ellalgo-xmake/include/ellalgo/ell_calc.hpp
FN:36,_ZN7EllCalcC2Ed
FNDA:0,_ZN7EllCalcC2Ed
DA:36,0
DA:37,0
DA:38,0
DA:39,0
DA:40,0
end_of_record
SF:/workspace/.xmake/packages/x/xtensor/0.24.3/7589bb6431db4fba90e4d138dda37226/include/xtensor/xarray.hpp
FN:126,_ZN2xt16xarray_containerINS_7uvectorIdSaIdEEELNS_11layout_typeE1ENS_7svectorImLm4ESaImELb1EEENS_22xtensor_expression_tagEED2Ev
FNDA:0,_ZN2xt16xarray_containerINS_7uvectorIdSaIdEEELNS_11layout_typeE1ENS_7svectorImLm4ESaImELb1EEENS_22xtensor_expression_tagEED2Ev
FN:131,_ZN2xt16xarray_containerINS_7uvectorIdSaIdEEELNS_11layout_typeE1ENS_7svectorImLm4ESaImELb1EEENS_22xtensor_expression_tagEEC2EOS9_
FNDA:0,_ZN2xt16xarray_containerINS_7uvectorIdSaIdEEELNS_11layout_typeE1ENS_7svectorImLm4ESaImELb1EEENS_22xtensor_expression_tagEEC2EOS9_
FN:132,_ZN2xt16xarray_containerINS_7uvectorIdSaIdEEELNS_11layout_typeE1ENS_7svectorImLm4ESaImELb1EEENS_22xtensor_expression_tagEEaSEOS9_
FNDA:0,_ZN2xt16xarray_containerINS_7uvectorIdSaIdEEELNS_11layout_typeE1ENS_7svectorImLm4ESaImELb1EEENS_22xtensor_expression_tagEEaSEOS9_
FN:482,_ZN2xt16xarray_containerINS_7uvectorIdSaIdEEELNS_11layout_typeE1ENS_7svectorImLm4ESaImELb1EEENS_22xtensor_expression_tagEEC2INS_9xfunctionINS_6detail5minusEJRKS9_RKNSB_INSC_10multipliesEJNS_7xscalarIdEESF_EEEEEEEERKNS_11xexpressionIT_EE
FNDA:0,_ZN2xt16xarray_containerINS_7uvectorIdSaIdEEELNS_11layout_typeE1ENS_7svectorImLm4ESaImELb1EEENS_22xtensor_expression_tagEEC2INS_9xfunctionINS_6detail5minusEJRKS9_RKNSB_INSC_10multipliesEJNS_7xscalarIdEESF_EEEEEEEERKNS_11xexpressionIT_EE
FN:482,_ZN2xt16xarray_containerINS_7uvectorIdSaIdEEELNS_11layout_typeE1ENS_7svectorImLm4ESaImELb1EEENS_22xtensor_expression_tagEEC2INS_10xbroadcastINS_7xscalarIdEESt5arrayImLm1EEEEEERKNS_11xexpressionIT_EE
FNDA:0,_ZN2xt16xarray_containerINS_7uvectorIdSaIdEEELNS_11layout_typeE1ENS_7svectorImLm4ESaImELb1EEENS_22xtensor_expression_tagEEC2INS_10xbroadcastINS_7xscalarIdEESt5arrayImLm1EEEEEERKNS_11xexpressionIT_EE
FN:482,_ZN2xt16xarray_containerINS_7uvectorIdSaIdEEELNS_11layout_typeE1ENS_7svectorImLm4ESaImELb1EEENS_22xtensor_expression_tagEEC2INS_10xgeneratorINS_6detail7fn_implINSC_6eye_fnIbEEEEbSt6vectorImS6_EEEEERKNS_11xexpressionIT_EE
FNDA:0,_ZN2xt16xarray_containerINS_7uvectorIdSaIdEEELNS_11layout_typeE1ENS_7svectorImLm4ESaImELb1EEENS_22xtensor_expression_tagEEC2INS_10xgeneratorINS_6detail7fn_implINSC_6eye_fnIbEEEEbSt6vectorImS6_EEEEERKNS_11xexpressionIT_EE
FN:482,_ZN2xt16xarray_containerINS_7uvectorIdSaIdEEELNS_11layout_typeE1ENS_7svectorImLm4ESaImELb1EEENS_22xtensor_expression_tagEEC2INS_10xgeneratorINS_6detail7fn_implINSC_7diag_fnIRS9_EEEEdSt5arrayImLm2EEEEEERKNS_11xexpressionIT_EE
FNDA:0,_ZN2xt16xarray_containerINS_7uvectorIdSaIdEEELNS_11layout_typeE1ENS_7svectorImLm4ESaImELb1EEENS_22xtensor_expression_tagEEC2INS_10xgeneratorINS_6detail7fn_implINSC_7diag_fnIRS9_EEEEdSt5arrayImLm2EEEEEERKNS_11xexpressionIT_EE
FN:499,_ZN2xt16xarray_containerINS_7uvectorIdSaIdEEELNS_11layout_typeE1ENS_7svectorImLm4ESaImELb1EEENS_22xtensor_expression_tagEEaSINS_9xfunctionINS_6detail5minusEJRKS9_RKNSB_INSC_10multipliesEJNS_7xscalarIdEESF_EEEEEEEERS9_RKNS_11xexpressionIT_EE
FNDA:0,_ZN2xt16xarray_containerINS_7uvectorIdSaIdEEELNS_11layout_typeE1ENS_7svectorImLm4ESaImELb1EEENS_22xtensor_expression_tagEEaSINS_9xfunctionINS_6detail5minusEJRKS9_RKNSB_INSC_10multipliesEJNS_7xscalarIdEESF_EEEEEEEERS9_RKNS_11xexpressionIT_EE
FN:506,_ZN2xt16xarray_containerINS_7uvectorIdSaIdEEELNS_11layout_typeE1ENS_7svectorImLm4ESaImELb1EEENS_22xtensor_expression_tagEE12storage_implEv
FNDA:0,_ZN2xt16xarray_containerINS_7uvectorIdSaIdEEELNS_11layout_typeE1ENS_7svectorImLm4ESaImELb1EEENS_22xtensor_expression_tagEE12storage_implEv
FN:512,_ZNK2xt16xarray_containerINS_7uvectorIdSaIdEEELNS_11layout_typeE1ENS_7svectorImLm4ESaImELb1EEENS_22xtensor_expression_tagEE12storage_implEv
FNDA:0,_ZNK2xt16xarray_containerINS_7uvectorIdSaIdEEELNS_11layout_typeE1ENS_7svectorImLm4ESaImELb1EEENS_22xtensor_expression_tagEE12storage_implEv
DA:126,0
DA:131,0
DA:132,0
DA:482,0
DA:483,0
DA:487,0
DA:489,0
DA:491,0
DA:492,0
DA:482,0
DA:483,0
DA:487,0
DA:489,0
DA:491,0
DA:492,0
DA:482,0
DA:483,0
DA:487,0
DA:489,0
DA:491,0
DA:492,0
DA:482,0
DA:483,0
DA:487,0
DA:489,0
DA:491,0
DA:492,0
DA:499,0
DA:501,0
DA:506,0
DA:508,0
DA:512,0
DA:514,0
end_of_record
SF:/usr/include/c++/11/ext/type_traits.h
FN:152,_ZN9__gnu_cxx17__is_null_pointerIKcEEbPT_
FNDA:0,_ZN9__gnu_cxx17__is_null_pointerIKcEEbPT_
DA:152,0
DA:153,0
end_of_record
SF:/workspace/xmake/ellalgo-xmake/src/ell.cpp
FN:27,_ZN3EllC2EdN2xt16xarray_containerINS0_7uvectorIdSaIdEEELNS0_11layout_typeE1ENS0_7svectorImLm4ESaImELb1EEENS0_22xtensor_expression_tagEEESA_
FNDA:0,_ZN3EllC2EdN2xt16xarray_containerINS0_7uvectorIdSaIdEEELNS0_11layout_typeE1ENS0_7svectorImLm4ESaImELb1EEENS0_22xtensor_expression_tagEEESA_
FN:37,_ZN3EllC2EN2xt16xarray_containerINS0_7uvectorIdSaIdEEELNS0_11layout_typeE1ENS0_7svectorImLm4ESaImELb1EEENS0_22xtensor_expression_tagEEESA_
FNDA:0,_ZN3EllC2EN2xt16xarray_containerINS0_7uvectorIdSaIdEEELNS0_11layout_typeE1ENS0_7svectorImLm4ESaImELb1EEENS0_22xtensor_expression_tagEEESA_
FN:45,_ZN3EllC2EdN2xt16xarray_containerINS0_7uvectorIdSaIdEEELNS0_11layout_typeE1ENS0_7svectorImLm4ESaImELb1EEENS0_22xtensor_expression_tagEEE
FNDA:0,_ZN3EllC2EdN2xt16xarray_containerINS0_7uvectorIdSaIdEEELNS0_11layout_typeE1ENS0_7svectorImLm4ESaImELb1EEENS0_22xtensor_expression_tagEEE
FN:57,_ZN3Ell13update_singleERKN2xt16xarray_containerINS0_7uvectorIdSaIdEEELNS0_11layout_typeE1ENS0_7svectorImLm4ESaImELb1EEENS0_22xtensor_expression_tagEEERKd
FNDA:0,_ZN3Ell13update_singleERKN2xt16xarray_containerINS0_7uvectorIdSaIdEEELNS0_11layout_typeE1ENS0_7svectorImLm4ESaImELb1EEENS0_22xtensor_expression_tagEEERKd
FN:105,_ZN3Ell15update_parallelERKN2xt16xarray_containerINS0_7uvectorIdSaIdEEELNS0_11layout_typeE1ENS0_7svectorImLm4ESaImELb1EEENS0_22xtensor_expression_tagEEERKSt4pairIdSt8optionalIdEE
FNDA:0,_ZN3Ell15update_parallelERKN2xt16xarray_containerINS0_7uvectorIdSaIdEEELNS0_11layout_typeE1ENS0_7svectorImLm4ESaImELb1EEENS0_22xtensor_expression_tagEEERKSt4pairIdSt8optionalIdEE
DA:27,0
DA:28,0
DA:29,0
DA:37,0
DA:45,0
DA:46,0
DA:57,0
DA:60,0
DA:61,0
DA:62,0
DA:63,0
DA:64,0
DA:66,0
DA:69,0
DA:70,0
DA:71,0
DA:72,0
DA:75,0
DA:77,0
DA:78,0
DA:79,0
DA:80,0
DA:81,0
DA:82,0
DA:84,0
DA:87,0
DA:89,0
DA:90,0
DA:91,0
DA:93,0
DA:94,0
DA:105,0
DA:109,0
DA:110,0
DA:111,0
DA:112,0
DA:113,0
DA:115,0
DA:118,0
DA:119,0
DA:120,0
DA:121,0
DA:122,0
DA:123,0
DA:126,0
DA:131,0
DA:132,0
DA:133,0
DA:134,0
DA:135,0
DA:136,0
DA:138,0
DA:141,0
DA:143,0
DA:144,0
DA:145,0
DA:147,0
DA:148,0
end_of_record
SF:/workspace/xmake/ellalgo-xmake/include/py2cpp/range.hpp
FN:12,_ZN2py5rangeImmEEDaT_T0_
FNDA:0,_ZN2py5rangeImmEEDaT_T0_
FN:15,_ZZN2py5rangeImmEEDaT_T0_ENK9_iteratorneERKS3_
FNDA:0,_ZZN2py5rangeImmEEDaT_T0_ENK9_iteratorneERKS3_
FN:22,_ZZN2py5rangeImmEEDaT_T0_EN9_iteratordeEv
FNDA:0,_ZZN2py5rangeImmEEDaT_T0_EN9_iteratordeEv
FN:23,_ZZN2py5rangeImmEEDaT_T0_EN9_iteratorppEv
FNDA:0,_ZZN2py5rangeImmEEDaT_T0_EN9_iteratorppEv
FN:45,_ZZN2py5rangeImmEEDaT_T0_ENK16iterable_wrapper5beginEv
FNDA:0,_ZZN2py5rangeImmEEDaT_T0_ENK16iterable_wrapper5beginEv
FN:46,_ZZN2py5rangeImmEEDaT_T0_ENK16iterable_wrapper3endEv
FNDA:0,_ZZN2py5rangeImmEEDaT_T0_ENK16iterable_wrapper3endEv
FN:66,_ZN2py5rangeImEEDaT_
FNDA:0,_ZN2py5rangeImEEDaT_
DA:12,0
DA:15,0
DA:16,0
DA:22,0
DA:23,0
DA:24,0
DA:25,0
DA:45,0
DA:46,0
DA:59,0
DA:60,0
DA:61,0
DA:63,0
DA:66,0
end_of_record
SF:/workspace/.xmake/packages/x/xtensor/0.24.3/7589bb6431db4fba90e4d138dda37226/include/xtensor/xcontainer.hpp
FN:298,_ZN2xt18xstrided_containerINS_16xarray_containerINS_7uvectorIdSaIdEEELNS_11layout_typeE1ENS_7svectorImLm4ESaImELb1EEENS_22xtensor_expression_tagEEEED2Ev
FNDA:0,_ZN2xt18xstrided_containerINS_16xarray_containerINS_7uvectorIdSaIdEEELNS_11layout_typeE1ENS_7svectorImLm4ESaImELb1EEENS_22xtensor_expression_tagEEEED2Ev
FN:303,_ZN2xt18xstrided_containerINS_16xarray_containerINS_7uvectorIdSaIdEEELNS_11layout_typeE1ENS_7svectorImLm4ESaImELb1EEENS_22xtensor_expression_tagEEEEC2EOSB_
FNDA:0,_ZN2xt18xstrided_containerINS_16xarray_containerINS_7uvectorIdSaIdEEELNS_11layout_typeE1ENS_7svectorImLm4ESaImELb1EEENS_22xtensor_expression_tagEEEEC2EOSB_
FN:304,_ZN2xt18xstrided_containerINS_16xarray_containerINS_7uvectorIdSaIdEEELNS_11layout_typeE1ENS_7svectorImLm4ESaImELb1EEENS_22xtensor_expression_tagEEEEaSEOSB_
FNDA:0,_ZN2xt18xstrided_containerINS_16xarray_containerINS_7uvectorIdSaIdEEELNS_11layout_typeE1ENS_7svectorImLm4ESaImELb1EEENS_22xtensor_expression_tagEEEEaSEOSB_
FN:339,_ZNK2xt10xcontainerINS_16xarray_containerINS_7uvectorIdSaIdEEELNS_11layout_typeE1ENS_7svectorImLm4ESaImELb1EEENS_22xtensor_expression_tagEEEE14data_xend_implIPKdEET_SF_S5_m
FNDA:0,_ZNK2xt10xcontainerINS_16xarray_containerINS_7uvectorIdSaIdEEELNS_11layout_typeE1ENS_7svectorImLm4ESaImELb1EEENS_22xtensor_expression_tagEEEE14data_xend_implIPKdEET_SF_S5_m
FN:339,_ZNK2xt10xcontainerINS_16xarray_containerINS_7uvectorIdSaIdEEELNS_11layout_typeE1ENS_7svectorImLm4ESaImELb1EEENS_22xtensor_expression_tagEEEE14data_xend_implIPdEET_SE_S5_m
FNDA:0,_ZNK2xt10xcontainerINS_16xarray_containerINS_7uvectorIdSaIdEEELNS_11layout_typeE1ENS_7svectorImLm4ESaImELb1EEENS_22xtensor_expression_tagEEEE14data_xend_implIPdEET_SE_S5_m
FN:370,_ZNK2xt10xcontainerINS_16xarray_containerINS_7uvectorIdSaIdEEELNS_11layout_typeE1ENS_7svectorImLm4ESaImELb1EEENS_22xtensor_expression_tagEEEE4sizeEv
FNDA:0,_ZNK2xt10xcontainerINS_16xarray_containerINS_7uvectorIdSaIdEEELNS_11layout_typeE1ENS_7svectorImLm4ESaImELb1EEENS_22xtensor_expression_tagEEEE4sizeEv
FN:379,_ZNK2xt10xcontainerINS_16xarray_containerINS_7uvectorIdSaIdEEELNS_11layout_typeE1ENS_7svectorImLm4ESaImELb1EEENS_22xtensor_expression_tagEEEE9dimensionEv
FNDA:0,_ZNK2xt10xcontainerINS_16xarray_containerINS_7uvectorIdSaIdEEELNS_11layout_typeE1ENS_7svectorImLm4ESaImELb1EEENS_22xtensor_expression_tagEEEE9dimensionEv
FN:388,_ZNK2xt10xcontainerINS_16xarray_containerINS_7uvectorIdSaIdEEELNS_11layout_typeE1ENS_7svectorImLm4ESaImELb1EEENS_22xtensor_expression_tagEEEE5shapeEv
FNDA:0,_ZNK2xt10xcontainerINS_16xarray_containerINS_7uvectorIdSaIdEEELNS_11layout_typeE1ENS_7svectorImLm4ESaImELb1EEENS_22xtensor_expression_tagEEEE5shapeEv
FN:397,_ZNK2xt10xcontainerINS_16xarray_containerINS_7uvectorIdSaIdEEELNS_11layout_typeE1ENS_7svectorImLm4ESaImELb1EEENS_22xtensor_expression_tagEEEE7stridesEv
FNDA:0,_ZNK2xt10xcontainerINS_16xarray_containerINS_7uvectorIdSaIdEEELNS_11layout_typeE1ENS_7svectorImLm4ESaImELb1EEENS_22xtensor_expression_tagEEEE7stridesEv
FN:406,_ZNK2xt10xcontainerINS_16xarray_containerINS_7uvectorIdSaIdEEELNS_11layout_typeE1ENS_7svectorImLm4ESaImELb1EEENS_22xtensor_expression_tagEEEE11backstridesEv
FNDA:0,_ZNK2xt10xcontainerINS_16xarray_containerINS_7uvectorIdSaIdEEELNS_11layout_typeE1ENS_7svectorImLm4ESaImELb1EEENS_22xtensor_expression_tagEEEE11backstridesEv
FN:436,_ZN2xt10xcontainerINS_16xarray_containerINS_7uvectorIdSaIdEEELNS_11layout_typeE1ENS_7svectorImLm4ESaImELb1EEENS_22xtensor_expression_tagEEEEclIJmEEERdDpT_
FNDA:0,_ZN2xt10xcontainerINS_16xarray_containerINS_7uvectorIdSaIdEEELNS_11layout_typeE1ENS_7svectorImLm4ESaImELb1EEENS_22xtensor_expression_tagEEEEclIJmEEERdDpT_
FN:452,_ZNK2xt10xcontainerINS_16xarray_containerINS_7uvectorIdSaIdEEELNS_11layout_typeE1ENS_7svectorImLm4ESaImELb1EEENS_22xtensor_expression_tagEEEEclIJmEEERKdDpT_
FNDA:0,_ZNK2xt10xcontainerINS_16xarray_containerINS_7uvectorIdSaIdEEELNS_11layout_typeE1ENS_7svectorImLm4ESaImELb1EEENS_22xtensor_expression_tagEEEEclIJmEEERKdDpT_
FN:523,_ZN2xt10xcontainerINS_16xarray_containerINS_7uvectorIdSaIdEEELNS_11layout_typeE1ENS_7svectorImLm4ESaImELb1EEENS_22xtensor_expression_tagEEEE7elementIPKmEERdT_SG_
FNDA:0,_ZN2xt10xcontainerINS_16xarray_containerINS_7uvectorIdSaIdEEELNS_11layout_typeE1ENS_7svectorImLm4ESaImELb1EEENS_22xtensor_expression_tagEEEE7elementIPKmEERdT_SG_
FN:548,_ZN2xt10xcontainerINS_16xarray_containerINS_7uvectorIdSaIdEEELNS_11layout_typeE1ENS_7svectorImLm4ESaImELb1EEENS_22xtensor_expression_tagEEEE7storageEv
FNDA:0,_ZN2xt10xcontainerINS_16xarray_containerINS_7uvectorIdSaIdEEELNS_11layout_typeE1ENS_7svectorImLm4ESaImELb1EEENS_22xtensor_expression_tagEEEE7storageEv
FN:558,_ZNK2xt10xcontainerINS_16xarray_containerINS_7uvectorIdSaIdEEELNS_11layout_typeE1ENS_7svectorImLm4ESaImELb1EEENS_22xtensor_expression_tagEEEE7storageEv
FNDA:0,_ZNK2xt10xcontainerINS_16xarray_containerINS_7uvectorIdSaIdEEELNS_11layout_typeE1ENS_7svectorImLm4ESaImELb1EEENS_22xtensor_expression_tagEEEE7storageEv
FN:607,_ZNK2xt10xcontainerINS_16xarray_containerINS_7uvectorIdSaIdEEELNS_11layout_typeE1ENS_7svectorImLm4ESaImELb1EEENS_22xtensor_expression_tagEEEE15broadcast_shapeIS8_EEbRT_b
FNDA:0,_ZNK2xt10xcontainerINS_16xarray_containerINS_7uvectorIdSaIdEEELNS_11layout_typeE1ENS_7svectorImLm4ESaImELb1EEENS_22xtensor_expression_tagEEEE15broadcast_shapeIS8_EEbRT_b
FN:619,_ZNK2xt10xcontainerINS_16xarray_containerINS_7uvectorIdSaIdEEELNS_11layout_typeE1ENS_7svectorImLm4ESaImELb1EEENS_22xtensor_expression_tagEEEE17has_linear_assignINS6_IlLm4ESaIlELb1EEEEEbRKT_
FNDA:0,_ZNK2xt10xcontainerINS_16xarray_containerINS_7uvectorIdSaIdEEELNS_11layout_typeE1ENS_7svectorImLm4ESaImELb1EEENS_22xtensor_expression_tagEEEE17has_linear_assignINS6_IlLm4ESaIlELb1EEEEEbRKT_
FN:627,_ZNKR2xt10xcontainerINS_16xarray_containerINS_7uvectorIdSaIdEEELNS_11layout_typeE1ENS_7svectorImLm4ESaImELb1EEENS_22xtensor_expression_tagEEEE12derived_castEv
FNDA:0,_ZNKR2xt10xcontainerINS_16xarray_containerINS_7uvectorIdSaIdEEELNS_11layout_typeE1ENS_7svectorImLm4ESaImELb1EEENS_22xtensor_expression_tagEEEE12derived_castEv
FN:682,_ZN2xt10xcontainerINS_16xarray_containerINS_7uvectorIdSaIdEEELNS_11layout_typeE1ENS_7svectorImLm4ESaImELb1EEENS_22xtensor_expression_tagEEEE13stepper_beginIS8_EENS_8xstepperISA_EERKT_
FNDA:0,_ZN2xt10xcontainerINS_16xarray_containerINS_7uvectorIdSaIdEEELNS_11layout_typeE1ENS_7svectorImLm4ESaImELb1EEENS_22xtensor_expression_tagEEEE13stepper_beginIS8_EENS_8xstepperISA_EERKT_
FN:698,_ZNK2xt10xcontainerINS_16xarray_containerINS_7uvectorIdSaIdEEELNS_11layout_typeE1ENS_7svectorImLm4ESaImELb1EEENS_22xtensor_expression_tagEEEE13stepper_beginIS8_EENS_8xstepperIKSA_EERKT_
FNDA:0,_ZNK2xt10xcontainerINS_16xarray_containerINS_7uvectorIdSaIdEEELNS_11layout_typeE1ENS_7svectorImLm4ESaImELb1EEENS_22xtensor_expression_tagEEEE13stepper_beginIS8_EENS_8xstepperIKSA_EERKT_
FN:713,_ZN2xt10xcontainerINS_16xarray_containerINS_7uvectorIdSaIdEEELNS_11layout_typeE1ENS_7svectorImLm4ESaImELb1EEENS_22xtensor_expression_tagEEEE11data_xbeginEv
FNDA:0,_ZN2xt10xcontainerINS_16xarray_containerINS_7uvectorIdSaIdEEELNS_11layout_typeE1ENS_7svectorImLm4ESaImELb1EEENS_22xtensor_expression_tagEEEE11data_xbeginEv
FN:719,_ZNK2xt10xcontainerINS_16xarray_containerINS_7uvectorIdSaIdEEELNS_11layout_typeE1ENS_7svectorImLm4ESaImELb1EEENS_22xtensor_expression_tagEEEE11data_xbeginEv
FNDA:0,_ZNK2xt10xcontainerINS_16xarray_containerINS_7uvectorIdSaIdEEELNS_11layout_typeE1ENS_7svectorImLm4ESaImELb1EEENS_22xtensor_expression_tagEEEE11data_xbeginEv
FN:725,_ZN2xt10xcontainerINS_16xarray_containerINS_7uvectorIdSaIdEEELNS_11layout_typeE1ENS_7svectorImLm4ESaImELb1EEENS_22xtensor_expression_tagEEEE9data_xendES5_m
FNDA:0,_ZN2xt10xcontainerINS_16xarray_containerINS_7uvectorIdSaIdEEELNS_11layout_typeE1ENS_7svectorImLm4ESaImELb1EEENS_22xtensor_expression_tagEEEE9data_xendES5_m
FN:731,_ZNK2xt10xcontainerINS_16xarray_containerINS_7uvectorIdSaIdEEELNS_11layout_typeE1ENS_7svectorImLm4ESaImELb1EEENS_22xtensor_expression_tagEEEE9data_xendES5_m
FNDA:0,_ZNK2xt10xcontainerINS_16xarray_containerINS_7uvectorIdSaIdEEELNS_11layout_typeE1ENS_7svectorImLm4ESaImELb1EEENS_22xtensor_expression_tagEEEE9data_xendES5_m
FN:754,_ZN2xt10xcontainerINS_16xarray_containerINS_7uvectorIdSaIdEEELNS_11layout_typeE1ENS_7svectorImLm4ESaImELb1EEENS_22xtensor_expression_tagEEEE12linear_beginEv
FNDA:0,_ZN2xt10xcontainerINS_16xarray_containerINS_7uvectorIdSaIdEEELNS_11layout_typeE1ENS_7svectorImLm4ESaImELb1EEENS_22xtensor_expression_tagEEEE12linear_beginEv
FN:760,_ZN2xt10xcontainerINS_16xarray_containerINS_7uvectorIdSaIdEEELNS_11layout_typeE1ENS_7svectorImLm4ESaImELb1EEENS_22xtensor_expression_tagEEEE10linear_endEv
FNDA:0,_ZN2xt10xcontainerINS_16xarray_containerINS_7uvectorIdSaIdEEELNS_11layout_typeE1ENS_7svectorImLm4ESaImELb1EEENS_22xtensor_expression_tagEEEE10linear_endEv
FN:778,_ZNK2xt10xcontainerINS_16xarray_containerINS_7uvectorIdSaIdEEELNS_11layout_typeE1ENS_7svectorImLm4ESaImELb1EEENS_22xtensor_expression_tagEEEE13linear_cbeginEv
FNDA:0,_ZNK2xt10xcontainerINS_16xarray_containerINS_7uvectorIdSaIdEEELNS_11layout_typeE1ENS_7svectorImLm4ESaImELb1EEENS_22xtensor_expression_tagEEEE13linear_cbeginEv
FN:826,_ZNR2xt10xcontainerINS_16xarray_containerINS_7uvectorIdSaIdEEELNS_11layout_typeE1ENS_7svectorImLm4ESaImELb1EEENS_22xtensor_expression_tagEEEE12derived_castEv
FNDA:0,_ZNR2xt10xcontainerINS_16xarray_containerINS_7uvectorIdSaIdEEELNS_11layout_typeE1ENS_7svectorImLm4ESaImELb1EEENS_22xtensor_expression_tagEEEE12derived_castEv
FN:836,_ZN2xt18xstrided_containerINS_16xarray_containerINS_7uvectorIdSaIdEEELNS_11layout_typeE1ENS_7svectorImLm4ESaImELb1EEENS_22xtensor_expression_tagEEEEC2Ev
FNDA:0,_ZN2xt18xstrided_containerINS_16xarray_containerINS_7uvectorIdSaIdEEELNS_11layout_typeE1ENS_7svectorImLm4ESaImELb1EEENS_22xtensor_expression_tagEEEEC2Ev
FN:865,_ZNK2xt18xstrided_containerINS_16xarray_containerINS_7uvectorIdSaIdEEELNS_11layout_typeE1ENS_7svectorImLm4ESaImELb1EEENS_22xtensor_expression_tagEEEE10shape_implEv
FNDA:0,_ZNK2xt18xstrided_containerINS_16xarray_containerINS_7uvectorIdSaIdEEELNS_11layout_typeE1ENS_7svectorImLm4ESaImELb1EEENS_22xtensor_expression_tagEEEE10shape_implEv
FN:877,_ZNK2xt18xstrided_containerINS_16xarray_containerINS_7uvectorIdSaIdEEELNS_11layout_typeE1ENS_7svectorImLm4ESaImELb1EEENS_22xtensor_expression_tagEEEE12strides_implEv
FNDA:0,_ZNK2xt18xstrided_containerINS_16xarray_containerINS_7uvectorIdSaIdEEELNS_11layout_typeE1ENS_7svectorImLm4ESaImELb1EEENS_22xtensor_expression_tagEEEE12strides_implEv
FN:889,_ZNK2xt18xstrided_containerINS_16xarray_containerINS_7uvectorIdSaIdEEELNS_11layout_typeE1ENS_7svectorImLm4ESaImELb1EEENS_22xtensor_expression_tagEEEE16backstrides_implEv
FNDA:0,_ZNK2xt18xstrided_containerINS_16xarray_containerINS_7uvectorIdSaIdEEELNS_11layout_typeE1ENS_7svectorImLm4ESaImELb1EEENS_22xtensor_expression_tagEEEE16backstrides_implEv
FN:899,_ZNK2xt18xstrided_containerINS_16xarray_containerINS_7uvectorIdSaIdEEELNS_11layout_typeE1ENS_7svectorImLm4ESaImELb1EEENS_22xtensor_expression_tagEEEE6layoutEv
FNDA:0,_ZNK2xt18xstrided_containerINS_16xarray_containerINS_7uvectorIdSaIdEEELNS_11layout_typeE1ENS_7svectorImLm4ESaImELb1EEENS_22xtensor_expression_tagEEEE6layoutEv
FN:905,_ZNK2xt18xstrided_containerINS_16xarray_containerINS_7uvectorIdSaIdEEELNS_11layout_typeE1ENS_7svectorImLm4ESaImELb1EEENS_22xtensor_expression_tagEEEE13is_contiguousEv
FNDA:0,_ZNK2xt18xstrided_containerINS_16xarray_containerINS_7uvectorIdSaIdEEELNS_11layout_typeE1ENS_7svectorImLm4ESaImELb1EEENS_22xtensor_expression_tagEEEE13is_contiguousEv
FN:918,_ZN2xt6detail21resize_data_containerINS_7uvectorIdSaIdEEEmEEvRT_T0_
FNDA:0,_ZN2xt6detail21resize_data_containerINS_7uvectorIdSaIdEEEmEEvRT_T0_
FN:953,_ZN2xt18xstrided_containerINS_16xarray_containerINS_7uvectorIdSaIdEEELNS_11layout_typeE1ENS_7svectorImLm4ESaImELb1EEENS_22xtensor_expression_tagEEEE6resizeIRKSt5arrayImLm1EEEEvOT_b
FNDA:0,_ZN2xt18xstrided_containerINS_16xarray_containerINS_7uvectorIdSaIdEEELNS_11layout_typeE1ENS_7svectorImLm4ESaImELb1EEENS_22xtensor_expression_tagEEEE6resizeIRKSt5arrayImLm1EEEEvOT_b
FN:953,_ZN2xt18xstrided_containerINS_16xarray_containerINS_7uvectorIdSaIdEEELNS_11layout_typeE1ENS_7svectorImLm4ESaImELb1EEENS_22xtensor_expression_tagEEEE6resizeIRKSt5arrayImLm2EEEEvOT_b
FNDA:0,_ZN2xt18xstrided_containerINS_16xarray_containerINS_7uvectorIdSaIdEEELNS_11layout_typeE1ENS_7svectorImLm4ESaImELb1EEENS_22xtensor_expression_tagEEEE6resizeIRKSt5arrayImLm2EEEEvOT_b
FN:953,_ZN2xt18xstrided_containerINS_16xarray_containerINS_7uvectorIdSaIdEEELNS_11layout_typeE1ENS_7svectorImLm4ESaImELb1EEENS_22xtensor_expression_tagEEEE6resizeIRKSt6vectorImS7_EEEvOT_b
FNDA:0,_ZN2xt18xstrided_containerINS_16xarray_containerINS_7uvectorIdSaIdEEELNS_11layout_typeE1ENS_7svectorImLm4ESaImELb1EEENS_22xtensor_expression_tagEEEE6resizeIRKSt6vectorImS7_EEEvOT_b
FN:953,_ZN2xt18xstrided_containerINS_16xarray_containerINS_7uvectorIdSaIdEEELNS_11layout_typeE1ENS_7svectorImLm4ESaImELb1EEENS_22xtensor_expression_tagEEEE6resizeIS8_EEvOT_b
FNDA:0,_ZN2xt18xstrided_containerINS_16xarray_containerINS_7uvectorIdSaIdEEELNS_11layout_typeE1ENS_7svectorImLm4ESaImELb1EEENS_22xtensor_expression_tagEEEE6resizeIS8_EEvOT_b
DA:298,0
DA:303,0
DA:304,0
DA:339,0
DA:341,0
DA:339,0
DA:341,0
DA:370,0
DA:372,0
DA:379,0
DA:381,0
DA:388,0
DA:390,0
DA:397,0
DA:399,0
DA:406,0
DA:408,0
DA:436,0
DA:440,0
DA:441,0
DA:452,0
DA:456,0
DA:457,0
DA:523,0
DA:526,0
DA:548,0
DA:550,0
DA:558,0
DA:560,0
DA:607,0
DA:609,0
DA:619,0
DA:621,0
DA:622,0
DA:627,0
DA:629,0
DA:682,0
DA:684,0
DA:685,0
DA:698,0
DA:700,0
DA:701,0
DA:713,0
DA:715,0
DA:719,0
DA:721,0
DA:725,0
DA:727,0
DA:731,0
DA:733,0
DA:754,0
DA:756,0
DA:760,0
DA:762,0
DA:778,0
DA:780,0
DA:826,0
DA:828,0
DA:836,0
DA:837,0
DA:839,0
DA:840,0
DA:841,0
DA:842,0
DA:865,0
DA:867,0
DA:877,0
DA:879,0
DA:889,0
DA:891,0
DA:899,0
DA:901,0
DA:905,0
DA:909,0
DA:910,0
DA:911,0
DA:918,0
DA:920,0
DA:921,0
DA:953,0
DA:957,0
DA:958,0
DA:964,0
DA:966,0
DA:967,0
DA:968,0
DA:969,0
DA:971,0
DA:953,0
DA:957,0
DA:958,0
DA:964,0
DA:966,0
DA:967,0
DA:968,0
DA:969,0
DA:971,0
DA:953,0
DA:957,0
DA:958,0
DA:964,0
DA:966,0
DA:967,0
DA:968,0
DA:969,0
DA:971,0
DA:953,0
DA:957,0
DA:958,0
DA:964,0
DA:966,0
DA:967,0
DA:968,0
DA:969,0
DA:971,0
end_of_record
TN:
SF:/usr/include/c++/11/bits/stl_map.h
FN:185,_ZNSt3mapISt4pairIiN7doctest6StringEEPFPNS1_9IReporterERKNS1_14ContextOptionsEESt4lessIS3_ESaIS0_IKS3_SA_EEEC2Ev
FNDA:0,_ZNSt3mapISt4pairIiN7doctest6StringEEPFPNS1_9IReporterERKNS1_14ContextOptionsEESt4lessIS3_ESaIS0_IKS3_SA_EEEC2Ev
FN:302,_ZNSt3mapISt4pairIiN7doctest6StringEEPFPNS1_9IReporterERKNS1_14ContextOptionsEESt4lessIS3_ESaIS0_IKS3_SA_EEED2Ev
FNDA:0,_ZNSt3mapISt4pairIiN7doctest6StringEEPFPNS1_9IReporterERKNS1_14ContextOptionsEESt4lessIS3_ESaIS0_IKS3_SA_EEED2Ev
FN:356,_ZNSt3mapISt4pairIiN7doctest6StringEEPFPNS1_9IReporterERKNS1_14ContextOptionsEESt4lessIS3_ESaIS0_IKS3_SA_EEE5beginEv
FNDA:0,_ZNSt3mapISt4pairIiN7doctest6StringEEPFPNS1_9IReporterERKNS1_14ContextOptionsEESt4lessIS3_ESaIS0_IKS3_SA_EEE5beginEv
FN:365,_ZNKSt3mapISt4pairIiN7doctest6StringEEPFPNS1_9IReporterERKNS1_14ContextOptionsEESt4lessIS3_ESaIS0_IKS3_SA_EEE5beginEv
FNDA:0,_ZNKSt3mapISt4pairIiN7doctest6StringEEPFPNS1_9IReporterERKNS1_14ContextOptionsEESt4lessIS3_ESaIS0_IKS3_SA_EEE5beginEv
FN:374,_ZNSt3mapISt4pairIiN7doctest6StringEEPFPNS1_9IReporterERKNS1_14ContextOptionsEESt4lessIS3_ESaIS0_IKS3_SA_EEE3endEv
FNDA:0,_ZNSt3mapISt4pairIiN7doctest6StringEEPFPNS1_9IReporterERKNS1_14ContextOptionsEESt4lessIS3_ESaIS0_IKS3_SA_EEE3endEv
FN:383,_ZNKSt3mapISt4pairIiN7doctest6StringEEPFPNS1_9IReporterERKNS1_14ContextOptionsEESt4lessIS3_ESaIS0_IKS3_SA_EEE3endEv
FNDA:0,_ZNKSt3mapISt4pairIiN7doctest6StringEEPFPNS1_9IReporterERKNS1_14ContextOptionsEESt4lessIS3_ESaIS0_IKS3_SA_EEE3endEv
FN:470,_ZNKSt3mapISt4pairIiN7doctest6StringEEPFPNS1_9IReporterERKNS1_14ContextOptionsEESt4lessIS3_ESaIS0_IKS3_SA_EEE4sizeEv
FNDA:0,_ZNKSt3mapISt4pairIiN7doctest6StringEEPFPNS1_9IReporterERKNS1_14ContextOptionsEESt4lessIS3_ESaIS0_IKS3_SA_EEE4sizeEv
FN:810,_ZNSt3mapISt4pairIiN7doctest6StringEEPFPNS1_9IReporterERKNS1_14ContextOptionsEESt4lessIS3_ESaIS0_IKS3_SA_EEE6insertEOSE_
FNDA:0,_ZNSt3mapISt4pairIiN7doctest6StringEEPFPNS1_9IReporterERKNS1_14ContextOptionsEESt4lessIS3_ESaIS0_IKS3_SA_EEE6insertEOSE_
DA:185,0
DA:302,0
DA:356,0
DA:357,0
DA:365,0
DA:366,0
DA:374,0
DA:375,0
DA:383,0
DA:384,0
DA:470,0
DA:471,0
DA:810,0
DA:811,0
end_of_record
SF:/usr/include/c++/11/cmath
FN:611,_ZSt5isnanf
FNDA:0,_ZSt5isnanf
FN:619,_ZSt5isnand
FNDA:0,_ZSt5isnand
FN:624,_ZSt5isnane
FNDA:0,_ZSt5isnane
DA:611,0
DA:612,0
DA:619,0
DA:620,0
DA:624,0
DA:625,0
end_of_record
SF:/usr/include/c++/11/bits/stl_function.h
FN:355,_ZNKSt8equal_toIyEclERKyS2_
FNDA:0,_ZNKSt8equal_toIyEclERKyS2_
FN:385,_ZNKSt4lessISt4pairIiN7doctest6StringEEEclERKS3_S6_
FNDA:0,_ZNKSt4lessISt4pairIiN7doctest6StringEEEclERKS3_S6_
FN:385,_ZNKSt4lessIN7doctest6detail8TestCaseEEclERKS2_S5_
FNDA:0,_ZNKSt4lessIN7doctest6detail8TestCaseEEclERKS2_S5_
FN:385,_ZNKSt4lessIN7doctest6StringEEclERKS1_S4_
FNDA:0,_ZNKSt4lessIN7doctest6StringEEclERKS1_S4_
FN:1135,_ZNKSt9_IdentityIN7doctest6StringEEclERS1_
FNDA:0,_ZNKSt9_IdentityIN7doctest6StringEEclERS1_
FN:1139,_ZNKSt9_IdentityIN7doctest6StringEEclERKS1_
FNDA:0,_ZNKSt9_IdentityIN7doctest6StringEEclERKS1_
FN:1139,_ZNKSt9_IdentityIN7doctest6detail8TestCaseEEclERKS2_
FNDA:0,_ZNKSt9_IdentityIN7doctest6detail8TestCaseEEclERKS2_
FN:1151,_ZNKSt10_Select1stISt4pairIKS0_IiN7doctest6StringEEPFPNS1_9IReporterERKNS1_14ContextOptionsEEEEclERSC_
FNDA:0,_ZNKSt10_Select1stISt4pairIKS0_IiN7doctest6StringEEPFPNS1_9IReporterERKNS1_14ContextOptionsEEEEclERSC_
FN:1155,_ZNKSt10_Select1stISt4pairIKS0_IiN7doctest6StringEEPFPNS1_9IReporterERKNS1_14ContextOptionsEEEEclERKSC_
FNDA:0,_ZNKSt10_Select1stISt4pairIKS0_IiN7doctest6StringEEPFPNS1_9IReporterERKNS1_14ContextOptionsEEEEclERKSC_
DA:355,0
DA:356,0
DA:385,0
DA:386,0
DA:385,0
DA:386,0
DA:385,0
DA:386,0
DA:1135,0
DA:1136,0
DA:1139,0
DA:1140,0
DA:1139,0
DA:1140,0
DA:1151,0
DA:1152,0
DA:1155,0
DA:1156,0
end_of_record
SF:/usr/include/c++/11/bits/range_access.h
FN:90,_ZSt5beginIcLm1024EEPT_RAT0__S0_
FNDA:0,_ZSt5beginIcLm1024EEPT_RAT0__S0_
FN:100,_ZSt3endIcLm1024EEPT_RAT0__S0_
FNDA:0,_ZSt3endIcLm1024EEPT_RAT0__S0_
DA:90,0
DA:91,0
DA:100,0
DA:101,0
end_of_record
SF:/usr/include/c++/11/bits/char_traits.h
FN:106,_ZN9__gnu_cxx11char_traitsIcE2eqERKcS3_
FNDA:0,_ZN9__gnu_cxx11char_traitsIcE2eqERKcS3_
FN:167,_ZN9__gnu_cxx11char_traitsIcE6lengthEPKc
FNDA:0,_ZN9__gnu_cxx11char_traitsIcE6lengthEPKc
FN:212,_ZN9__gnu_cxx11char_traitsIcE4copyEPcPKcm
FNDA:0,_ZN9__gnu_cxx11char_traitsIcE4copyEPcPKcm
FN:328,_ZNSt11char_traitsIcE6assignERcRKc
FNDA:0,_ZNSt11char_traitsIcE6assignERcRKc
FN:336,_ZNSt11char_traitsIcE2ltERKcS2_
FNDA:0,_ZNSt11char_traitsIcE2ltERKcS2_
FN:344,_ZNSt11char_traitsIcE7compareEPKcS2_m
FNDA:0,_ZNSt11char_traitsIcE7compareEPKcS2_m
FN:365,_ZNSt11char_traitsIcE6lengthEPKc
FNDA:0,_ZNSt11char_traitsIcE6lengthEPKc
FN:401,_ZNSt11char_traitsIcE4copyEPcPKcm
FNDA:0,_ZNSt11char_traitsIcE4copyEPcPKcm
FN:439,_ZNSt11char_traitsIcE3eofEv
FNDA:0,_ZNSt11char_traitsIcE3eofEv
FN:443,_ZNSt11char_traitsIcE7not_eofERKi
FNDA:0,_ZNSt11char_traitsIcE7not_eofERKi
DA:106,0
DA:107,0
DA:167,0
DA:170,0
DA:171,0
DA:172,0
DA:173,0
DA:212,0
DA:216,0
DA:217,0
DA:262,0
DA:328,0
DA:329,0
DA:336,0
DA:339,0
DA:340,0
DA:344,0
DA:346,0
DA:347,0
DA:349,0
DA:351,0
DA:353,0
DA:354,0
DA:355,0
DA:356,0
DA:357,0
DA:358,0
DA:361,0
DA:365,0
DA:368,0
DA:369,0
DA:371,0
DA:401,0
DA:403,0
DA:404,0
DA:406,0
DA:407,0
DA:409,0
DA:439,0
DA:440,0
DA:443,0
DA:444,0
end_of_record
SF:/usr/include/c++/11/bits/ptr_traits.h
FN:146,_ZNSt14pointer_traitsIPNSt8__detail10_Hash_nodeIyLb0EEEE10pointer_toERS2_
FNDA:0,_ZNSt14pointer_traitsIPNSt8__detail10_Hash_nodeIyLb0EEEE10pointer_toERS2_
FN:146,_ZNSt14pointer_traitsIPPNSt8__detail15_Hash_node_baseEE10pointer_toERS2_
FNDA:0,_ZNSt14pointer_traitsIPPNSt8__detail15_Hash_node_baseEE10pointer_toERS2_
FN:146,_ZNSt14pointer_traitsIPKcE10pointer_toERS0_
FNDA:0,_ZNSt14pointer_traitsIPKcE10pointer_toERS0_
FN:146,_ZNSt14pointer_traitsIPcE10pointer_toERc
FNDA:0,_ZNSt14pointer_traitsIPcE10pointer_toERc
FN:156,_ZSt12__to_addressIPNSt8__detail15_Hash_node_baseEEPT_S4_
FNDA:0,_ZSt12__to_addressIPNSt8__detail15_Hash_node_baseEEPT_S4_
FN:156,_ZSt12__to_addressINSt8__detail10_Hash_nodeIyLb0EEEEPT_S4_
FNDA:0,_ZSt12__to_addressINSt8__detail10_Hash_nodeIyLb0EEEEPT_S4_
DA:146,0
DA:147,0
DA:146,0
DA:147,0
DA:146,0
DA:147,0
DA:146,0
DA:147,0
DA:156,0
DA:159,0
DA:156,0
DA:159,0
end_of_record
SF:/usr/include/c++/11/bits/cpp_type_traits.h
FN:560,_ZSt12__miter_baseIN9__gnu_cxx17__normal_iteratorIPPKN7doctest6detail8TestCaseESt6vectorIS6_SaIS6_EEEEET_SC_
FNDA:0,_ZSt12__miter_baseIN9__gnu_cxx17__normal_iteratorIPPKN7doctest6detail8TestCaseESt6vectorIS6_SaIS6_EEEEET_SC_
FN:560,_ZSt12__miter_baseIPPN7doctest9IReporterEET_S4_
FNDA:0,_ZSt12__miter_baseIPPN7doctest9IReporterEET_S4_
FN:560,_ZSt12__miter_baseIN9__gnu_cxx17__normal_iteratorIPN7doctest16SubcaseSignatureESt6vectorIS3_SaIS3_EEEEET_S9_
FNDA:0,_ZSt12__miter_baseIN9__gnu_cxx17__normal_iteratorIPN7doctest16SubcaseSignatureESt6vectorIS3_SaIS3_EEEEET_S9_
FN:560,_ZSt12__miter_baseIPN7doctest16SubcaseSignatureEET_S3_
FNDA:0,_ZSt12__miter_baseIPN7doctest16SubcaseSignatureEET_S3_
FN:560,_ZSt12__miter_baseIPKcET_S2_
FNDA:0,_ZSt12__miter_baseIPKcET_S2_
DA:560,0
DA:561,0
DA:560,0
DA:561,0
DA:560,0
DA:561,0
DA:560,0
DA:561,0
DA:560,0
DA:561,0
end_of_record
SF:/usr/include/c++/11/bits/stl_construct.h
FN:80,_ZSt10destroy_atISt4pairIKS0_IiN7doctest6StringEEPFPNS1_9IReporterERKNS1_14ContextOptionsEEEEvPT_
FNDA:0,_ZSt10destroy_atISt4pairIKS0_IiN7doctest6StringEEPFPNS1_9IReporterERKNS1_14ContextOptionsEEEEvPT_
FN:80,_ZSt10destroy_atIN7doctest6StringEEvPT_
FNDA:0,_ZSt10destroy_atIN7doctest6StringEEvPT_
FN:80,_ZSt10destroy_atIN7doctest12_GLOBAL__N_113JUnitReporter17JUnitTestCaseData16JUnitTestMessageEEvPT_
FNDA:0,_ZSt10destroy_atIN7doctest12_GLOBAL__N_113JUnitReporter17JUnitTestCaseData16JUnitTestMessageEEvPT_
FN:80,_ZSt10destroy_atIN7doctest12_GLOBAL__N_113JUnitReporter17JUnitTestCaseData13JUnitTestCaseEEvPT_
FNDA:0,_ZSt10destroy_atIN7doctest12_GLOBAL__N_113JUnitReporter17JUnitTestCaseData13JUnitTestCaseEEvPT_
FN:80,_ZSt10destroy_atIPKN7doctest6detail20IExceptionTranslatorEEvPT_
FNDA:0,_ZSt10destroy_atIPKN7doctest6detail20IExceptionTranslatorEEvPT_
FN:80,_ZSt10destroy_atIPN7doctest9IReporterEEvPT_
FNDA:0,_ZSt10destroy_atIPN7doctest9IReporterEEvPT_
FN:80,_ZSt10destroy_atINSt7__cxx1112basic_stringIcSt11char_traitsIcESaIcEEEEvPT_
FNDA:0,_ZSt10destroy_atINSt7__cxx1112basic_stringIcSt11char_traitsIcESaIcEEEEvPT_
FN:80,_ZSt10destroy_atIPKN7doctest6detail8TestCaseEEvPT_
FNDA:0,_ZSt10destroy_atIPKN7doctest6detail8TestCaseEEvPT_
FN:80,_ZSt10destroy_atIN7doctest16SubcaseSignatureEEvPT_
FNDA:0,_ZSt10destroy_atIN7doctest16SubcaseSignatureEEvPT_
FN:80,_ZSt10destroy_atIPKN7doctest12TestCaseDataEEvPT_
FNDA:0,_ZSt10destroy_atIPKN7doctest12TestCaseDataEEvPT_
FN:80,_ZSt10destroy_atIPN7doctest13IContextScopeEEvPT_
FNDA:0,_ZSt10destroy_atIPN7doctest13IContextScopeEEvPT_
FN:80,_ZSt10destroy_atISt6vectorIN7doctest6StringESaIS2_EEEvPT_
FNDA:0,_ZSt10destroy_atISt6vectorIN7doctest6StringESaIS2_EEEvPT_
FN:80,_ZSt10destroy_atISt4fposI11__mbstate_tEEvPT_
FNDA:0,_ZSt10destroy_atISt4fposI11__mbstate_tEEvPT_
FN:80,_ZSt10destroy_atIyEvPT_
FNDA:0,_ZSt10destroy_atIyEvPT_
FN:80,_ZSt10destroy_atIN7doctest6detail8TestCaseEEvPT_
FNDA:0,_ZSt10destroy_atIN7doctest6detail8TestCaseEEvPT_
FN:94,_ZSt12construct_atIN7doctest12_GLOBAL__N_113JUnitReporter17JUnitTestCaseData16JUnitTestMessageEJRKNSt7__cxx1112basic_stringIcSt11char_traitsIcESaIcEEESC_EEDTgsnwcvPvLi0E_T_pispcl7declvalIT0_EEEEPSE_DpOSF_
FNDA:0,_ZSt12construct_atIN7doctest12_GLOBAL__N_113JUnitReporter17JUnitTestCaseData16JUnitTestMessageEJRKNSt7__cxx1112basic_stringIcSt11char_traitsIcESaIcEEESC_EEDTgsnwcvPvLi0E_T_pispcl7declvalIT0_EEEEPSE_DpOSF_
FN:94,_ZSt12construct_atIN7doctest12_GLOBAL__N_113JUnitReporter17JUnitTestCaseData16JUnitTestMessageEJS4_EEDTgsnwcvPvLi0E_T_pispcl7declvalIT0_EEEEPS6_DpOS7_
FNDA:0,_ZSt12construct_atIN7doctest12_GLOBAL__N_113JUnitReporter17JUnitTestCaseData16JUnitTestMessageEJS4_EEDTgsnwcvPvLi0E_T_pispcl7declvalIT0_EEEEPS6_DpOS7_
FN:94,_ZSt12construct_atIPKN7doctest6detail20IExceptionTranslatorEJRKS4_EEDTgsnwcvPvLi0E_T_pispcl7declvalIT0_EEEEPS8_DpOS9_
FNDA:0,_ZSt12construct_atIPKN7doctest6detail20IExceptionTranslatorEJRKS4_EEDTgsnwcvPvLi0E_T_pispcl7declvalIT0_EEEEPS8_DpOS9_
FN:94,_ZSt12construct_atINSt7__cxx1112basic_stringIcSt11char_traitsIcESaIcEEEJRKS5_EEDTgsnwcvPvLi0E_T_pispcl7declvalIT0_EEEEPS9_DpOSA_
FNDA:0,_ZSt12construct_atINSt7__cxx1112basic_stringIcSt11char_traitsIcESaIcEEEJRKS5_EEDTgsnwcvPvLi0E_T_pispcl7declvalIT0_EEEEPS9_DpOSA_
FN:94,_ZSt12construct_atIN7doctest12_GLOBAL__N_113JUnitReporter17JUnitTestCaseData13JUnitTestCaseEJRKNSt7__cxx1112basic_stringIcSt11char_traitsIcESaIcEEESC_EEDTgsnwcvPvLi0E_T_pispcl7declvalIT0_EEEEPSE_DpOSF_
FNDA:0,_ZSt12construct_atIN7doctest12_GLOBAL__N_113JUnitReporter17JUnitTestCaseData13JUnitTestCaseEJRKNSt7__cxx1112basic_stringIcSt11char_traitsIcESaIcEEESC_EEDTgsnwcvPvLi0E_T_pispcl7declvalIT0_EEEEPSE_DpOSF_
FN:94,_ZSt12construct_atIPKN7doctest12TestCaseDataEJS3_EEDTgsnwcvPvLi0E_T_pispcl7declvalIT0_EEEEPS5_DpOS6_
FNDA:0,_ZSt12construct_atIPKN7doctest12TestCaseDataEJS3_EEDTgsnwcvPvLi0E_T_pispcl7declvalIT0_EEEEPS5_DpOS6_
FN:94,_ZSt12construct_atIPKN7doctest6detail8TestCaseEJS4_EEDTgsnwcvPvLi0E_T_pispcl7declvalIT0_EEEEPS6_DpOS7_
FNDA:0,_ZSt12construct_atIPKN7doctest6detail8TestCaseEJS4_EEDTgsnwcvPvLi0E_T_pispcl7declvalIT0_EEEEPS6_DpOS7_
FN:94,_ZSt12construct_atIPN7doctest9IReporterEJS2_EEDTgsnwcvPvLi0E_T_pispcl7declvalIT0_EEEEPS4_DpOS5_
FNDA:0,_ZSt12construct_atIPN7doctest9IReporterEJS2_EEDTgsnwcvPvLi0E_T_pispcl7declvalIT0_EEEEPS4_DpOS5_
FN:94,_ZSt12construct_atIN7doctest12_GLOBAL__N_113JUnitReporter17JUnitTestCaseData16JUnitTestMessageEJRKNSt7__cxx1112basic_stringIcSt11char_traitsIcESaIcEEESC_SC_EEDTgsnwcvPvLi0E_T_pispcl7declvalIT0_EEEEPSE_DpOSF_
FNDA:0,_ZSt12construct_atIN7doctest12_GLOBAL__N_113JUnitReporter17JUnitTestCaseData16JUnitTestMessageEJRKNSt7__cxx1112basic_stringIcSt11char_traitsIcESaIcEEESC_SC_EEDTgsnwcvPvLi0E_T_pispcl7declvalIT0_EEEEPSE_DpOSF_
FN:94,_ZSt12construct_atIN7doctest6StringEJRKS1_EEDTgsnwcvPvLi0E_T_pispcl7declvalIT0_EEEEPS5_DpOS6_
FNDA:0,_ZSt12construct_atIN7doctest6StringEJRKS1_EEDTgsnwcvPvLi0E_T_pispcl7declvalIT0_EEEEPS5_DpOS6_
FN:94,_ZSt12construct_atISt4fposI11__mbstate_tEJS2_EEDTgsnwcvPvLi0E_T_pispcl7declvalIT0_EEEEPS4_DpOS5_
FNDA:0,_ZSt12construct_atISt4fposI11__mbstate_tEJS2_EEDTgsnwcvPvLi0E_T_pispcl7declvalIT0_EEEEPS4_DpOS5_
FN:94,_ZSt12construct_atIPN7doctest13IContextScopeEJS2_EEDTgsnwcvPvLi0E_T_pispcl7declvalIT0_EEEEPS4_DpOS5_
FNDA:0,_ZSt12construct_atIPN7doctest13IContextScopeEJS2_EEDTgsnwcvPvLi0E_T_pispcl7declvalIT0_EEEEPS4_DpOS5_
FN:94,_ZSt12construct_atIN7doctest16SubcaseSignatureEJRKS1_EEDTgsnwcvPvLi0E_T_pispcl7declvalIT0_EEEEPS5_DpOS6_
FNDA:0,_ZSt12construct_atIN7doctest16SubcaseSignatureEJRKS1_EEDTgsnwcvPvLi0E_T_pispcl7declvalIT0_EEEEPS5_DpOS6_
FN:94,_ZSt12construct_atIN7doctest6StringEJS1_EEDTgsnwcvPvLi0E_T_pispcl7declvalIT0_EEEEPS3_DpOS4_
FNDA:0,_ZSt12construct_atIN7doctest6StringEJS1_EEDTgsnwcvPvLi0E_T_pispcl7declvalIT0_EEEEPS3_DpOS4_
FN:94,_ZSt12construct_atIN7doctest12_GLOBAL__N_113JUnitReporter17JUnitTestCaseData13JUnitTestCaseEJS4_EEDTgsnwcvPvLi0E_T_pispcl7declvalIT0_EEEEPS6_DpOS7_
FNDA:0,_ZSt12construct_atIN7doctest12_GLOBAL__N_113JUnitReporter17JUnitTestCaseData13JUnitTestCaseEJS4_EEDTgsnwcvPvLi0E_T_pispcl7declvalIT0_EEEEPS6_DpOS7_
FN:94,_ZSt12construct_atINSt7__cxx1112basic_stringIcSt11char_traitsIcESaIcEEEJS5_EEDTgsnwcvPvLi0E_T_pispcl7declvalIT0_EEEEPS7_DpOS8_
FNDA:0,_ZSt12construct_atINSt7__cxx1112basic_stringIcSt11char_traitsIcESaIcEEEJS5_EEDTgsnwcvPvLi0E_T_pispcl7declvalIT0_EEEEPS7_DpOS8_
FN:94,_ZSt12construct_atIN7doctest16SubcaseSignatureEJS1_EEDTgsnwcvPvLi0E_T_pispcl7declvalIT0_EEEEPS3_DpOS4_
FNDA:0,_ZSt12construct_atIN7doctest16SubcaseSignatureEJS1_EEDTgsnwcvPvLi0E_T_pispcl7declvalIT0_EEEEPS3_DpOS4_
FN:94,_ZSt12construct_atISt4pairIKS0_IiN7doctest6StringEEPFPNS1_9IReporterERKNS1_14ContextOptionsEEEJSC_EEDTgsnwcvPvLi0E_T_pispcl7declvalIT0_EEEEPSE_DpOSF_
FNDA:0,_ZSt12construct_atISt4pairIKS0_IiN7doctest6StringEEPFPNS1_9IReporterERKNS1_14ContextOptionsEEEJSC_EEDTgsnwcvPvLi0E_T_pispcl7declvalIT0_EEEEPSE_DpOSF_
FN:94,_ZSt12construct_atIN7doctest6detail8TestCaseEJRKS2_EEDTgsnwcvPvLi0E_T_pispcl7declvalIT0_EEEEPS6_DpOS7_
FNDA:0,_ZSt12construct_atIN7doctest6detail8TestCaseEJRKS2_EEDTgsnwcvPvLi0E_T_pispcl7declvalIT0_EEEEPS6_DpOS7_
FN:94,_ZSt12construct_atIyJyEEDTgsnwcvPvLi0E_T_pispcl7declvalIT0_EEEEPS1_DpOS2_
FNDA:0,_ZSt12construct_atIyJyEEDTgsnwcvPvLi0E_T_pispcl7declvalIT0_EEEEPS1_DpOS2_
FN:108,_ZSt10_ConstructIN7doctest16SubcaseSignatureEJS1_EEvPT_DpOT0_
FNDA:0,_ZSt10_ConstructIN7doctest16SubcaseSignatureEJS1_EEvPT_DpOT0_
FN:108,_ZSt10_ConstructIN7doctest16SubcaseSignatureEJRS1_EEvPT_DpOT0_
FNDA:0,_ZSt10_ConstructIN7doctest16SubcaseSignatureEJRS1_EEvPT_DpOT0_
FN:108,_ZSt10_ConstructISt6vectorIN7doctest6StringESaIS2_EEJEEvPT_DpOT0_
FNDA:0,_ZSt10_ConstructISt6vectorIN7doctest6StringESaIS2_EEJEEvPT_DpOT0_
FN:108,_ZSt10_ConstructIN7doctest6StringEJRKS1_EEvPT_DpOT0_
FNDA:0,_ZSt10_ConstructIN7doctest6StringEJRKS1_EEvPT_DpOT0_
FN:135,_ZSt8_DestroyIN7doctest16SubcaseSignatureEEvPT_
FNDA:0,_ZSt8_DestroyIN7doctest16SubcaseSignatureEEvPT_
FN:135,_ZSt8_DestroyIPN7doctest13IContextScopeEEvPT_
FNDA:0,_ZSt8_DestroyIPN7doctest13IContextScopeEEvPT_
FN:135,_ZSt8_DestroyIPKN7doctest12TestCaseDataEEvPT_
FNDA:0,_ZSt8_DestroyIPKN7doctest12TestCaseDataEEvPT_
FN:135,_ZSt8_DestroyIPKN7doctest6detail8TestCaseEEvPT_
FNDA:0,_ZSt8_DestroyIPKN7doctest6detail8TestCaseEEvPT_
FN:135,_ZSt8_DestroyIPN7doctest9IReporterEEvPT_
FNDA:0,_ZSt8_DestroyIPN7doctest9IReporterEEvPT_
FN:135,_ZSt8_DestroyIN7doctest12_GLOBAL__N_113JUnitReporter17JUnitTestCaseData13JUnitTestCaseEEvPT_
FNDA:0,_ZSt8_DestroyIN7doctest12_GLOBAL__N_113JUnitReporter17JUnitTestCaseData13JUnitTestCaseEEvPT_
FN:135,_ZSt8_DestroyIPKN7doctest6detail20IExceptionTranslatorEEvPT_
FNDA:0,_ZSt8_DestroyIPKN7doctest6detail20IExceptionTranslatorEEvPT_
FN:135,_ZSt8_DestroyIN7doctest6StringEEvPT_
FNDA:0,_ZSt8_DestroyIN7doctest6StringEEvPT_
FN:135,_ZSt8_DestroyISt6vectorIN7doctest6StringESaIS2_EEEvPT_
FNDA:0,_ZSt8_DestroyISt6vectorIN7doctest6StringESaIS2_EEEvPT_
FN:135,_ZSt8_DestroyISt4fposI11__mbstate_tEEvPT_
FNDA:0,_ZSt8_DestroyISt4fposI11__mbstate_tEEvPT_
FN:135,_ZSt8_DestroyIN7doctest12_GLOBAL__N_113JUnitReporter17JUnitTestCaseData16JUnitTestMessageEEvPT_
FNDA:0,_ZSt8_DestroyIN7doctest12_GLOBAL__N_113JUnitReporter17JUnitTestCaseData16JUnitTestMessageEEvPT_
FN:135,_ZSt8_DestroyINSt7__cxx1112basic_stringIcSt11char_traitsIcESaIcEEEEvPT_
FNDA:0,_ZSt8_DestroyINSt7__cxx1112basic_stringIcSt11char_traitsIcESaIcEEEEvPT_
FN:149,_ZNSt12_Destroy_auxILb0EE9__destroyIPN7doctest12_GLOBAL__N_113JUnitReporter17JUnitTestCaseData13JUnitTestCaseEEEvT_S8_
FNDA:0,_ZNSt12_Destroy_auxILb0EE9__destroyIPN7doctest12_GLOBAL__N_113JUnitReporter17JUnitTestCaseData13JUnitTestCaseEEEvT_S8_
FN:149,_ZNSt12_Destroy_auxILb0EE9__destroyIPPKN7doctest12TestCaseDataEEEvT_S7_
FNDA:0,_ZNSt12_Destroy_auxILb0EE9__destroyIPPKN7doctest12TestCaseDataEEEvT_S7_
FN:149,_ZNSt12_Destroy_auxILb0EE9__destroyIPPKN7doctest6detail8TestCaseEEEvT_S8_
FNDA:0,_ZNSt12_Destroy_auxILb0EE9__destroyIPPKN7doctest6detail8TestCaseEEEvT_S8_
FN:149,_ZNSt12_Destroy_auxILb0EE9__destroyIPPN7doctest13IContextScopeEEEvT_S6_
FNDA:0,_ZNSt12_Destroy_auxILb0EE9__destroyIPPN7doctest13IContextScopeEEEvT_S6_
FN:149,_ZNSt12_Destroy_auxILb0EE9__destroyIPPN7doctest9IReporterEEEvT_S6_
FNDA:0,_ZNSt12_Destroy_auxILb0EE9__destroyIPPN7doctest9IReporterEEEvT_S6_
FN:149,_ZNSt12_Destroy_auxILb0EE9__destroyIPN7doctest16SubcaseSignatureEEEvT_S5_
FNDA:0,_ZNSt12_Destroy_auxILb0EE9__destroyIPN7doctest16SubcaseSignatureEEEvT_S5_
FN:149,_ZNSt12_Destroy_auxILb0EE9__destroyIPN7doctest12_GLOBAL__N_113JUnitReporter17JUnitTestCaseData16JUnitTestMessageEEEvT_S8_
FNDA:0,_ZNSt12_Destroy_auxILb0EE9__destroyIPN7doctest12_GLOBAL__N_113JUnitReporter17JUnitTestCaseData16JUnitTestMessageEEEvT_S8_
FN:149,_ZNSt12_Destroy_auxILb0EE9__destroyIPNSt7__cxx1112basic_stringIcSt11char_traitsIcESaIcEEEEEvT_S9_
FNDA:0,_ZNSt12_Destroy_auxILb0EE9__destroyIPNSt7__cxx1112basic_stringIcSt11char_traitsIcESaIcEEEEEvT_S9_
FN:149,_ZNSt12_Destroy_auxILb0EE9__destroyIPPKN7doctest6detail20IExceptionTranslatorEEEvT_S8_
FNDA:0,_ZNSt12_Destroy_auxILb0EE9__destroyIPPKN7doctest6detail20IExceptionTranslatorEEEvT_S8_
FN:149,_ZNSt12_Destroy_auxILb0EE9__destroyIPN7doctest6StringEEEvT_S5_
FNDA:0,_ZNSt12_Destroy_auxILb0EE9__destroyIPN7doctest6StringEEEvT_S5_
FN:149,_ZNSt12_Destroy_auxILb0EE9__destroyIPSt6vectorIN7doctest6StringESaIS4_EEEEvT_S8_
FNDA:0,_ZNSt12_Destroy_auxILb0EE9__destroyIPSt6vectorIN7doctest6StringESaIS4_EEEEvT_S8_
FN:149,_ZNSt12_Destroy_auxILb0EE9__destroyIPSt4fposI11__mbstate_tEEEvT_S6_
FNDA:0,_ZNSt12_Destroy_auxILb0EE9__destroyIPSt4fposI11__mbstate_tEEEvT_S6_
FN:161,_ZNSt12_Destroy_auxILb1EE9__destroyIPPKN7doctest6detail20IExceptionTranslatorEEEvT_S8_
FNDA:0,_ZNSt12_Destroy_auxILb1EE9__destroyIPPKN7doctest6detail20IExceptionTranslatorEEEvT_S8_
FN:161,_ZNSt12_Destroy_auxILb1EE9__destroyIPPKN7doctest12TestCaseDataEEEvT_S7_
FNDA:0,_ZNSt12_Destroy_auxILb1EE9__destroyIPPKN7doctest12TestCaseDataEEEvT_S7_
FN:161,_ZNSt12_Destroy_auxILb1EE9__destroyIPPKN7doctest6detail8TestCaseEEEvT_S8_
FNDA:0,_ZNSt12_Destroy_auxILb1EE9__destroyIPPKN7doctest6detail8TestCaseEEEvT_S8_
FN:161,_ZNSt12_Destroy_auxILb1EE9__destroyIPSt4fposI11__mbstate_tEEEvT_S6_
FNDA:0,_ZNSt12_Destroy_auxILb1EE9__destroyIPSt4fposI11__mbstate_tEEEvT_S6_
FN:161,_ZNSt12_Destroy_auxILb1EE9__destroyIPPN7doctest9IReporterEEEvT_S6_
FNDA:0,_ZNSt12_Destroy_auxILb1EE9__destroyIPPN7doctest9IReporterEEEvT_S6_
FN:161,_ZNSt12_Destroy_auxILb1EE9__destroyIPPN7doctest13IContextScopeEEEvT_S6_
FNDA:0,_ZNSt12_Destroy_auxILb1EE9__destroyIPPN7doctest13IContextScopeEEEvT_S6_
FN:171,_ZSt8_DestroyIPPKN7doctest6detail20IExceptionTranslatorEEvT_S6_
FNDA:0,_ZSt8_DestroyIPPKN7doctest6detail20IExceptionTranslatorEEvT_S6_
FN:171,_ZSt8_DestroyIPSt4fposI11__mbstate_tEEvT_S4_
FNDA:0,_ZSt8_DestroyIPSt4fposI11__mbstate_tEEvT_S4_
FN:171,_ZSt8_DestroyIPSt6vectorIN7doctest6StringESaIS2_EEEvT_S6_
FNDA:0,_ZSt8_DestroyIPSt6vectorIN7doctest6StringESaIS2_EEEvT_S6_
FN:171,_ZSt8_DestroyIPPN7doctest9IReporterEEvT_S4_
FNDA:0,_ZSt8_DestroyIPPN7doctest9IReporterEEvT_S4_
FN:171,_ZSt8_DestroyIPPKN7doctest12TestCaseDataEEvT_S5_
FNDA:0,_ZSt8_DestroyIPPKN7doctest12TestCaseDataEEvT_S5_
FN:171,_ZSt8_DestroyIPPN7doctest13IContextScopeEEvT_S4_
FNDA:0,_ZSt8_DestroyIPPN7doctest13IContextScopeEEvT_S4_
FN:171,_ZSt8_DestroyIPPKN7doctest6detail8TestCaseEEvT_S6_
FNDA:0,_ZSt8_DestroyIPPKN7doctest6detail8TestCaseEEvT_S6_
FN:171,_ZSt8_DestroyIPNSt7__cxx1112basic_stringIcSt11char_traitsIcESaIcEEEEvT_S7_
FNDA:0,_ZSt8_DestroyIPNSt7__cxx1112basic_stringIcSt11char_traitsIcESaIcEEEEvT_S7_
FN:171,_ZSt8_DestroyIPN7doctest12_GLOBAL__N_113JUnitReporter17JUnitTestCaseData16JUnitTestMessageEEvT_S6_
FNDA:0,_ZSt8_DestroyIPN7doctest12_GLOBAL__N_113JUnitReporter17JUnitTestCaseData16JUnitTestMessageEEvT_S6_
FN:171,_ZSt8_DestroyIPN7doctest6StringEEvT_S3_
FNDA:0,_ZSt8_DestroyIPN7doctest6StringEEvT_S3_
FN:171,_ZSt8_DestroyIPN7doctest12_GLOBAL__N_113JUnitReporter17JUnitTestCaseData13JUnitTestCaseEEvT_S6_
FNDA:0,_ZSt8_DestroyIPN7doctest12_GLOBAL__N_113JUnitReporter17JUnitTestCaseData13JUnitTestCaseEEvT_S6_
FN:171,_ZSt8_DestroyIPN7doctest16SubcaseSignatureEEvT_S3_
FNDA:0,_ZSt8_DestroyIPN7doctest16SubcaseSignatureEEvT_S3_
DA:80,0
DA:88,0
DA:89,0
DA:80,0
DA:88,0
DA:89,0
DA:80,0
DA:88,0
DA:89,0
DA:80,0
DA:88,0
DA:89,0
DA:80,0
DA:88,0
DA:89,0
DA:80,0
DA:88,0
DA:89,0
DA:80,0
DA:88,0
DA:89,0
DA:80,0
DA:88,0
DA:89,0
DA:80,0
DA:88,0
DA:89,0
DA:80,0
DA:88,0
DA:89,0
DA:80,0
DA:88,0
DA:89,0
DA:80,0
DA:88,0
DA:89,0
DA:80,0
DA:88,0
DA:89,0
DA:80,0
DA:88,0
DA:89,0
DA:80,0
DA:88,0
DA:89,0
DA:94,0
DA:97,0
DA:94,0
DA:97,0
DA:94,0
DA:97,0
DA:94,0
DA:97,0
DA:94,0
DA:97,0
DA:94,0
DA:97,0
DA:94,0
DA:97,0
DA:94,0
DA:97,0
DA:94,0
DA:97,0
DA:94,0
DA:97,0
DA:94,0
DA:97,0
DA:94,0
DA:97,0
DA:94,0
DA:97,0
DA:94,0
DA:97,0
DA:94,0
DA:97,0
DA:94,0
DA:97,0
DA:94,0
DA:97,0
DA:94,0
DA:97,0
DA:94,0
DA:97,0
DA:94,0
DA:97,0
DA:108,0
DA:109,0
DA:108,0
DA:109,0
DA:108,0
DA:109,0
DA:108,0
DA:109,0
DA:135,0
DA:138,0
DA:142,0
DA:135,0
DA:138,0
DA:142,0
DA:135,0
DA:138,0
DA:142,0
DA:135,0
DA:138,0
DA:142,0
DA:135,0
DA:138,0
DA:142,0
DA:135,0
DA:138,0
DA:142,0
DA:135,0
DA:138,0
DA:142,0
DA:135,0
DA:138,0
DA:142,0
DA:135,0
DA:138,0
DA:142,0
DA:135,0
DA:138,0
DA:142,0
DA:135,0
DA:138,0
DA:142,0
DA:135,0
DA:138,0
DA:142,0
DA:149,0
DA:151,0
DA:152,0
DA:153,0
DA:149,0
DA:151,0
DA:152,0
DA:153,0
DA:149,0
DA:151,0
DA:152,0
DA:153,0
DA:149,0
DA:151,0
DA:152,0
DA:153,0
DA:149,0
DA:151,0
DA:152,0
DA:153,0
DA:149,0
DA:151,0
DA:152,0
DA:153,0
DA:149,0
DA:151,0
DA:152,0
DA:153,0
DA:149,0
DA:151,0
DA:152,0
DA:153,0
DA:149,0
DA:151,0
DA:152,0
DA:153,0
DA:149,0
DA:151,0
DA:152,0
DA:153,0
DA:149,0
DA:151,0
DA:152,0
DA:153,0
DA:149,0
DA:151,0
DA:152,0
DA:153,0
DA:161,0
DA:161,0
DA:161,0
DA:161,0
DA:161,0
DA:161,0
DA:171,0
DA:181,0
DA:182,0
DA:185,0
DA:171,0
DA:181,0
DA:182,0
DA:185,0
DA:171,0
DA:181,0
DA:182,0
DA:185,0
DA:171,0
DA:181,0
DA:182,0
DA:185,0
DA:171,0
DA:181,0
DA:182,0
DA:185,0
DA:171,0
DA:181,0
DA:182,0
DA:185,0
DA:171,0
DA:181,0
DA:182,0
DA:185,0
DA:171,0
DA:181,0
DA:182,0
DA:185,0
DA:171,0
DA:181,0
DA:182,0
DA:185,0
DA:171,0
DA:181,0
DA:182,0
DA:185,0
DA:171,0
DA:181,0
DA:182,0
DA:185,0
DA:171,0
DA:181,0
DA:182,0
DA:185,0
end_of_record
SF:/usr/include/c++/11/bits/allocator.h
FN:144,_ZNSaIN7doctest12_GLOBAL__N_113JUnitReporter17JUnitTestCaseData16JUnitTestMessageEEC2Ev
FNDA:0,_ZNSaIN7doctest12_GLOBAL__N_113JUnitReporter17JUnitTestCaseData16JUnitTestMessageEEC2Ev
FN:144,_ZNSaINSt8__detail10_Hash_nodeIyLb0EEEEC2Ev
FNDA:0,_ZNSaINSt8__detail10_Hash_nodeIyLb0EEEEC2Ev
FN:144,_ZNSaISt6vectorIN7doctest6StringESaIS1_EEEC2Ev
FNDA:0,_ZNSaISt6vectorIN7doctest6StringESaIS1_EEEC2Ev
FN:144,_ZNSaISt4fposI11__mbstate_tEEC2Ev
FNDA:0,_ZNSaISt4fposI11__mbstate_tEEC2Ev
FN:144,_ZNSaISt13_Rb_tree_nodeISt4pairIKS0_IiN7doctest6StringEEPFPNS1_9IReporterERKNS1_14ContextOptionsEEEEEC2Ev
FNDA:0,_ZNSaISt13_Rb_tree_nodeISt4pairIKS0_IiN7doctest6StringEEPFPNS1_9IReporterERKNS1_14ContextOptionsEEEEEC2Ev
FN:144,_ZNSaISt13_Rb_tree_nodeIN7doctest6detail8TestCaseEEEC2Ev
FNDA:0,_ZNSaISt13_Rb_tree_nodeIN7doctest6detail8TestCaseEEEC2Ev
FN:144,_ZNSaIPKN7doctest6detail20IExceptionTranslatorEEC2Ev
FNDA:0,_ZNSaIPKN7doctest6detail20IExceptionTranslatorEEC2Ev
FN:144,_ZNSaIPN7doctest13IContextScopeEEC2Ev
FNDA:0,_ZNSaIPN7doctest13IContextScopeEEC2Ev
FN:144,_ZNSaINSt7__cxx1112basic_stringIcSt11char_traitsIcESaIcEEEEC2Ev
FNDA:0,_ZNSaINSt7__cxx1112basic_stringIcSt11char_traitsIcESaIcEEEEC2Ev
FN:144,_ZNSaIN7doctest6StringEEC2Ev
FNDA:0,_ZNSaIN7doctest6StringEEC2Ev
FN:144,_ZNSaIN7doctest12_GLOBAL__N_113JUnitReporter17JUnitTestCaseData13JUnitTestCaseEEC2Ev
FNDA:0,_ZNSaIN7doctest12_GLOBAL__N_113JUnitReporter17JUnitTestCaseData13JUnitTestCaseEEC2Ev
FN:144,_ZNSaIN7doctest16SubcaseSignatureEEC2Ev
FNDA:0,_ZNSaIN7doctest16SubcaseSignatureEEC2Ev
FN:144,_ZNSaIPN7doctest9IReporterEEC2Ev
FNDA:0,_ZNSaIPN7doctest9IReporterEEC2Ev
FN:144,_ZNSaIPKN7doctest6detail8TestCaseEEC2Ev
FNDA:0,_ZNSaIPKN7doctest6detail8TestCaseEEC2Ev
FN:144,_ZNSaISt13_Rb_tree_nodeIN7doctest6StringEEEC2Ev
FNDA:0,_ZNSaISt13_Rb_tree_nodeIN7doctest6StringEEEC2Ev
FN:144,_ZNSaIPKN7doctest12TestCaseDataEEC2Ev
FNDA:0,_ZNSaIPKN7doctest12TestCaseDataEEC2Ev
FN:147,_ZNSaISt6vectorIN7doctest6StringESaIS1_EEEC2ERKS4_
FNDA:0,_ZNSaISt6vectorIN7doctest6StringESaIS1_EEEC2ERKS4_
FN:147,_ZNSaIN7doctest6StringEEC2ERKS1_
FNDA:0,_ZNSaIN7doctest6StringEEC2ERKS1_
FN:147,_ZNSaIN7doctest12_GLOBAL__N_113JUnitReporter17JUnitTestCaseData16JUnitTestMessageEEC2ERKS4_
FNDA:0,_ZNSaIN7doctest12_GLOBAL__N_113JUnitReporter17JUnitTestCaseData16JUnitTestMessageEEC2ERKS4_
FN:157,_ZNSaIPNSt8__detail15_Hash_node_baseEEC2INS_10_Hash_nodeIyLb0EEEEERKSaIT_E
FNDA:0,_ZNSaIPNSt8__detail15_Hash_node_baseEEC2INS_10_Hash_nodeIyLb0EEEEERKSaIT_E
FN:162,_ZNSaINSt7__cxx1112basic_stringIcSt11char_traitsIcESaIcEEEED2Ev
FNDA:0,_ZNSaINSt7__cxx1112basic_stringIcSt11char_traitsIcESaIcEEEED2Ev
FN:162,_ZNSaIPN7doctest13IContextScopeEED2Ev
FNDA:0,_ZNSaIPN7doctest13IContextScopeEED2Ev
FN:162,_ZNSaIPKN7doctest6detail20IExceptionTranslatorEED2Ev
FNDA:0,_ZNSaIPKN7doctest6detail20IExceptionTranslatorEED2Ev
FN:162,_ZNSaIPKN7doctest12TestCaseDataEED2Ev
FNDA:0,_ZNSaIPKN7doctest12TestCaseDataEED2Ev
FN:162,_ZNSaISt13_Rb_tree_nodeIN7doctest6detail8TestCaseEEED2Ev
FNDA:0,_ZNSaISt13_Rb_tree_nodeIN7doctest6detail8TestCaseEEED2Ev
FN:162,_ZNSaISt13_Rb_tree_nodeISt4pairIKS0_IiN7doctest6StringEEPFPNS1_9IReporterERKNS1_14ContextOptionsEEEEED2Ev
FNDA:0,_ZNSaISt13_Rb_tree_nodeISt4pairIKS0_IiN7doctest6StringEEPFPNS1_9IReporterERKNS1_14ContextOptionsEEEEED2Ev
FN:162,_ZNSaISt6vectorIN7doctest6StringESaIS1_EEED2Ev
FNDA:0,_ZNSaISt6vectorIN7doctest6StringESaIS1_EEED2Ev
FN:162,_ZNSaISt4fposI11__mbstate_tEED2Ev
FNDA:0,_ZNSaISt4fposI11__mbstate_tEED2Ev
FN:162,_ZNSaIN7doctest12_GLOBAL__N_113JUnitReporter17JUnitTestCaseData16JUnitTestMessageEED2Ev
FNDA:0,_ZNSaIN7doctest12_GLOBAL__N_113JUnitReporter17JUnitTestCaseData16JUnitTestMessageEED2Ev
FN:162,_ZNSaIN7doctest6StringEED2Ev
FNDA:0,_ZNSaIN7doctest6StringEED2Ev
FN:162,_ZNSaIN7doctest12_GLOBAL__N_113JUnitReporter17JUnitTestCaseData13JUnitTestCaseEED2Ev
FNDA:0,_ZNSaIN7doctest12_GLOBAL__N_113JUnitReporter17JUnitTestCaseData13JUnitTestCaseEED2Ev
FN:162,_ZNSaIN7doctest16SubcaseSignatureEED2Ev
FNDA:0,_ZNSaIN7doctest16SubcaseSignatureEED2Ev
FN:162,_ZNSaIPN7doctest9IReporterEED2Ev
FNDA:0,_ZNSaIPN7doctest9IReporterEED2Ev
FN:162,_ZNSaINSt8__detail10_Hash_nodeIyLb0EEEED2Ev
FNDA:0,_ZNSaINSt8__detail10_Hash_nodeIyLb0EEEED2Ev
FN:162,_ZNSaIPKN7doctest6detail8TestCaseEED2Ev
FNDA:0,_ZNSaIPKN7doctest6detail8TestCaseEED2Ev
FN:162,_ZNSaISt13_Rb_tree_nodeIN7doctest6StringEEED2Ev
FNDA:0,_ZNSaISt13_Rb_tree_nodeIN7doctest6StringEEED2Ev
FN:162,_ZNSaIPNSt8__detail15_Hash_node_baseEED2Ev
FNDA:0,_ZNSaIPNSt8__detail15_Hash_node_baseEED2Ev
FN:192,_ZSteqRKSaIcES1_
FNDA:0,_ZSteqRKSaIcES1_
DA:144,0
DA:144,0
DA:144,0
DA:144,0
DA:144,0
DA:144,0
DA:144,0
DA:144,0
DA:144,0
DA:144,0
DA:144,0
DA:144,0
DA:144,0
DA:144,0
DA:144,0
DA:144,0
DA:147,0
DA:148,0
DA:147,0
DA:148,0
DA:147,0
DA:148,0
DA:157,0
DA:162,0
DA:162,0
DA:162,0
DA:162,0
DA:162,0
DA:162,0
DA:162,0
DA:162,0
DA:162,0
DA:162,0
DA:162,0
DA:162,0
DA:162,0
DA:162,0
DA:162,0
DA:162,0
DA:162,0
DA:170,0
DA:171,0
DA:173,0
DA:181,0
DA:183,0
DA:184,0
DA:187,0
DA:192,0
DA:193,0
end_of_record
SF:/usr/include/c++/11/bits/stl_set.h
FN:167,_ZNSt3setIN7doctest6StringESt4lessIS1_ESaIS1_EEC2Ev
FNDA:0,_ZNSt3setIN7doctest6StringESt4lessIS1_ESaIS1_EEC2Ev
FN:167,_ZNSt3setIN7doctest6detail8TestCaseESt4lessIS2_ESaIS2_EEC2Ev
FNDA:0,_ZNSt3setIN7doctest6detail8TestCaseESt4lessIS2_ESaIS2_EEC2Ev
FN:281,_ZNSt3setIN7doctest6StringESt4lessIS1_ESaIS1_EED2Ev
FNDA:0,_ZNSt3setIN7doctest6StringESt4lessIS1_ESaIS1_EED2Ev
FN:281,_ZNSt3setIN7doctest6detail8TestCaseESt4lessIS2_ESaIS2_EED2Ev
FNDA:0,_ZNSt3setIN7doctest6detail8TestCaseESt4lessIS2_ESaIS2_EED2Ev
FN:344,_ZNKSt3setIN7doctest6detail8TestCaseESt4lessIS2_ESaIS2_EE5beginEv
FNDA:0,_ZNKSt3setIN7doctest6detail8TestCaseESt4lessIS2_ESaIS2_EE5beginEv
FN:353,_ZNKSt3setIN7doctest6detail8TestCaseESt4lessIS2_ESaIS2_EE3endEv
FNDA:0,_ZNKSt3setIN7doctest6detail8TestCaseESt4lessIS2_ESaIS2_EE3endEv
FN:509,_ZNSt3setIN7doctest6detail8TestCaseESt4lessIS2_ESaIS2_EE6insertERKS2_
FNDA:0,_ZNSt3setIN7doctest6detail8TestCaseESt4lessIS2_ESaIS2_EE6insertERKS2_
FN:518,_ZNSt3setIN7doctest6StringESt4lessIS1_ESaIS1_EE6insertEOS1_
FNDA:0,_ZNSt3setIN7doctest6StringESt4lessIS1_ESaIS1_EE6insertEOS1_
FN:748,_ZNKSt3setIN7doctest6StringESt4lessIS1_ESaIS1_EE5countERKS1_
FNDA:0,_ZNKSt3setIN7doctest6StringESt4lessIS1_ESaIS1_EE5countERKS1_
DA:167,0
DA:167,0
DA:281,0
DA:281,0
DA:344,0
DA:345,0
DA:353,0
DA:354,0
DA:509,0
DA:512,0
DA:513,0
DA:518,0
DA:521,0
DA:522,0
DA:748,0
DA:749,0
end_of_record
SF:/usr/include/c++/11/type_traits
FN:3315,_ZSt21is_constant_evaluatedv
FNDA:0,_ZSt21is_constant_evaluatedv
DA:3315,0
DA:3316,0
end_of_record
SF:/usr/include/c++/11/bits/iterator_concepts.h
FN:124,_ZNKSt6ranges12__cust_imove6_IMoveclIRKPN7doctest16SubcaseSignatureEEENS1_8__resultIT_E4typeEOS9_
FNDA:0,_ZNKSt6ranges12__cust_imove6_IMoveclIRKPN7doctest16SubcaseSignatureEEENS1_8__resultIT_E4typeEOS9_
DA:124,0
DA:130,0
end_of_record
SF:/usr/include/c++/11/bits/basic_string.tcc
FN:132,_ZNSt7__cxx1112basic_stringIcSt11char_traitsIcESaIcEE9_M_createERmm
FNDA:0,_ZNSt7__cxx1112basic_stringIcSt11char_traitsIcESaIcEE9_M_createERmm
FN:206,_ZNSt7__cxx1112basic_stringIcSt11char_traitsIcESaIcEE12_M_constructIPcEEvT_S7_St20forward_iterator_tag
FNDA:0,_ZNSt7__cxx1112basic_stringIcSt11char_traitsIcESaIcEE12_M_constructIPcEEvT_S7_St20forward_iterator_tag
FN:206,_ZNSt7__cxx1112basic_stringIcSt11char_traitsIcESaIcEE12_M_constructIPKcEEvT_S8_St20forward_iterator_tag
FNDA:0,_ZNSt7__cxx1112basic_stringIcSt11char_traitsIcESaIcEE12_M_constructIPKcEEvT_S8_St20forward_iterator_tag
FN:254,_ZNSt7__cxx1112basic_stringIcSt11char_traitsIcESaIcEE9_M_assignERKS4_
FNDA:0,_ZNSt7__cxx1112basic_stringIcSt11char_traitsIcESaIcEE9_M_assignERKS4_
FN:300,_ZNSt7__cxx1112basic_stringIcSt11char_traitsIcESaIcEE9_M_mutateEmmPKcm
FNDA:0,_ZNSt7__cxx1112basic_stringIcSt11char_traitsIcESaIcEE9_M_mutateEmmPKcm
FN:384,_ZNSt7__cxx1112basic_stringIcSt11char_traitsIcESaIcEE9_M_appendEPKcm
FNDA:0,_ZNSt7__cxx1112basic_stringIcSt11char_traitsIcESaIcEE9_M_appendEPKcm
FN:1452,_ZNKSt7__cxx1112basic_stringIcSt11char_traitsIcESaIcEE7compareEmmPKc
FNDA:0,_ZNKSt7__cxx1112basic_stringIcSt11char_traitsIcESaIcEE7compareEmmPKc
DA:132,0
DA:137,0
DA:138,0
DA:143,0
DA:145,0
DA:147,0
DA:148,0
DA:153,0
DA:206,0
DA:211,0
DA:212,0
DA:215,0
DA:217,0
DA:219,0
DA:220,0
DA:225,0
DA:232,0
DA:233,0
DA:206,0
DA:211,0
DA:212,0
DA:215,0
DA:217,0
DA:219,0
DA:220,0
DA:225,0
DA:232,0
DA:233,0
DA:254,0
DA:257,0
DA:259,0
DA:260,0
DA:262,0
DA:264,0
DA:265,0
DA:266,0
DA:267,0
DA:268,0
DA:271,0
DA:272,0
DA:274,0
DA:276,0
DA:300,0
DA:304,0
DA:306,0
DA:307,0
DA:309,0
DA:310,0
DA:311,0
DA:312,0
DA:313,0
DA:314,0
DA:315,0
DA:317,0
DA:318,0
DA:319,0
DA:320,0
DA:384,0
DA:387,0
DA:389,0
DA:391,0
DA:392,0
DA:395,0
DA:397,0
DA:398,0
DA:1452,0
DA:1456,0
DA:1457,0
DA:1458,0
DA:1459,0
DA:1460,0
DA:1461,0
DA:1462,0
DA:1463,0
end_of_record
SF:/usr/include/c++/11/iostream
end_of_record
SF:/usr/include/c++/11/bits/stl_heap.h
FN:134,_ZSt11__push_heapIN9__gnu_cxx17__normal_iteratorIPPKN7doctest6detail8TestCaseESt6vectorIS6_SaIS6_EEEElS6_NS0_5__ops14_Iter_comp_valIPFbS6_S6_EEEEvT_T0_SI_T1_RT2_
FNDA:0,_ZSt11__push_heapIN9__gnu_cxx17__normal_iteratorIPPKN7doctest6detail8TestCaseESt6vectorIS6_SaIS6_EEEElS6_NS0_5__ops14_Iter_comp_valIPFbS6_S6_EEEEvT_T0_SI_T1_RT2_
FN:223,_ZSt13__adjust_heapIN9__gnu_cxx17__normal_iteratorIPPKN7doctest6detail8TestCaseESt6vectorIS6_SaIS6_EEEElS6_NS0_5__ops15_Iter_comp_iterIPFbS6_S6_EEEEvT_T0_SI_T1_T2_
FNDA:0,_ZSt13__adjust_heapIN9__gnu_cxx17__normal_iteratorIPPKN7doctest6detail8TestCaseESt6vectorIS6_SaIS6_EEEElS6_NS0_5__ops15_Iter_comp_iterIPFbS6_S6_EEEEvT_T0_SI_T1_T2_
FN:253,_ZSt10__pop_heapIN9__gnu_cxx17__normal_iteratorIPPKN7doctest6detail8TestCaseESt6vectorIS6_SaIS6_EEEENS0_5__ops15_Iter_comp_iterIPFbS6_S6_EEEEvT_SH_SH_RT0_
FNDA:0,_ZSt10__pop_heapIN9__gnu_cxx17__normal_iteratorIPPKN7doctest6detail8TestCaseESt6vectorIS6_SaIS6_EEEENS0_5__ops15_Iter_comp_iterIPFbS6_S6_EEEEvT_SH_SH_RT0_
FN:339,_ZSt11__make_heapIN9__gnu_cxx17__normal_iteratorIPPKN7doctest6detail8TestCaseESt6vectorIS6_SaIS6_EEEENS0_5__ops15_Iter_comp_iterIPFbS6_S6_EEEEvT_SH_RT0_
FNDA:0,_ZSt11__make_heapIN9__gnu_cxx17__normal_iteratorIPPKN7doctest6detail8TestCaseESt6vectorIS6_SaIS6_EEEENS0_5__ops15_Iter_comp_iterIPFbS6_S6_EEEEvT_SH_RT0_
FN:418,_ZSt11__sort_heapIN9__gnu_cxx17__normal_iteratorIPPKN7doctest6detail8TestCaseESt6vectorIS6_SaIS6_EEEENS0_5__ops15_Iter_comp_iterIPFbS6_S6_EEEEvT_SH_RT0_
FNDA:0,_ZSt11__sort_heapIN9__gnu_cxx17__normal_iteratorIPPKN7doctest6detail8TestCaseESt6vectorIS6_SaIS6_EEEENS0_5__ops15_Iter_comp_iterIPFbS6_S6_EEEEvT_SH_RT0_
DA:134,0
DA:138,0
DA:139,0
DA:141,0
DA:142,0
DA:143,0
DA:145,0
DA:146,0
DA:223,0
DA:226,0
DA:227,0
DA:228,0
DA:230,0
DA:231,0
DA:233,0
DA:234,0
DA:235,0
DA:237,0
DA:239,0
DA:240,0
DA:242,0
DA:245,0
DA:246,0
DA:247,0
DA:248,0
DA:253,0
DA:261,0
DA:262,0
DA:263,0
DA:264,0
DA:265,0
DA:266,0
DA:339,0
DA:347,0
DA:348,0
DA:350,0
DA:351,0
DA:352,0
DA:354,0
DA:355,0
DA:357,0
DA:358,0
DA:359,0
DA:418,0
DA:421,0
DA:423,0
DA:424,0
DA:426,0
end_of_record
SF:/usr/include/c++/11/bits/stl_algo.h
FN:79,_ZSt22__move_median_to_firstIN9__gnu_cxx17__normal_iteratorIPPKN7doctest6detail8TestCaseESt6vectorIS6_SaIS6_EEEENS0_5__ops15_Iter_comp_iterIPFbS6_S6_EEEEvT_SH_SH_SH_T0_
FNDA:0,_ZSt22__move_median_to_firstIN9__gnu_cxx17__normal_iteratorIPPKN7doctest6detail8TestCaseESt6vectorIS6_SaIS6_EEEENS0_5__ops15_Iter_comp_iterIPFbS6_S6_EEEEvT_SH_SH_SH_T0_
FN:1642,_ZSt13__heap_selectIN9__gnu_cxx17__normal_iteratorIPPKN7doctest6detail8TestCaseESt6vectorIS6_SaIS6_EEEENS0_5__ops15_Iter_comp_iterIPFbS6_S6_EEEEvT_SH_SH_T0_
FNDA:0,_ZSt13__heap_selectIN9__gnu_cxx17__normal_iteratorIPPKN7doctest6detail8TestCaseESt6vectorIS6_SaIS6_EEEENS0_5__ops15_Iter_comp_iterIPFbS6_S6_EEEEvT_SH_SH_T0_
FN:1799,_ZSt25__unguarded_linear_insertIN9__gnu_cxx17__normal_iteratorIPPKN7doctest6detail8TestCaseESt6vectorIS6_SaIS6_EEEENS0_5__ops14_Val_comp_iterIPFbS6_S6_EEEEvT_T0_
FNDA:0,_ZSt25__unguarded_linear_insertIN9__gnu_cxx17__normal_iteratorIPPKN7doctest6detail8TestCaseESt6vectorIS6_SaIS6_EEEENS0_5__ops14_Val_comp_iterIPFbS6_S6_EEEEvT_T0_
FN:1819,_ZSt16__insertion_sortIN9__gnu_cxx17__normal_iteratorIPPKN7doctest6detail8TestCaseESt6vectorIS6_SaIS6_EEEENS0_5__ops15_Iter_comp_iterIPFbS6_S6_EEEEvT_SH_T0_
FNDA:0,_ZSt16__insertion_sortIN9__gnu_cxx17__normal_iteratorIPPKN7doctest6detail8TestCaseESt6vectorIS6_SaIS6_EEEENS0_5__ops15_Iter_comp_iterIPFbS6_S6_EEEEvT_SH_T0_
FN:1843,_ZSt26__unguarded_insertion_sortIN9__gnu_cxx17__normal_iteratorIPPKN7doctest6detail8TestCaseESt6vectorIS6_SaIS6_EEEENS0_5__ops15_Iter_comp_iterIPFbS6_S6_EEEEvT_SH_T0_
FNDA:0,_ZSt26__unguarded_insertion_sortIN9__gnu_cxx17__normal_iteratorIPPKN7doctest6detail8TestCaseESt6vectorIS6_SaIS6_EEEENS0_5__ops15_Iter_comp_iterIPFbS6_S6_EEEEvT_SH_T0_
FN:1861,_ZSt22__final_insertion_sortIN9__gnu_cxx17__normal_iteratorIPPKN7doctest6detail8TestCaseESt6vectorIS6_SaIS6_EEEENS0_5__ops15_Iter_comp_iterIPFbS6_S6_EEEEvT_SH_T0_
FNDA:0,_ZSt22__final_insertion_sortIN9__gnu_cxx17__normal_iteratorIPPKN7doctest6detail8TestCaseESt6vectorIS6_SaIS6_EEEENS0_5__ops15_Iter_comp_iterIPFbS6_S6_EEEEvT_SH_T0_
FN:1878,_ZSt21__unguarded_partitionIN9__gnu_cxx17__normal_iteratorIPPKN7doctest6detail8TestCaseESt6vectorIS6_SaIS6_EEEENS0_5__ops15_Iter_comp_iterIPFbS6_S6_EEEET_SH_SH_SH_T0_
FNDA:0,_ZSt21__unguarded_partitionIN9__gnu_cxx17__normal_iteratorIPPKN7doctest6detail8TestCaseESt6vectorIS6_SaIS6_EEEENS0_5__ops15_Iter_comp_iterIPFbS6_S6_EEEET_SH_SH_SH_T0_
FN:1900,_ZSt27__unguarded_partition_pivotIN9__gnu_cxx17__normal_iteratorIPPKN7doctest6detail8TestCaseESt6vectorIS6_SaIS6_EEEENS0_5__ops15_Iter_comp_iterIPFbS6_S6_EEEET_SH_SH_T0_
FNDA:0,_ZSt27__unguarded_partition_pivotIN9__gnu_cxx17__normal_iteratorIPPKN7doctest6detail8TestCaseESt6vectorIS6_SaIS6_EEEENS0_5__ops15_Iter_comp_iterIPFbS6_S6_EEEET_SH_SH_T0_
FN:1912,_ZSt14__partial_sortIN9__gnu_cxx17__normal_iteratorIPPKN7doctest6detail8TestCaseESt6vectorIS6_SaIS6_EEEENS0_5__ops15_Iter_comp_iterIPFbS6_S6_EEEEvT_SH_SH_T0_
FNDA:0,_ZSt14__partial_sortIN9__gnu_cxx17__normal_iteratorIPPKN7doctest6detail8TestCaseESt6vectorIS6_SaIS6_EEEENS0_5__ops15_Iter_comp_iterIPFbS6_S6_EEEEvT_SH_SH_T0_
FN:1925,_ZSt16__introsort_loopIN9__gnu_cxx17__normal_iteratorIPPKN7doctest6detail8TestCaseESt6vectorIS6_SaIS6_EEEElNS0_5__ops15_Iter_comp_iterIPFbS6_S6_EEEEvT_SH_T0_T1_
FNDA:0,_ZSt16__introsort_loopIN9__gnu_cxx17__normal_iteratorIPPKN7doctest6detail8TestCaseESt6vectorIS6_SaIS6_EEEElNS0_5__ops15_Iter_comp_iterIPFbS6_S6_EEEEvT_SH_T0_T1_
FN:1949,_ZSt6__sortIN9__gnu_cxx17__normal_iteratorIPPKN7doctest6detail8TestCaseESt6vectorIS6_SaIS6_EEEENS0_5__ops15_Iter_comp_iterIPFbS6_S6_EEEEvT_SH_T0_
FNDA:0,_ZSt6__sortIN9__gnu_cxx17__normal_iteratorIPPKN7doctest6detail8TestCaseESt6vectorIS6_SaIS6_EEEENS0_5__ops15_Iter_comp_iterIPFbS6_S6_EEEEvT_SH_T0_
FN:3876,_ZSt4findIN9__gnu_cxx17__normal_iteratorIPPKN7doctest6detail20IExceptionTranslatorESt6vectorIS6_SaIS6_EEEES6_ET_SC_SC_RKT0_
FNDA:0,_ZSt4findIN9__gnu_cxx17__normal_iteratorIPPKN7doctest6detail20IExceptionTranslatorESt6vectorIS6_SaIS6_EEEES6_ET_SC_SC_RKT0_
FN:4863,_ZSt4sortIN9__gnu_cxx17__normal_iteratorIPPKN7doctest6detail8TestCaseESt6vectorIS6_SaIS6_EEEEPFbS6_S6_EEvT_SE_T0_
FNDA:0,_ZSt4sortIN9__gnu_cxx17__normal_iteratorIPPKN7doctest6detail8TestCaseESt6vectorIS6_SaIS6_EEEEPFbS6_S6_EEvT_SE_T0_
DA:79,0
DA:82,0
DA:84,0
DA:85,0
DA:86,0
DA:87,0
DA:89,0
DA:91,0
DA:92,0
DA:93,0
DA:94,0
DA:96,0
DA:97,0
DA:1642,0
DA:1646,0
DA:1647,0
DA:1648,0
DA:1649,0
DA:1650,0
DA:1799,0
DA:1803,0
DA:1804,0
DA:1805,0
DA:1806,0
DA:1808,0
DA:1809,0
DA:1810,0
DA:1812,0
DA:1813,0
DA:1819,0
DA:1822,0
DA:1824,0
DA:1826,0
DA:1829,0
DA:1830,0
DA:1831,0
DA:1834,0
DA:1843,0
DA:1846,0
DA:1847,0
DA:1849,0
DA:1861,0
DA:1864,0
DA:1866,0
DA:1867,0
DA:1871,0
DA:1872,0
DA:1878,0
DA:1884,0
DA:1885,0
DA:1886,0
DA:1887,0
DA:1888,0
DA:1889,0
DA:1890,0
DA:1891,0
DA:1892,0
DA:1900,0
DA:1903,0
DA:1904,0
DA:1906,0
DA:1912,0
DA:1917,0
DA:1918,0
DA:1919,0
DA:1925,0
DA:1929,0
DA:1931,0
DA:1933,0
DA:1934,0
DA:1936,0
DA:1938,0
DA:1939,0
DA:1940,0
DA:1949,0
DA:1952,0
DA:1954,0
DA:1955,0
DA:1957,0
DA:1959,0
DA:3876,0
DA:3884,0
DA:3885,0
DA:4863,0
DA:4875,0
DA:4876,0
end_of_record
SF:/usr/include/c++/11/iomanip
FN:165,_ZSt7setfillIcESt8_SetfillIT_ES1_
FNDA:0,_ZSt7setfillIcESt8_SetfillIT_ES1_
FN:195,_ZSt12setprecisioni
FNDA:0,_ZSt12setprecisioni
FN:225,_ZSt4setwi
FNDA:0,_ZSt4setwi
DA:165,0
DA:166,0
DA:195,0
DA:196,0
DA:225,0
DA:226,0
end_of_record
SF:/usr/include/c++/11/bits/stl_iterator_base_types.h
FN:238,_ZSt19__iterator_categoryIPKcENSt15iterator_traitsIT_E17iterator_categoryERKS3_
FNDA:0,_ZSt19__iterator_categoryIPKcENSt15iterator_traitsIT_E17iterator_categoryERKS3_
FN:238,_ZSt19__iterator_categoryIN9__gnu_cxx17__normal_iteratorIPPKN7doctest6detail20IExceptionTranslatorESt6vectorIS6_SaIS6_EEEEENSt15iterator_traitsIT_E17iterator_categoryERKSD_
FNDA:0,_ZSt19__iterator_categoryIN9__gnu_cxx17__normal_iteratorIPPKN7doctest6detail20IExceptionTranslatorESt6vectorIS6_SaIS6_EEEEENSt15iterator_traitsIT_E17iterator_categoryERKSD_
FN:238,_ZSt19__iterator_categoryIN9__gnu_cxx17__normal_iteratorIPN7doctest16SubcaseSignatureESt6vectorIS3_SaIS3_EEEEENSt15iterator_traitsIT_E17iterator_categoryERKSA_
FNDA:0,_ZSt19__iterator_categoryIN9__gnu_cxx17__normal_iteratorIPN7doctest16SubcaseSignatureESt6vectorIS3_SaIS3_EEEEENSt15iterator_traitsIT_E17iterator_categoryERKSA_
FN:238,_ZSt19__iterator_categoryIPcENSt15iterator_traitsIT_E17iterator_categoryERKS2_
FNDA:0,_ZSt19__iterator_categoryIPcENSt15iterator_traitsIT_E17iterator_categoryERKS2_
DA:238,0
DA:239,0
DA:238,0
DA:239,0
DA:238,0
DA:239,0
DA:238,0
DA:239,0
end_of_record
SF:/usr/include/c++/11/compare
FN:59,_ZNSt9__cmp_cat8__unspecC2EPS0_
FNDA:0,_ZNSt9__cmp_cat8__unspecC2EPS0_
FN:160,_ZNSt13weak_orderingC2ENSt9__cmp_cat4_OrdE
FNDA:0,_ZNSt13weak_orderingC2ENSt9__cmp_cat4_OrdE
FN:183,_ZStltSt13weak_orderingNSt9__cmp_cat8__unspecE
FNDA:0,_ZStltSt13weak_orderingNSt9__cmp_cat8__unspecE
FN:252,_ZNKSt15strong_orderingcvSt13weak_orderingEv
FNDA:0,_ZNKSt15strong_orderingcvSt13weak_orderingEv
FN:257,_ZSteqSt15strong_orderingNSt9__cmp_cat8__unspecE
FNDA:0,_ZSteqSt15strong_orderingNSt9__cmp_cat8__unspecE
FN:264,_ZStltSt15strong_orderingNSt9__cmp_cat8__unspecE
FNDA:0,_ZStltSt15strong_orderingNSt9__cmp_cat8__unspecE
FN:889,_ZNKSt8__detail10_Synth3wayclIPPKN7doctest6detail8TestCaseES7_EEDaRKT_RKT0_
FNDA:0,_ZNKSt8__detail10_Synth3wayclIPPKN7doctest6detail8TestCaseES7_EEDaRKT_RKT0_
FN:889,_ZNKSt8__detail10_Synth3wayclIN7doctest6StringES3_EEDaRKT_RKT0_
FNDA:0,_ZNKSt8__detail10_Synth3wayclIN7doctest6StringES3_EEDaRKT_RKT0_
FN:889,_ZNKSt8__detail10_Synth3wayclIiiEEDaRKT_RKT0_
FNDA:0,_ZNKSt8__detail10_Synth3wayclIiiEEDaRKT_RKT0_
DA:59,0
DA:160,0
DA:161,0
DA:183,0
DA:184,0
DA:252,0
DA:253,0
DA:257,0
DA:258,0
DA:264,0
DA:265,0
DA:889,0
DA:898,0
DA:889,0
DA:901,0
DA:902,0
DA:903,0
DA:904,0
DA:906,0
DA:889,0
DA:898,0
end_of_record
SF:/usr/include/c++/11/ext/new_allocator.h
FN:79,_ZN9__gnu_cxx13new_allocatorIN7doctest16SubcaseSignatureEEC2Ev
FNDA:0,_ZN9__gnu_cxx13new_allocatorIN7doctest16SubcaseSignatureEEC2Ev
FN:79,_ZN9__gnu_cxx13new_allocatorIPNSt8__detail15_Hash_node_baseEEC2Ev
FNDA:0,_ZN9__gnu_cxx13new_allocatorIPNSt8__detail15_Hash_node_baseEEC2Ev
FN:79,_ZN9__gnu_cxx13new_allocatorIPKN7doctest12TestCaseDataEEC2Ev
FNDA:0,_ZN9__gnu_cxx13new_allocatorIPKN7doctest12TestCaseDataEEC2Ev
FN:79,_ZN9__gnu_cxx13new_allocatorISt13_Rb_tree_nodeIN7doctest6StringEEEC2Ev
FNDA:0,_ZN9__gnu_cxx13new_allocatorISt13_Rb_tree_nodeIN7doctest6StringEEEC2Ev
FN:79,_ZN9__gnu_cxx13new_allocatorIPKN7doctest6detail8TestCaseEEC2Ev
FNDA:0,_ZN9__gnu_cxx13new_allocatorIPKN7doctest6detail8TestCaseEEC2Ev
FN:79,_ZN9__gnu_cxx13new_allocatorIPN7doctest9IReporterEEC2Ev
FNDA:0,_ZN9__gnu_cxx13new_allocatorIPN7doctest9IReporterEEC2Ev
FN:79,_ZN9__gnu_cxx13new_allocatorIN7doctest12_GLOBAL__N_113JUnitReporter17JUnitTestCaseData13JUnitTestCaseEEC2Ev
FNDA:0,_ZN9__gnu_cxx13new_allocatorIN7doctest12_GLOBAL__N_113JUnitReporter17JUnitTestCaseData13JUnitTestCaseEEC2Ev
FN:79,_ZN9__gnu_cxx13new_allocatorIN7doctest6StringEEC2Ev
FNDA:0,_ZN9__gnu_cxx13new_allocatorIN7doctest6StringEEC2Ev
FN:79,_ZN9__gnu_cxx13new_allocatorIN7doctest12_GLOBAL__N_113JUnitReporter17JUnitTestCaseData16JUnitTestMessageEEC2Ev
FNDA:0,_ZN9__gnu_cxx13new_allocatorIN7doctest12_GLOBAL__N_113JUnitReporter17JUnitTestCaseData16JUnitTestMessageEEC2Ev
FN:79,_ZN9__gnu_cxx13new_allocatorINSt7__cxx1112basic_stringIcSt11char_traitsIcESaIcEEEEC2Ev
FNDA:0,_ZN9__gnu_cxx13new_allocatorINSt7__cxx1112basic_stringIcSt11char_traitsIcESaIcEEEEC2Ev
FN:79,_ZN9__gnu_cxx13new_allocatorIPKN7doctest6detail20IExceptionTranslatorEEC2Ev
FNDA:0,_ZN9__gnu_cxx13new_allocatorIPKN7doctest6detail20IExceptionTranslatorEEC2Ev
FN:79,_ZN9__gnu_cxx13new_allocatorISt13_Rb_tree_nodeIN7doctest6detail8TestCaseEEEC2Ev
FNDA:0,_ZN9__gnu_cxx13new_allocatorISt13_Rb_tree_nodeIN7doctest6detail8TestCaseEEEC2Ev
FN:79,_ZN9__gnu_cxx13new_allocatorISt13_Rb_tree_nodeISt4pairIKS2_IiN7doctest6StringEEPFPNS3_9IReporterERKNS3_14ContextOptionsEEEEEC2Ev
FNDA:0,_ZN9__gnu_cxx13new_allocatorISt13_Rb_tree_nodeISt4pairIKS2_IiN7doctest6StringEEPFPNS3_9IReporterERKNS3_14ContextOptionsEEEEEC2Ev
FN:79,_ZN9__gnu_cxx13new_allocatorIPN7doctest13IContextScopeEEC2Ev
FNDA:0,_ZN9__gnu_cxx13new_allocatorIPN7doctest13IContextScopeEEC2Ev
FN:79,_ZN9__gnu_cxx13new_allocatorISt4fposI11__mbstate_tEEC2Ev
FNDA:0,_ZN9__gnu_cxx13new_allocatorISt4fposI11__mbstate_tEEC2Ev
FN:79,_ZN9__gnu_cxx13new_allocatorINSt8__detail10_Hash_nodeIyLb0EEEEC2Ev
FNDA:0,_ZN9__gnu_cxx13new_allocatorINSt8__detail10_Hash_nodeIyLb0EEEEC2Ev
FN:79,_ZN9__gnu_cxx13new_allocatorISt6vectorIN7doctest6StringESaIS3_EEEC2Ev
FNDA:0,_ZN9__gnu_cxx13new_allocatorISt6vectorIN7doctest6StringESaIS3_EEEC2Ev
FN:79,_ZN9__gnu_cxx13new_allocatorIcEC2Ev
FNDA:0,_ZN9__gnu_cxx13new_allocatorIcEC2Ev
FN:82,_ZN9__gnu_cxx13new_allocatorIN7doctest12_GLOBAL__N_113JUnitReporter17JUnitTestCaseData16JUnitTestMessageEEC2ERKS6_
FNDA:0,_ZN9__gnu_cxx13new_allocatorIN7doctest12_GLOBAL__N_113JUnitReporter17JUnitTestCaseData16JUnitTestMessageEEC2ERKS6_
FN:82,_ZN9__gnu_cxx13new_allocatorIN7doctest6StringEEC2ERKS3_
FNDA:0,_ZN9__gnu_cxx13new_allocatorIN7doctest6StringEEC2ERKS3_
FN:82,_ZN9__gnu_cxx13new_allocatorISt6vectorIN7doctest6StringESaIS3_EEEC2ERKS6_
FNDA:0,_ZN9__gnu_cxx13new_allocatorISt6vectorIN7doctest6StringESaIS3_EEEC2ERKS6_
FN:82,_ZN9__gnu_cxx13new_allocatorIcEC2ERKS1_
FNDA:0,_ZN9__gnu_cxx13new_allocatorIcEC2ERKS1_
FN:103,_ZN9__gnu_cxx13new_allocatorIcE8allocateEmPKv
FNDA:0,_ZN9__gnu_cxx13new_allocatorIcE8allocateEmPKv
FN:103,_ZN9__gnu_cxx13new_allocatorIN7doctest16SubcaseSignatureEE8allocateEmPKv
FNDA:0,_ZN9__gnu_cxx13new_allocatorIN7doctest16SubcaseSignatureEE8allocateEmPKv
FN:103,_ZN9__gnu_cxx13new_allocatorIPKN7doctest6detail20IExceptionTranslatorEE8allocateEmPKv
FNDA:0,_ZN9__gnu_cxx13new_allocatorIPKN7doctest6detail20IExceptionTranslatorEE8allocateEmPKv
FN:103,_ZN9__gnu_cxx13new_allocatorINSt7__cxx1112basic_stringIcSt11char_traitsIcESaIcEEEE8allocateEmPKv
FNDA:0,_ZN9__gnu_cxx13new_allocatorINSt7__cxx1112basic_stringIcSt11char_traitsIcESaIcEEEE8allocateEmPKv
FN:103,_ZN9__gnu_cxx13new_allocatorIN7doctest12_GLOBAL__N_113JUnitReporter17JUnitTestCaseData13JUnitTestCaseEE8allocateEmPKv
FNDA:0,_ZN9__gnu_cxx13new_allocatorIN7doctest12_GLOBAL__N_113JUnitReporter17JUnitTestCaseData13JUnitTestCaseEE8allocateEmPKv
FN:103,_ZN9__gnu_cxx13new_allocatorIN7doctest12_GLOBAL__N_113JUnitReporter17JUnitTestCaseData16JUnitTestMessageEE8allocateEmPKv
FNDA:0,_ZN9__gnu_cxx13new_allocatorIN7doctest12_GLOBAL__N_113JUnitReporter17JUnitTestCaseData16JUnitTestMessageEE8allocateEmPKv
FN:103,_ZN9__gnu_cxx13new_allocatorIPNSt8__detail15_Hash_node_baseEE8allocateEmPKv
FNDA:0,_ZN9__gnu_cxx13new_allocatorIPNSt8__detail15_Hash_node_baseEE8allocateEmPKv
FN:103,_ZN9__gnu_cxx13new_allocatorIN7doctest6StringEE8allocateEmPKv
FNDA:0,_ZN9__gnu_cxx13new_allocatorIN7doctest6StringEE8allocateEmPKv
FN:103,_ZN9__gnu_cxx13new_allocatorINSt8__detail10_Hash_nodeIyLb0EEEE8allocateEmPKv
FNDA:0,_ZN9__gnu_cxx13new_allocatorINSt8__detail10_Hash_nodeIyLb0EEEE8allocateEmPKv
FN:103,_ZN9__gnu_cxx13new_allocatorIPN7doctest13IContextScopeEE8allocateEmPKv
FNDA:0,_ZN9__gnu_cxx13new_allocatorIPN7doctest13IContextScopeEE8allocateEmPKv
FN:103,_ZN9__gnu_cxx13new_allocatorIPKN7doctest12TestCaseDataEE8allocateEmPKv
FNDA:0,_ZN9__gnu_cxx13new_allocatorIPKN7doctest12TestCaseDataEE8allocateEmPKv
FN:103,_ZN9__gnu_cxx13new_allocatorISt6vectorIN7doctest6StringESaIS3_EEE8allocateEmPKv
FNDA:0,_ZN9__gnu_cxx13new_allocatorISt6vectorIN7doctest6StringESaIS3_EEE8allocateEmPKv
FN:103,_ZN9__gnu_cxx13new_allocatorISt13_Rb_tree_nodeIN7doctest6detail8TestCaseEEE8allocateEmPKv
FNDA:0,_ZN9__gnu_cxx13new_allocatorISt13_Rb_tree_nodeIN7doctest6detail8TestCaseEEE8allocateEmPKv
FN:103,_ZN9__gnu_cxx13new_allocatorIPN7doctest9IReporterEE8allocateEmPKv
FNDA:0,_ZN9__gnu_cxx13new_allocatorIPN7doctest9IReporterEE8allocateEmPKv
FN:103,_ZN9__gnu_cxx13new_allocatorISt13_Rb_tree_nodeIN7doctest6StringEEE8allocateEmPKv
FNDA:0,_ZN9__gnu_cxx13new_allocatorISt13_Rb_tree_nodeIN7doctest6StringEEE8allocateEmPKv
FN:103,_ZN9__gnu_cxx13new_allocatorISt4fposI11__mbstate_tEE8allocateEmPKv
FNDA:0,_ZN9__gnu_cxx13new_allocatorISt4fposI11__mbstate_tEE8allocateEmPKv
FN:103,_ZN9__gnu_cxx13new_allocatorIPKN7doctest6detail8TestCaseEE8allocateEmPKv
FNDA:0,_ZN9__gnu_cxx13new_allocatorIPKN7doctest6detail8TestCaseEE8allocateEmPKv
FN:103,_ZN9__gnu_cxx13new_allocatorISt13_Rb_tree_nodeISt4pairIKS2_IiN7doctest6StringEEPFPNS3_9IReporterERKNS3_14ContextOptionsEEEEE8allocateEmPKv
FNDA:0,_ZN9__gnu_cxx13new_allocatorISt13_Rb_tree_nodeISt4pairIKS2_IiN7doctest6StringEEPFPNS3_9IReporterERKNS3_14ContextOptionsEEEEE8allocateEmPKv
FN:126,_ZN9__gnu_cxx13new_allocatorIPNSt8__detail15_Hash_node_baseEE10deallocateEPS3_m
FNDA:0,_ZN9__gnu_cxx13new_allocatorIPNSt8__detail15_Hash_node_baseEE10deallocateEPS3_m
FN:126,_ZN9__gnu_cxx13new_allocatorISt13_Rb_tree_nodeIN7doctest6StringEEE10deallocateEPS4_m
FNDA:0,_ZN9__gnu_cxx13new_allocatorISt13_Rb_tree_nodeIN7doctest6StringEEE10deallocateEPS4_m
FN:126,_ZN9__gnu_cxx13new_allocatorISt4fposI11__mbstate_tEE10deallocateEPS3_m
FNDA:0,_ZN9__gnu_cxx13new_allocatorISt4fposI11__mbstate_tEE10deallocateEPS3_m
FN:126,_ZN9__gnu_cxx13new_allocatorIPKN7doctest6detail20IExceptionTranslatorEE10deallocateEPS5_m
FNDA:0,_ZN9__gnu_cxx13new_allocatorIPKN7doctest6detail20IExceptionTranslatorEE10deallocateEPS5_m
FN:126,_ZN9__gnu_cxx13new_allocatorIPN7doctest13IContextScopeEE10deallocateEPS3_m
FNDA:0,_ZN9__gnu_cxx13new_allocatorIPN7doctest13IContextScopeEE10deallocateEPS3_m
FN:126,_ZN9__gnu_cxx13new_allocatorINSt7__cxx1112basic_stringIcSt11char_traitsIcESaIcEEEE10deallocateEPS6_m
FNDA:0,_ZN9__gnu_cxx13new_allocatorINSt7__cxx1112basic_stringIcSt11char_traitsIcESaIcEEEE10deallocateEPS6_m
FN:126,_ZN9__gnu_cxx13new_allocatorIcE10deallocateEPcm
FNDA:0,_ZN9__gnu_cxx13new_allocatorIcE10deallocateEPcm
FN:126,_ZN9__gnu_cxx13new_allocatorIN7doctest12_GLOBAL__N_113JUnitReporter17JUnitTestCaseData16JUnitTestMessageEE10deallocateEPS5_m
FNDA:0,_ZN9__gnu_cxx13new_allocatorIN7doctest12_GLOBAL__N_113JUnitReporter17JUnitTestCaseData16JUnitTestMessageEE10deallocateEPS5_m
FN:126,_ZN9__gnu_cxx13new_allocatorIN7doctest6StringEE10deallocateEPS2_m
FNDA:0,_ZN9__gnu_cxx13new_allocatorIN7doctest6StringEE10deallocateEPS2_m
FN:126,_ZN9__gnu_cxx13new_allocatorIN7doctest12_GLOBAL__N_113JUnitReporter17JUnitTestCaseData13JUnitTestCaseEE10deallocateEPS5_m
FNDA:0,_ZN9__gnu_cxx13new_allocatorIN7doctest12_GLOBAL__N_113JUnitReporter17JUnitTestCaseData13JUnitTestCaseEE10deallocateEPS5_m
FN:126,_ZN9__gnu_cxx13new_allocatorISt13_Rb_tree_nodeIN7doctest6detail8TestCaseEEE10deallocateEPS5_m
FNDA:0,_ZN9__gnu_cxx13new_allocatorISt13_Rb_tree_nodeIN7doctest6detail8TestCaseEEE10deallocateEPS5_m
FN:126,_ZN9__gnu_cxx13new_allocatorIN7doctest16SubcaseSignatureEE10deallocateEPS2_m
FNDA:0,_ZN9__gnu_cxx13new_allocatorIN7doctest16SubcaseSignatureEE10deallocateEPS2_m
FN:126,_ZN9__gnu_cxx13new_allocatorIPN7doctest9IReporterEE10deallocateEPS3_m
FNDA:0,_ZN9__gnu_cxx13new_allocatorIPN7doctest9IReporterEE10deallocateEPS3_m
FN:126,_ZN9__gnu_cxx13new_allocatorIPKN7doctest6detail8TestCaseEE10deallocateEPS5_m
FNDA:0,_ZN9__gnu_cxx13new_allocatorIPKN7doctest6detail8TestCaseEE10deallocateEPS5_m
FN:126,_ZN9__gnu_cxx13new_allocatorIPKN7doctest12TestCaseDataEE10deallocateEPS4_m
FNDA:0,_ZN9__gnu_cxx13new_allocatorIPKN7doctest12TestCaseDataEE10deallocateEPS4_m
FN:126,_ZN9__gnu_cxx13new_allocatorISt6vectorIN7doctest6StringESaIS3_EEE10deallocateEPS5_m
FNDA:0,_ZN9__gnu_cxx13new_allocatorISt6vectorIN7doctest6StringESaIS3_EEE10deallocateEPS5_m
FN:126,_ZN9__gnu_cxx13new_allocatorINSt8__detail10_Hash_nodeIyLb0EEEE10deallocateEPS3_m
FNDA:0,_ZN9__gnu_cxx13new_allocatorINSt8__detail10_Hash_nodeIyLb0EEEE10deallocateEPS3_m
FN:126,_ZN9__gnu_cxx13new_allocatorISt13_Rb_tree_nodeISt4pairIKS2_IiN7doctest6StringEEPFPNS3_9IReporterERKNS3_14ContextOptionsEEEEE10deallocateEPSF_m
FNDA:0,_ZN9__gnu_cxx13new_allocatorISt13_Rb_tree_nodeISt4pairIKS2_IiN7doctest6StringEEPFPNS3_9IReporterERKNS3_14ContextOptionsEEEEE10deallocateEPSF_m
FN:191,_ZNK9__gnu_cxx13new_allocatorINSt8__detail10_Hash_nodeIyLb0EEEE11_M_max_sizeEv
FNDA:0,_ZNK9__gnu_cxx13new_allocatorINSt8__detail10_Hash_nodeIyLb0EEEE11_M_max_sizeEv
FN:191,_ZNK9__gnu_cxx13new_allocatorISt13_Rb_tree_nodeIN7doctest6detail8TestCaseEEE11_M_max_sizeEv
FNDA:0,_ZNK9__gnu_cxx13new_allocatorISt13_Rb_tree_nodeIN7doctest6detail8TestCaseEEE11_M_max_sizeEv
FN:191,_ZNK9__gnu_cxx13new_allocatorISt13_Rb_tree_nodeIN7doctest6StringEEE11_M_max_sizeEv
FNDA:0,_ZNK9__gnu_cxx13new_allocatorISt13_Rb_tree_nodeIN7doctest6StringEEE11_M_max_sizeEv
FN:191,_ZNK9__gnu_cxx13new_allocatorIPKN7doctest12TestCaseDataEE11_M_max_sizeEv
FNDA:0,_ZNK9__gnu_cxx13new_allocatorIPKN7doctest12TestCaseDataEE11_M_max_sizeEv
FN:191,_ZNK9__gnu_cxx13new_allocatorISt13_Rb_tree_nodeISt4pairIKS2_IiN7doctest6StringEEPFPNS3_9IReporterERKNS3_14ContextOptionsEEEEE11_M_max_sizeEv
FNDA:0,_ZNK9__gnu_cxx13new_allocatorISt13_Rb_tree_nodeISt4pairIKS2_IiN7doctest6StringEEPFPNS3_9IReporterERKNS3_14ContextOptionsEEEEE11_M_max_sizeEv
FN:191,_ZNK9__gnu_cxx13new_allocatorIPNSt8__detail15_Hash_node_baseEE11_M_max_sizeEv
FNDA:0,_ZNK9__gnu_cxx13new_allocatorIPNSt8__detail15_Hash_node_baseEE11_M_max_sizeEv
FN:191,_ZNK9__gnu_cxx13new_allocatorIPKN7doctest6detail8TestCaseEE11_M_max_sizeEv
FNDA:0,_ZNK9__gnu_cxx13new_allocatorIPKN7doctest6detail8TestCaseEE11_M_max_sizeEv
FN:191,_ZNK9__gnu_cxx13new_allocatorIPN7doctest9IReporterEE11_M_max_sizeEv
FNDA:0,_ZNK9__gnu_cxx13new_allocatorIPN7doctest9IReporterEE11_M_max_sizeEv
FN:191,_ZNK9__gnu_cxx13new_allocatorIcE11_M_max_sizeEv
FNDA:0,_ZNK9__gnu_cxx13new_allocatorIcE11_M_max_sizeEv
FN:191,_ZNK9__gnu_cxx13new_allocatorIPN7doctest13IContextScopeEE11_M_max_sizeEv
FNDA:0,_ZNK9__gnu_cxx13new_allocatorIPN7doctest13IContextScopeEE11_M_max_sizeEv
FN:191,_ZNK9__gnu_cxx13new_allocatorIN7doctest16SubcaseSignatureEE11_M_max_sizeEv
FNDA:0,_ZNK9__gnu_cxx13new_allocatorIN7doctest16SubcaseSignatureEE11_M_max_sizeEv
FN:191,_ZNK9__gnu_cxx13new_allocatorIPKN7doctest6detail20IExceptionTranslatorEE11_M_max_sizeEv
FNDA:0,_ZNK9__gnu_cxx13new_allocatorIPKN7doctest6detail20IExceptionTranslatorEE11_M_max_sizeEv
FN:191,_ZNK9__gnu_cxx13new_allocatorINSt7__cxx1112basic_stringIcSt11char_traitsIcESaIcEEEE11_M_max_sizeEv
FNDA:0,_ZNK9__gnu_cxx13new_allocatorINSt7__cxx1112basic_stringIcSt11char_traitsIcESaIcEEEE11_M_max_sizeEv
FN:191,_ZNK9__gnu_cxx13new_allocatorISt6vectorIN7doctest6StringESaIS3_EEE11_M_max_sizeEv
FNDA:0,_ZNK9__gnu_cxx13new_allocatorISt6vectorIN7doctest6StringESaIS3_EEE11_M_max_sizeEv
FN:191,_ZNK9__gnu_cxx13new_allocatorIN7doctest12_GLOBAL__N_113JUnitReporter17JUnitTestCaseData13JUnitTestCaseEE11_M_max_sizeEv
FNDA:0,_ZNK9__gnu_cxx13new_allocatorIN7doctest12_GLOBAL__N_113JUnitReporter17JUnitTestCaseData13JUnitTestCaseEE11_M_max_sizeEv
FN:191,_ZNK9__gnu_cxx13new_allocatorIN7doctest12_GLOBAL__N_113JUnitReporter17JUnitTestCaseData16JUnitTestMessageEE11_M_max_sizeEv
FNDA:0,_ZNK9__gnu_cxx13new_allocatorIN7doctest12_GLOBAL__N_113JUnitReporter17JUnitTestCaseData16JUnitTestMessageEE11_M_max_sizeEv
FN:191,_ZNK9__gnu_cxx13new_allocatorISt4fposI11__mbstate_tEE11_M_max_sizeEv
FNDA:0,_ZNK9__gnu_cxx13new_allocatorISt4fposI11__mbstate_tEE11_M_max_sizeEv
FN:191,_ZNK9__gnu_cxx13new_allocatorIN7doctest6StringEE11_M_max_sizeEv
FNDA:0,_ZNK9__gnu_cxx13new_allocatorIN7doctest6StringEE11_M_max_sizeEv
DA:79,0
DA:79,0
DA:79,0
DA:79,0
DA:79,0
DA:79,0
DA:79,0
DA:79,0
DA:79,0
DA:79,0
DA:79,0
DA:79,0
DA:79,0
DA:79,0
DA:79,0
DA:79,0
DA:79,0
DA:79,0
DA:82,0
DA:82,0
DA:82,0
DA:82,0
DA:103,0
DA:105,0
DA:109,0
DA:110,0
DA:111,0
DA:121,0
DA:103,0
DA:105,0
DA:111,0
DA:121,0
DA:103,0
DA:105,0
DA:109,0
DA:110,0
DA:111,0
DA:121,0
DA:103,0
DA:105,0
DA:109,0
DA:110,0
DA:111,0
DA:121,0
DA:103,0
DA:105,0
DA:109,0
DA:110,0
DA:111,0
DA:121,0
DA:103,0
DA:105,0
DA:109,0
DA:110,0
DA:111,0
DA:121,0
DA:103,0
DA:105,0
DA:109,0
DA:110,0
DA:111,0
DA:121,0
DA:103,0
DA:105,0
DA:109,0
DA:110,0
DA:111,0
DA:121,0
DA:103,0
DA:105,0
DA:109,0
DA:110,0
DA:111,0
DA:121,0
DA:103,0
DA:105,0
DA:109,0
DA:110,0
DA:111,0
DA:121,0
DA:103,0
DA:105,0
DA:109,0
DA:110,0
DA:111,0
DA:121,0
DA:103,0
DA:105,0
DA:109,0
DA:110,0
DA:111,0
DA:121,0
DA:103,0
DA:105,0
DA:109,0
DA:110,0
DA:111,0
DA:121,0
DA:103,0
DA:105,0
DA:109,0
DA:110,0
DA:111,0
DA:121,0
DA:103,0
DA:105,0
DA:109,0
DA:110,0
DA:111,0
DA:121,0
DA:103,0
DA:105,0
DA:109,0
DA:110,0
DA:111,0
DA:121,0
DA:103,0
DA:105,0
DA:109,0
DA:110,0
DA:111,0
DA:121,0
DA:103,0
DA:105,0
DA:109,0
DA:110,0
DA:111,0
DA:121,0
DA:126,0
DA:139,0
DA:126,0
DA:139,0
DA:126,0
DA:139,0
DA:126,0
DA:139,0
DA:126,0
DA:139,0
DA:126,0
DA:139,0
DA:126,0
DA:139,0
DA:126,0
DA:139,0
DA:126,0
DA:139,0
DA:126,0
DA:139,0
DA:126,0
DA:139,0
DA:126,0
DA:139,0
DA:126,0
DA:139,0
DA:126,0
DA:139,0
DA:126,0
DA:139,0
DA:126,0
DA:139,0
DA:126,0
DA:139,0
DA:126,0
DA:139,0
DA:191,0
DA:194,0
DA:191,0
DA:194,0
DA:191,0
DA:194,0
DA:191,0
DA:194,0
DA:191,0
DA:194,0
DA:191,0
DA:194,0
DA:191,0
DA:194,0
DA:191,0
DA:194,0
DA:191,0
DA:194,0
DA:191,0
DA:194,0
DA:191,0
DA:194,0
DA:191,0
DA:194,0
DA:191,0
DA:194,0
DA:191,0
DA:194,0
DA:191,0
DA:194,0
DA:191,0
DA:194,0
DA:191,0
DA:194,0
DA:191,0
DA:194,0
end_of_record
SF:/usr/include/c++/11/bits/stl_iterator_base_funcs.h
FN:98,_ZSt10__distanceIPcENSt15iterator_traitsIT_E15difference_typeES2_S2_St26random_access_iterator_tag
FNDA:0,_ZSt10__distanceIPcENSt15iterator_traitsIT_E15difference_typeES2_S2_St26random_access_iterator_tag
FN:98,_ZSt10__distanceIPKcENSt15iterator_traitsIT_E15difference_typeES3_S3_St26random_access_iterator_tag
FNDA:0,_ZSt10__distanceIPKcENSt15iterator_traitsIT_E15difference_typeES3_S3_St26random_access_iterator_tag
FN:98,_ZSt10__distanceIN9__gnu_cxx17__normal_iteratorIPN7doctest16SubcaseSignatureESt6vectorIS3_SaIS3_EEEEENSt15iterator_traitsIT_E15difference_typeESA_SA_St26random_access_iterator_tag
FNDA:0,_ZSt10__distanceIN9__gnu_cxx17__normal_iteratorIPN7doctest16SubcaseSignatureESt6vectorIS3_SaIS3_EEEEENSt15iterator_traitsIT_E15difference_typeESA_SA_St26random_access_iterator_tag
FN:138,_ZSt8distanceIPcENSt15iterator_traitsIT_E15difference_typeES2_S2_
FNDA:0,_ZSt8distanceIPcENSt15iterator_traitsIT_E15difference_typeES2_S2_
FN:138,_ZSt8distanceIPKcENSt15iterator_traitsIT_E15difference_typeES3_S3_
FNDA:0,_ZSt8distanceIPKcENSt15iterator_traitsIT_E15difference_typeES3_S3_
FN:138,_ZSt8distanceIN9__gnu_cxx17__normal_iteratorIPN7doctest16SubcaseSignatureESt6vectorIS3_SaIS3_EEEEENSt15iterator_traitsIT_E15difference_typeESA_SA_
FNDA:0,_ZSt8distanceIN9__gnu_cxx17__normal_iteratorIPN7doctest16SubcaseSignatureESt6vectorIS3_SaIS3_EEEEENSt15iterator_traitsIT_E15difference_typeESA_SA_
FN:174,_ZSt9__advanceIN9__gnu_cxx17__normal_iteratorIPN7doctest16SubcaseSignatureESt6vectorIS3_SaIS3_EEEElEvRT_T0_St26random_access_iterator_tag
FNDA:0,_ZSt9__advanceIN9__gnu_cxx17__normal_iteratorIPN7doctest16SubcaseSignatureESt6vectorIS3_SaIS3_EEEElEvRT_T0_St26random_access_iterator_tag
FN:202,_ZSt7advanceIN9__gnu_cxx17__normal_iteratorIPN7doctest16SubcaseSignatureESt6vectorIS3_SaIS3_EEEEmEvRT_T0_
FNDA:0,_ZSt7advanceIN9__gnu_cxx17__normal_iteratorIPN7doctest16SubcaseSignatureESt6vectorIS3_SaIS3_EEEEmEvRT_T0_
DA:98,0
DA:104,0
DA:98,0
DA:104,0
DA:98,0
DA:104,0
DA:138,0
DA:141,0
DA:142,0
DA:138,0
DA:141,0
DA:142,0
DA:138,0
DA:141,0
DA:142,0
DA:174,0
DA:185,0
DA:186,0
DA:202,0
DA:205,0
DA:206,0
DA:207,0
end_of_record
SF:/usr/include/c++/11/bits/basic_string.h
FN:156,_ZNSt7__cxx1112basic_stringIcSt11char_traitsIcESaIcEE12_Alloc_hiderC2EPcRKS3_
FNDA:0,_ZNSt7__cxx1112basic_stringIcSt11char_traitsIcESaIcEE12_Alloc_hiderC2EPcRKS3_
FN:159,_ZNSt7__cxx1112basic_stringIcSt11char_traitsIcESaIcEE12_Alloc_hiderC2EPcOS3_
FNDA:0,_ZNSt7__cxx1112basic_stringIcSt11char_traitsIcESaIcEE12_Alloc_hiderC2EPcOS3_
FN:178,_ZNSt7__cxx1112basic_stringIcSt11char_traitsIcESaIcEE7_M_dataEPc
FNDA:0,_ZNSt7__cxx1112basic_stringIcSt11char_traitsIcESaIcEE7_M_dataEPc
FN:182,_ZNSt7__cxx1112basic_stringIcSt11char_traitsIcESaIcEE9_M_lengthEm
FNDA:0,_ZNSt7__cxx1112basic_stringIcSt11char_traitsIcESaIcEE9_M_lengthEm
FN:186,_ZNKSt7__cxx1112basic_stringIcSt11char_traitsIcESaIcEE7_M_dataEv
FNDA:0,_ZNKSt7__cxx1112basic_stringIcSt11char_traitsIcESaIcEE7_M_dataEv
FN:190,_ZNSt7__cxx1112basic_stringIcSt11char_traitsIcESaIcEE13_M_local_dataEv
FNDA:0,_ZNSt7__cxx1112basic_stringIcSt11char_traitsIcESaIcEE13_M_local_dataEv
FN:200,_ZNKSt7__cxx1112basic_stringIcSt11char_traitsIcESaIcEE13_M_local_dataEv
FNDA:0,_ZNKSt7__cxx1112basic_stringIcSt11char_traitsIcESaIcEE13_M_local_dataEv
FN:210,_ZNSt7__cxx1112basic_stringIcSt11char_traitsIcESaIcEE11_M_capacityEm
FNDA:0,_ZNSt7__cxx1112basic_stringIcSt11char_traitsIcESaIcEE11_M_capacityEm
FN:214,_ZNSt7__cxx1112basic_stringIcSt11char_traitsIcESaIcEE13_M_set_lengthEm
FNDA:0,_ZNSt7__cxx1112basic_stringIcSt11char_traitsIcESaIcEE13_M_set_lengthEm
FN:221,_ZNKSt7__cxx1112basic_stringIcSt11char_traitsIcESaIcEE11_M_is_localEv
FNDA:0,_ZNKSt7__cxx1112basic_stringIcSt11char_traitsIcESaIcEE11_M_is_localEv
FN:229,_ZNSt7__cxx1112basic_stringIcSt11char_traitsIcESaIcEE10_M_disposeEv
FNDA:0,_ZNSt7__cxx1112basic_stringIcSt11char_traitsIcESaIcEE10_M_disposeEv
FN:236,_ZNSt7__cxx1112basic_stringIcSt11char_traitsIcESaIcEE10_M_destroyEm
FNDA:0,_ZNSt7__cxx1112basic_stringIcSt11char_traitsIcESaIcEE10_M_destroyEm
FN:243,_ZNSt7__cxx1112basic_stringIcSt11char_traitsIcESaIcEE16_M_construct_auxIPcEEvT_S7_St12__false_type
FNDA:0,_ZNSt7__cxx1112basic_stringIcSt11char_traitsIcESaIcEE16_M_construct_auxIPcEEvT_S7_St12__false_type
FN:243,_ZNSt7__cxx1112basic_stringIcSt11char_traitsIcESaIcEE16_M_construct_auxIPKcEEvT_S8_St12__false_type
FNDA:0,_ZNSt7__cxx1112basic_stringIcSt11char_traitsIcESaIcEE16_M_construct_auxIPKcEEvT_S8_St12__false_type
FN:263,_ZNSt7__cxx1112basic_stringIcSt11char_traitsIcESaIcEE12_M_constructIPcEEvT_S7_
FNDA:0,_ZNSt7__cxx1112basic_stringIcSt11char_traitsIcESaIcEE12_M_constructIPcEEvT_S7_
FN:263,_ZNSt7__cxx1112basic_stringIcSt11char_traitsIcESaIcEE12_M_constructIPKcEEvT_S8_
FNDA:0,_ZNSt7__cxx1112basic_stringIcSt11char_traitsIcESaIcEE12_M_constructIPKcEEvT_S8_
FN:286,_ZNSt7__cxx1112basic_stringIcSt11char_traitsIcESaIcEE16_M_get_allocatorEv
FNDA:0,_ZNSt7__cxx1112basic_stringIcSt11char_traitsIcESaIcEE16_M_get_allocatorEv
FN:290,_ZNKSt7__cxx1112basic_stringIcSt11char_traitsIcESaIcEE16_M_get_allocatorEv
FNDA:0,_ZNKSt7__cxx1112basic_stringIcSt11char_traitsIcESaIcEE16_M_get_allocatorEv
FN:310,_ZNKSt7__cxx1112basic_stringIcSt11char_traitsIcESaIcEE8_M_checkEmPKc
FNDA:0,_ZNKSt7__cxx1112basic_stringIcSt11char_traitsIcESaIcEE8_M_checkEmPKc
FN:320,_ZNKSt7__cxx1112basic_stringIcSt11char_traitsIcESaIcEE15_M_check_lengthEmmPKc
FNDA:0,_ZNKSt7__cxx1112basic_stringIcSt11char_traitsIcESaIcEE15_M_check_lengthEmmPKc
FN:329,_ZNKSt7__cxx1112basic_stringIcSt11char_traitsIcESaIcEE8_M_limitEmm
FNDA:0,_ZNKSt7__cxx1112basic_stringIcSt11char_traitsIcESaIcEE8_M_limitEmm
FN:346,_ZNSt7__cxx1112basic_stringIcSt11char_traitsIcESaIcEE7_S_copyEPcPKcm
FNDA:0,_ZNSt7__cxx1112basic_stringIcSt11char_traitsIcESaIcEE7_S_copyEPcPKcm
FN:392,_ZNSt7__cxx1112basic_stringIcSt11char_traitsIcESaIcEE13_S_copy_charsEPcS5_S5_
FNDA:0,_ZNSt7__cxx1112basic_stringIcSt11char_traitsIcESaIcEE13_S_copy_charsEPcS5_S5_
FN:396,_ZNSt7__cxx1112basic_stringIcSt11char_traitsIcESaIcEE13_S_copy_charsEPcPKcS7_
FNDA:0,_ZNSt7__cxx1112basic_stringIcSt11char_traitsIcESaIcEE13_S_copy_charsEPcPKcS7_
FN:401,_ZNSt7__cxx1112basic_stringIcSt11char_traitsIcESaIcEE10_S_compareEmm
FNDA:0,_ZNSt7__cxx1112basic_stringIcSt11char_traitsIcESaIcEE10_S_compareEmm
FN:431,_ZNSt7__cxx1112basic_stringIcSt11char_traitsIcESaIcEEC2Ev
FNDA:0,_ZNSt7__cxx1112basic_stringIcSt11char_traitsIcESaIcEEC2Ev
FN:448,_ZNSt7__cxx1112basic_stringIcSt11char_traitsIcESaIcEEC2ERKS4_
FNDA:0,_ZNSt7__cxx1112basic_stringIcSt11char_traitsIcESaIcEEC2ERKS4_
FN:476,_ZNSt7__cxx1112basic_stringIcSt11char_traitsIcESaIcEEC2ERKS4_mm
FNDA:0,_ZNSt7__cxx1112basic_stringIcSt11char_traitsIcESaIcEEC2ERKS4_mm
FN:525,_ZNSt7__cxx1112basic_stringIcSt11char_traitsIcESaIcEEC2IS3_EEPKcRKS3_
FNDA:0,_ZNSt7__cxx1112basic_stringIcSt11char_traitsIcESaIcEEC2IS3_EEPKcRKS3_
FN:552,_ZNSt7__cxx1112basic_stringIcSt11char_traitsIcESaIcEEC2EOS4_
FNDA:0,_ZNSt7__cxx1112basic_stringIcSt11char_traitsIcESaIcEEC2EOS4_
FN:657,_ZNSt7__cxx1112basic_stringIcSt11char_traitsIcESaIcEED2Ev
FNDA:0,_ZNSt7__cxx1112basic_stringIcSt11char_traitsIcESaIcEED2Ev
FN:703,_ZNSt7__cxx1112basic_stringIcSt11char_traitsIcESaIcEEaSEOS4_
FNDA:0,_ZNSt7__cxx1112basic_stringIcSt11char_traitsIcESaIcEEaSEOS4_
FN:906,_ZNKSt7__cxx1112basic_stringIcSt11char_traitsIcESaIcEE4sizeEv
FNDA:0,_ZNKSt7__cxx1112basic_stringIcSt11char_traitsIcESaIcEE4sizeEv
FN:912,_ZNKSt7__cxx1112basic_stringIcSt11char_traitsIcESaIcEE6lengthEv
FNDA:0,_ZNKSt7__cxx1112basic_stringIcSt11char_traitsIcESaIcEE6lengthEv
FN:917,_ZNKSt7__cxx1112basic_stringIcSt11char_traitsIcESaIcEE8max_sizeEv
FNDA:0,_ZNKSt7__cxx1112basic_stringIcSt11char_traitsIcESaIcEE8max_sizeEv
FN:962,_ZNKSt7__cxx1112basic_stringIcSt11char_traitsIcESaIcEE8capacityEv
FNDA:0,_ZNKSt7__cxx1112basic_stringIcSt11char_traitsIcESaIcEE8capacityEv
FN:1001,_ZNSt7__cxx1112basic_stringIcSt11char_traitsIcESaIcEE5clearEv
FNDA:0,_ZNSt7__cxx1112basic_stringIcSt11char_traitsIcESaIcEE5clearEv
FN:1009,_ZNKSt7__cxx1112basic_stringIcSt11char_traitsIcESaIcEE5emptyEv
FNDA:0,_ZNKSt7__cxx1112basic_stringIcSt11char_traitsIcESaIcEE5emptyEv
FN:1024,_ZNKSt7__cxx1112basic_stringIcSt11char_traitsIcESaIcEEixEm
FNDA:0,_ZNKSt7__cxx1112basic_stringIcSt11char_traitsIcESaIcEEixEm
FN:1041,_ZNSt7__cxx1112basic_stringIcSt11char_traitsIcESaIcEEixEm
FNDA:0,_ZNSt7__cxx1112basic_stringIcSt11char_traitsIcESaIcEEixEm
FN:1146,_ZNSt7__cxx1112basic_stringIcSt11char_traitsIcESaIcEEpLERKS4_
FNDA:0,_ZNSt7__cxx1112basic_stringIcSt11char_traitsIcESaIcEEpLERKS4_
FN:1155,_ZNSt7__cxx1112basic_stringIcSt11char_traitsIcESaIcEEpLEPKc
FNDA:0,_ZNSt7__cxx1112basic_stringIcSt11char_traitsIcESaIcEEpLEPKc
FN:1199,_ZNSt7__cxx1112basic_stringIcSt11char_traitsIcESaIcEE6appendERKS4_
FNDA:0,_ZNSt7__cxx1112basic_stringIcSt11char_traitsIcESaIcEE6appendERKS4_
FN:1241,_ZNSt7__cxx1112basic_stringIcSt11char_traitsIcESaIcEE6appendEPKc
FNDA:0,_ZNSt7__cxx1112basic_stringIcSt11char_traitsIcESaIcEE6appendEPKc
FN:1342,_ZNSt7__cxx1112basic_stringIcSt11char_traitsIcESaIcEE6assignERKS4_
FNDA:0,_ZNSt7__cxx1112basic_stringIcSt11char_traitsIcESaIcEE6assignERKS4_
FN:2306,_ZNKSt7__cxx1112basic_stringIcSt11char_traitsIcESaIcEE5c_strEv
FNDA:0,_ZNKSt7__cxx1112basic_stringIcSt11char_traitsIcESaIcEE5c_strEv
FN:2840,_ZNKSt7__cxx1112basic_stringIcSt11char_traitsIcESaIcEE6substrEmm
FNDA:0,_ZNKSt7__cxx1112basic_stringIcSt11char_traitsIcESaIcEE6substrEmm
FN:6192,_ZStplIcSt11char_traitsIcESaIcEENSt7__cxx1112basic_stringIT_T0_T1_EEOS8_PKS5_
FNDA:0,_ZStplIcSt11char_traitsIcESaIcEENSt7__cxx1112basic_stringIT_T0_T1_EEOS8_PKS5_
DA:156,0
DA:157,0
DA:159,0
DA:160,0
DA:178,0
DA:179,0
DA:182,0
DA:183,0
DA:186,0
DA:187,0
DA:190,0
DA:193,0
DA:200,0
DA:203,0
DA:210,0
DA:211,0
DA:214,0
DA:216,0
DA:217,0
DA:218,0
DA:221,0
DA:222,0
DA:229,0
DA:231,0
DA:232,0
DA:233,0
DA:236,0
DA:237,0
DA:243,0
DA:247,0
DA:248,0
DA:243,0
DA:247,0
DA:248,0
DA:263,0
DA:266,0
DA:267,0
DA:263,0
DA:266,0
DA:267,0
DA:286,0
DA:287,0
DA:290,0
DA:291,0
DA:310,0
DA:312,0
DA:313,0
DA:316,0
DA:320,0
DA:322,0
DA:323,0
DA:324,0
DA:329,0
DA:331,0
DA:332,0
DA:346,0
DA:348,0
DA:349,0
DA:351,0
DA:352,0
DA:392,0
DA:393,0
DA:396,0
DA:398,0
DA:401,0
DA:403,0
DA:405,0
DA:406,0
DA:407,0
DA:408,0
DA:410,0
DA:431,0
DA:433,0
DA:434,0
DA:448,0
DA:449,0
DA:450,0
DA:451,0
DA:476,0
DA:478,0
DA:480,0
DA:481,0
DA:482,0
DA:483,0
DA:525,0
DA:526,0
DA:527,0
DA:552,0
DA:553,0
DA:555,0
DA:557,0
DA:562,0
DA:563,0
DA:569,0
DA:570,0
DA:571,0
DA:572,0
DA:657,0
DA:658,0
DA:703,0
DA:706,0
DA:707,0
DA:708,0
DA:711,0
DA:712,0
DA:713,0
DA:716,0
DA:718,0
DA:723,0
DA:725,0
DA:726,0
DA:727,0
DA:730,0
DA:731,0
DA:732,0
DA:735,0
DA:737,0
DA:739,0
DA:742,0
DA:743,0
DA:746,0
DA:749,0
DA:750,0
DA:751,0
DA:752,0
DA:754,0
DA:755,0
DA:758,0
DA:761,0
DA:762,0
DA:763,0
DA:906,0
DA:907,0
DA:912,0
DA:913,0
DA:917,0
DA:918,0
DA:962,0
DA:964,0
DA:965,0
DA:1001,0
DA:1002,0
DA:1009,0
DA:1010,0
DA:1024,0
DA:1027,0
DA:1041,0
DA:1048,0
DA:1146,0
DA:1147,0
DA:1155,0
DA:1156,0
DA:1199,0
DA:1200,0
DA:1241,0
DA:1244,0
DA:1245,0
DA:1246,0
DA:1342,0
DA:1345,0
DA:1347,0
DA:1348,0
DA:1352,0
DA:1354,0
DA:1355,0
DA:1356,0
DA:1360,0
DA:1361,0
DA:1363,0
DA:1364,0
DA:1365,0
DA:1366,0
DA:1367,0
DA:1368,0
DA:1370,0
DA:1373,0
DA:1374,0
DA:2306,0
DA:2307,0
DA:2840,0
DA:2842,0
DA:6192,0
DA:6194,0
end_of_record
SF:/usr/include/c++/11/bits/hashtable.h
FN:282,_ZNSt10_HashtableIyySaIyENSt8__detail9_IdentityESt8equal_toIyESt4hashIyENS1_18_Mod_range_hashingENS1_20_Default_ranged_hashENS1_20_Prime_rehash_policyENS1_17_Hashtable_traitsILb0ELb1ELb1EEEE12_Scoped_nodeC2EPNS1_10_Hash_nodeIyLb0EEEPNS1_16_Hashtable_allocISaISF_EEE
FNDA:0,_ZNSt10_HashtableIyySaIyENSt8__detail9_IdentityESt8equal_toIyESt4hashIyENS1_18_Mod_range_hashingENS1_20_Default_ranged_hashENS1_20_Prime_rehash_policyENS1_17_Hashtable_traitsILb0ELb1ELb1EEEE12_Scoped_nodeC2EPNS1_10_Hash_nodeIyLb0EEEPNS1_16_Hashtable_allocISaISF_EEE
FN:293,_ZNSt10_HashtableIyySaIyENSt8__detail9_IdentityESt8equal_toIyESt4hashIyENS1_18_Mod_range_hashingENS1_20_Default_ranged_hashENS1_20_Prime_rehash_policyENS1_17_Hashtable_traitsILb0ELb1ELb1EEEE12_Scoped_nodeD2Ev
FNDA:0,_ZNSt10_HashtableIyySaIyENSt8__detail9_IdentityESt8equal_toIyESt4hashIyENS1_18_Mod_range_hashingENS1_20_Default_ranged_hashENS1_20_Prime_rehash_policyENS1_17_Hashtable_traitsILb0ELb1ELb1EEEE12_Scoped_nodeD2Ev
FN:406,_ZNKSt10_HashtableIyySaIyENSt8__detail9_IdentityESt8equal_toIyESt4hashIyENS1_18_Mod_range_hashingENS1_20_Default_ranged_hashENS1_20_Prime_rehash_policyENS1_17_Hashtable_traitsILb0ELb1ELb1EEEE21_M_uses_single_bucketEPPNS1_15_Hash_node_baseE
FNDA:0,_ZNKSt10_HashtableIyySaIyENSt8__detail9_IdentityESt8equal_toIyESt4hashIyENS1_18_Mod_range_hashingENS1_20_Default_ranged_hashENS1_20_Prime_rehash_policyENS1_17_Hashtable_traitsILb0ELb1ELb1EEEE21_M_uses_single_bucketEPPNS1_15_Hash_node_baseE
FN:417,_ZNSt10_HashtableIyySaIyENSt8__detail9_IdentityESt8equal_toIyESt4hashIyENS1_18_Mod_range_hashingENS1_20_Default_ranged_hashENS1_20_Prime_rehash_policyENS1_17_Hashtable_traitsILb0ELb1ELb1EEEE19_M_allocate_bucketsEm
FNDA:0,_ZNSt10_HashtableIyySaIyENSt8__detail9_IdentityESt8equal_toIyESt4hashIyENS1_18_Mod_range_hashingENS1_20_Default_ranged_hashENS1_20_Prime_rehash_policyENS1_17_Hashtable_traitsILb0ELb1ELb1EEEE19_M_allocate_bucketsEm
FN:429,_ZNSt10_HashtableIyySaIyENSt8__detail9_IdentityESt8equal_toIyESt4hashIyENS1_18_Mod_range_hashingENS1_20_Default_ranged_hashENS1_20_Prime_rehash_policyENS1_17_Hashtable_traitsILb0ELb1ELb1EEEE21_M_deallocate_bucketsEPPNS1_15_Hash_node_baseEm
FNDA:0,_ZNSt10_HashtableIyySaIyENSt8__detail9_IdentityESt8equal_toIyESt4hashIyENS1_18_Mod_range_hashingENS1_20_Default_ranged_hashENS1_20_Prime_rehash_policyENS1_17_Hashtable_traitsILb0ELb1ELb1EEEE21_M_deallocate_bucketsEPPNS1_15_Hash_node_baseEm
FN:438,_ZNSt10_HashtableIyySaIyENSt8__detail9_IdentityESt8equal_toIyESt4hashIyENS1_18_Mod_range_hashingENS1_20_Default_ranged_hashENS1_20_Prime_rehash_policyENS1_17_Hashtable_traitsILb0ELb1ELb1EEEE21_M_deallocate_bucketsEv
FNDA:0,_ZNSt10_HashtableIyySaIyENSt8__detail9_IdentityESt8equal_toIyESt4hashIyENS1_18_Mod_range_hashingENS1_20_Default_ranged_hashENS1_20_Prime_rehash_policyENS1_17_Hashtable_traitsILb0ELb1ELb1EEEE21_M_deallocate_bucketsEv
FN:447,_ZNKSt10_HashtableIyySaIyENSt8__detail9_IdentityESt8equal_toIyESt4hashIyENS1_18_Mod_range_hashingENS1_20_Default_ranged_hashENS1_20_Prime_rehash_policyENS1_17_Hashtable_traitsILb0ELb1ELb1EEEE8_M_beginEv
FNDA:0,_ZNKSt10_HashtableIyySaIyENSt8__detail9_IdentityESt8equal_toIyESt4hashIyENS1_18_Mod_range_hashingENS1_20_Default_ranged_hashENS1_20_Prime_rehash_policyENS1_17_Hashtable_traitsILb0ELb1ELb1EEEE8_M_beginEv
FN:512,_ZNSt10_HashtableIyySaIyENSt8__detail9_IdentityESt8equal_toIyESt4hashIyENS1_18_Mod_range_hashingENS1_20_Default_ranged_hashENS1_20_Prime_rehash_policyENS1_17_Hashtable_traitsILb0ELb1ELb1EEEEC2Ev
FNDA:0,_ZNSt10_HashtableIyySaIyENSt8__detail9_IdentityESt8equal_toIyESt4hashIyENS1_18_Mod_range_hashingENS1_20_Default_ranged_hashENS1_20_Prime_rehash_policyENS1_17_Hashtable_traitsILb0ELb1ELb1EEEEC2Ev
FN:612,_ZNSt10_HashtableIyySaIyENSt8__detail9_IdentityESt8equal_toIyESt4hashIyENS1_18_Mod_range_hashingENS1_20_Default_ranged_hashENS1_20_Prime_rehash_policyENS1_17_Hashtable_traitsILb0ELb1ELb1EEEE3endEv
FNDA:0,_ZNSt10_HashtableIyySaIyENSt8__detail9_IdentityESt8equal_toIyESt4hashIyENS1_18_Mod_range_hashingENS1_20_Default_ranged_hashENS1_20_Prime_rehash_policyENS1_17_Hashtable_traitsILb0ELb1ELb1EEEE3endEv
FN:771,_ZNKSt10_HashtableIyySaIyENSt8__detail9_IdentityESt8equal_toIyESt4hashIyENS1_18_Mod_range_hashingENS1_20_Default_ranged_hashENS1_20_Prime_rehash_policyENS1_17_Hashtable_traitsILb0ELb1ELb1EEEE15_M_bucket_indexERKNS1_16_Hash_node_valueIyLb0EEE
FNDA:0,_ZNKSt10_HashtableIyySaIyENSt8__detail9_IdentityESt8equal_toIyESt4hashIyENS1_18_Mod_range_hashingENS1_20_Default_ranged_hashENS1_20_Prime_rehash_policyENS1_17_Hashtable_traitsILb0ELb1ELb1EEEE15_M_bucket_indexERKNS1_16_Hash_node_valueIyLb0EEE
FN:775,_ZNKSt10_HashtableIyySaIyENSt8__detail9_IdentityESt8equal_toIyESt4hashIyENS1_18_Mod_range_hashingENS1_20_Default_ranged_hashENS1_20_Prime_rehash_policyENS1_17_Hashtable_traitsILb0ELb1ELb1EEEE15_M_bucket_indexEm
FNDA:0,_ZNKSt10_HashtableIyySaIyENSt8__detail9_IdentityESt8equal_toIyESt4hashIyENS1_18_Mod_range_hashingENS1_20_Default_ranged_hashENS1_20_Prime_rehash_policyENS1_17_Hashtable_traitsILb0ELb1ELb1EEEE15_M_bucket_indexEm
FN:788,_ZNKSt10_HashtableIyySaIyENSt8__detail9_IdentityESt8equal_toIyESt4hashIyENS1_18_Mod_range_hashingENS1_20_Default_ranged_hashENS1_20_Prime_rehash_policyENS1_17_Hashtable_traitsILb0ELb1ELb1EEEE12_M_find_nodeEmRKym
FNDA:0,_ZNKSt10_HashtableIyySaIyENSt8__detail9_IdentityESt8equal_toIyESt4hashIyENS1_18_Mod_range_hashingENS1_20_Default_ranged_hashENS1_20_Prime_rehash_policyENS1_17_Hashtable_traitsILb0ELb1ELb1EEEE12_M_find_nodeEmRKym
FN:1505,_ZNSt10_HashtableIyySaIyENSt8__detail9_IdentityESt8equal_toIyESt4hashIyENS1_18_Mod_range_hashingENS1_20_Default_ranged_hashENS1_20_Prime_rehash_policyENS1_17_Hashtable_traitsILb0ELb1ELb1EEEED2Ev
FNDA:0,_ZNSt10_HashtableIyySaIyENSt8__detail9_IdentityESt8equal_toIyESt4hashIyENS1_18_Mod_range_hashingENS1_20_Default_ranged_hashENS1_20_Prime_rehash_policyENS1_17_Hashtable_traitsILb0ELb1ELb1EEEED2Ev
FN:1565,_ZNSt10_HashtableIyySaIyENSt8__detail9_IdentityESt8equal_toIyESt4hashIyENS1_18_Mod_range_hashingENS1_20_Default_ranged_hashENS1_20_Prime_rehash_policyENS1_17_Hashtable_traitsILb0ELb1ELb1EEEE4findERKy
FNDA:0,_ZNSt10_HashtableIyySaIyENSt8__detail9_IdentityESt8equal_toIyESt4hashIyENS1_18_Mod_range_hashingENS1_20_Default_ranged_hashENS1_20_Prime_rehash_policyENS1_17_Hashtable_traitsILb0ELb1ELb1EEEE4findERKy
FN:1804,_ZNKSt10_HashtableIyySaIyENSt8__detail9_IdentityESt8equal_toIyESt4hashIyENS1_18_Mod_range_hashingENS1_20_Default_ranged_hashENS1_20_Prime_rehash_policyENS1_17_Hashtable_traitsILb0ELb1ELb1EEEE19_M_find_before_nodeEmRKym
FNDA:0,_ZNKSt10_HashtableIyySaIyENSt8__detail9_IdentityESt8equal_toIyESt4hashIyENS1_18_Mod_range_hashingENS1_20_Default_ranged_hashENS1_20_Prime_rehash_policyENS1_17_Hashtable_traitsILb0ELb1ELb1EEEE19_M_find_before_nodeEmRKym
FN:1863,_ZNSt10_HashtableIyySaIyENSt8__detail9_IdentityESt8equal_toIyESt4hashIyENS1_18_Mod_range_hashingENS1_20_Default_ranged_hashENS1_20_Prime_rehash_policyENS1_17_Hashtable_traitsILb0ELb1ELb1EEEE22_M_insert_bucket_beginEmPNS1_10_Hash_nodeIyLb0EEE
FNDA:0,_ZNSt10_HashtableIyySaIyENSt8__detail9_IdentityESt8equal_toIyESt4hashIyENS1_18_Mod_range_hashingENS1_20_Default_ranged_hashENS1_20_Prime_rehash_policyENS1_17_Hashtable_traitsILb0ELb1ELb1EEEE22_M_insert_bucket_beginEmPNS1_10_Hash_nodeIyLb0EEE
FN:1985,_ZNSt10_HashtableIyySaIyENSt8__detail9_IdentityESt8equal_toIyESt4hashIyENS1_18_Mod_range_hashingENS1_20_Default_ranged_hashENS1_20_Prime_rehash_policyENS1_17_Hashtable_traitsILb0ELb1ELb1EEEE21_M_insert_unique_nodeEmmPNS1_10_Hash_nodeIyLb0EEEm
FNDA:0,_ZNSt10_HashtableIyySaIyENSt8__detail9_IdentityESt8equal_toIyESt4hashIyENS1_18_Mod_range_hashingENS1_20_Default_ranged_hashENS1_20_Prime_rehash_policyENS1_17_Hashtable_traitsILb0ELb1ELb1EEEE21_M_insert_unique_nodeEmmPNS1_10_Hash_nodeIyLb0EEEm
FN:2072,_ZNSt10_HashtableIyySaIyENSt8__detail9_IdentityESt8equal_toIyESt4hashIyENS1_18_Mod_range_hashingENS1_20_Default_ranged_hashENS1_20_Prime_rehash_policyENS1_17_Hashtable_traitsILb0ELb1ELb1EEEE9_M_insertIyNS1_10_AllocNodeISaINS1_10_Hash_nodeIyLb0EEEEEEEESt4pairINS1_14_Node_iteratorIyLb1ELb0EEEbEOT_RKT0_St17integral_constantIbLb1EE
FNDA:0,_ZNSt10_HashtableIyySaIyENSt8__detail9_IdentityESt8equal_toIyESt4hashIyENS1_18_Mod_range_hashingENS1_20_Default_ranged_hashENS1_20_Prime_rehash_policyENS1_17_Hashtable_traitsILb0ELb1ELb1EEEE9_M_insertIyNS1_10_AllocNodeISaINS1_10_Hash_nodeIyLb0EEEEEEEESt4pairINS1_14_Node_iteratorIyLb1ELb0EEEbEOT_RKT0_St17integral_constantIbLb1EE
FN:2293,_ZNSt10_HashtableIyySaIyENSt8__detail9_IdentityESt8equal_toIyESt4hashIyENS1_18_Mod_range_hashingENS1_20_Default_ranged_hashENS1_20_Prime_rehash_policyENS1_17_Hashtable_traitsILb0ELb1ELb1EEEE5clearEv
FNDA:0,_ZNSt10_HashtableIyySaIyENSt8__detail9_IdentityESt8equal_toIyESt4hashIyENS1_18_Mod_range_hashingENS1_20_Default_ranged_hashENS1_20_Prime_rehash_policyENS1_17_Hashtable_traitsILb0ELb1ELb1EEEE5clearEv
FN:2332,_ZNSt10_HashtableIyySaIyENSt8__detail9_IdentityESt8equal_toIyESt4hashIyENS1_18_Mod_range_hashingENS1_20_Default_ranged_hashENS1_20_Prime_rehash_policyENS1_17_Hashtable_traitsILb0ELb1ELb1EEEE9_M_rehashEmRKm
FNDA:0,_ZNSt10_HashtableIyySaIyENSt8__detail9_IdentityESt8equal_toIyESt4hashIyENS1_18_Mod_range_hashingENS1_20_Default_ranged_hashENS1_20_Prime_rehash_policyENS1_17_Hashtable_traitsILb0ELb1ELb1EEEE9_M_rehashEmRKm
FN:2355,_ZNSt10_HashtableIyySaIyENSt8__detail9_IdentityESt8equal_toIyESt4hashIyENS1_18_Mod_range_hashingENS1_20_Default_ranged_hashENS1_20_Prime_rehash_policyENS1_17_Hashtable_traitsILb0ELb1ELb1EEEE13_M_rehash_auxEmSt17integral_constantIbLb1EE
FNDA:0,_ZNSt10_HashtableIyySaIyENSt8__detail9_IdentityESt8equal_toIyESt4hashIyENS1_18_Mod_range_hashingENS1_20_Default_ranged_hashENS1_20_Prime_rehash_policyENS1_17_Hashtable_traitsILb0ELb1ELb1EEEE13_M_rehash_auxEmSt17integral_constantIbLb1EE
DA:282,0
DA:283,0
DA:293,0
DA:406,0
DA:407,0
DA:417,0
DA:419,0
DA:421,0
DA:422,0
DA:425,0
DA:429,0
DA:431,0
DA:432,0
DA:434,0
DA:438,0
DA:439,0
DA:447,0
DA:448,0
DA:512,0
DA:612,0
DA:613,0
DA:771,0
DA:772,0
DA:775,0
DA:776,0
DA:788,0
DA:791,0
DA:792,0
DA:793,0
DA:794,0
DA:1505,0
DA:1509,0
DA:1510,0
DA:1511,0
DA:1565,0
DA:1570,0
DA:1571,0
DA:1572,0
DA:1804,0
DA:1810,0
DA:1811,0
DA:1812,0
DA:1814,0
DA:1815,0
DA:1817,0
DA:1818,0
DA:1820,0
DA:1821,0
DA:1822,0
DA:1825,0
DA:1863,0
DA:1867,0
DA:1871,0
DA:1872,0
DA:1879,0
DA:1880,0
DA:1882,0
DA:1885,0
DA:1887,0
DA:1889,0
DA:1985,0
DA:1991,0
DA:1993,0
DA:1996,0
DA:1998,0
DA:1999,0
DA:2002,0
DA:2005,0
DA:2006,0
DA:2007,0
DA:2072,0
DA:2078,0
DA:2079,0
DA:2080,0
DA:2082,0
DA:2083,0
DA:2085,0
DA:2087,0
DA:2088,0
DA:2089,0
DA:2090,0
DA:2293,0
DA:2297,0
DA:2298,0
DA:2299,0
DA:2300,0
DA:2301,0
DA:2302,0
DA:2332,0
DA:2338,0
DA:2340,0
DA:2344,0
DA:2345,0
DA:2347,0
DA:2355,0
DA:2359,0
DA:2360,0
DA:2361,0
DA:2362,0
DA:2363,0
DA:2365,0
DA:2367,0
DA:2368,0
DA:2370,0
DA:2371,0
DA:2372,0
DA:2373,0
DA:2374,0
DA:2375,0
DA:2379,0
DA:2380,0
DA:2383,0
DA:2386,0
DA:2387,0
DA:2388,0
DA:2389,0
end_of_record
SF:/usr/include/c++/11/bits/hashtable_policy.h
FN:84,_ZNKSt8__detail9_IdentityclIRyEEOT_S4_
FNDA:0,_ZNKSt8__detail9_IdentityclIRyEEOT_S4_
FN:84,_ZNKSt8__detail9_IdentityclIRKyEEOT_S5_
FNDA:0,_ZNKSt8__detail9_IdentityclIRKyEEOT_S5_
FN:161,_ZNSt8__detail10_AllocNodeISaINS_10_Hash_nodeIyLb0EEEEEC2ERNS_16_Hashtable_allocIS3_EE
FNDA:0,_ZNSt8__detail10_AllocNodeISaINS_10_Hash_nodeIyLb0EEEEEC2ERNS_16_Hashtable_allocIS3_EE
FN:166,_ZNKSt8__detail10_AllocNodeISaINS_10_Hash_nodeIyLb0EEEEEclIyEEPS2_OT_
FNDA:0,_ZNKSt8__detail10_AllocNodeISaINS_10_Hash_nodeIyLb0EEEEEclIyEEPS2_OT_
FN:218,_ZNSt8__detail15_Hash_node_baseC2Ev
FNDA:0,_ZNSt8__detail15_Hash_node_baseC2Ev
FN:236,_ZNSt8__detail21_Hash_node_value_baseIyE9_M_valptrEv
FNDA:0,_ZNSt8__detail21_Hash_node_value_baseIyE9_M_valptrEv
FN:240,_ZNKSt8__detail21_Hash_node_value_baseIyE9_M_valptrEv
FNDA:0,_ZNKSt8__detail21_Hash_node_value_baseIyE9_M_valptrEv
FN:248,_ZNKSt8__detail21_Hash_node_value_baseIyE4_M_vEv
FNDA:0,_ZNKSt8__detail21_Hash_node_value_baseIyE4_M_vEv
FN:281,_ZNKSt8__detail10_Hash_nodeIyLb0EE7_M_nextEv
FNDA:0,_ZNKSt8__detail10_Hash_nodeIyLb0EE7_M_nextEv
FN:294,_ZNSt8__detail19_Node_iterator_baseIyLb0EEC2EPNS_10_Hash_nodeIyLb0EEE
FNDA:0,_ZNSt8__detail19_Node_iterator_baseIyLb0EEC2EPNS_10_Hash_nodeIyLb0EEE
FN:302,_ZNSt8__detaileqERKNS_19_Node_iterator_baseIyLb0EEES3_
FNDA:0,_ZNSt8__detaileqERKNS_19_Node_iterator_baseIyLb0EEES3_
FN:337,_ZNSt8__detail14_Node_iteratorIyLb1ELb0EEC2EPNS_10_Hash_nodeIyLb0EEE
FNDA:0,_ZNSt8__detail14_Node_iteratorIyLb1ELb0EEC2EPNS_10_Hash_nodeIyLb0EEE
FN:427,_ZNKSt8__detail18_Mod_range_hashingclEmm
FNDA:0,_ZNKSt8__detail18_Mod_range_hashingclEmm
FN:445,_ZNSt8__detail20_Prime_rehash_policyC2Ef
FNDA:0,_ZNSt8__detail20_Prime_rehash_policyC2Ef
FN:472,_ZNKSt8__detail20_Prime_rehash_policy8_M_stateEv
FNDA:0,_ZNKSt8__detail20_Prime_rehash_policy8_M_stateEv
FN:480,_ZNSt8__detail20_Prime_rehash_policy8_M_resetEm
FNDA:0,_ZNSt8__detail20_Prime_rehash_policy8_M_resetEm
FN:814,_ZNSt8__detail12_Insert_baseIyySaIyENS_9_IdentityESt8equal_toIyESt4hashIyENS_18_Mod_range_hashingENS_20_Default_ranged_hashENS_20_Prime_rehash_policyENS_17_Hashtable_traitsILb0ELb1ELb1EEEE20_M_conjure_hashtableEv
FNDA:0,_ZNSt8__detail12_Insert_baseIyySaIyENS_9_IdentityESt8equal_toIyESt4hashIyENS_18_Mod_range_hashingENS_20_Default_ranged_hashENS_20_Prime_rehash_policyENS_17_Hashtable_traitsILb0ELb1ELb1EEEE20_M_conjure_hashtableEv
FN:981,_ZNSt8__detail7_InsertIyySaIyENS_9_IdentityESt8equal_toIyESt4hashIyENS_18_Mod_range_hashingENS_20_Default_ranged_hashENS_20_Prime_rehash_policyENS_17_Hashtable_traitsILb0ELb1ELb1EEELb1EE6insertEOy
FNDA:0,_ZNSt8__detail7_InsertIyySaIyENS_9_IdentityESt8equal_toIyESt4hashIyENS_18_Mod_range_hashingENS_20_Default_ranged_hashENS_20_Prime_rehash_policyENS_17_Hashtable_traitsILb0ELb1ELb1EEELb1EE6insertEOy
FN:1126,_ZNSt8__detail21_Hashtable_ebo_helperILi0ESaINS_10_Hash_nodeIyLb0EEEELb1EEC2Ev
FNDA:0,_ZNSt8__detail21_Hashtable_ebo_helperILi0ESaINS_10_Hash_nodeIyLb0EEEELb1EEC2Ev
FN:1133,_ZNKSt8__detail21_Hashtable_ebo_helperILi1ESt4hashIyELb1EE7_M_cgetEv
FNDA:0,_ZNKSt8__detail21_Hashtable_ebo_helperILi1ESt4hashIyELb1EE7_M_cgetEv
FN:1133,_ZNKSt8__detail21_Hashtable_ebo_helperILi0ESt8equal_toIyELb1EE7_M_cgetEv
FNDA:0,_ZNKSt8__detail21_Hashtable_ebo_helperILi0ESt8equal_toIyELb1EE7_M_cgetEv
FN:1134,_ZNSt8__detail21_Hashtable_ebo_helperILi0ESaINS_10_Hash_nodeIyLb0EEEELb1EE6_M_getEv
FNDA:0,_ZNSt8__detail21_Hashtable_ebo_helperILi0ESaINS_10_Hash_nodeIyLb0EEEELb1EE6_M_getEv
FN:1213,_ZNKSt8__detail15_Hash_code_baseIyyNS_9_IdentityESt4hashIyENS_18_Mod_range_hashingENS_20_Default_ranged_hashELb0EE12_M_hash_codeERKy
FNDA:0,_ZNKSt8__detail15_Hash_code_baseIyyNS_9_IdentityESt4hashIyENS_18_Mod_range_hashingENS_20_Default_ranged_hashELb0EE12_M_hash_codeERKy
FN:1230,_ZNKSt8__detail15_Hash_code_baseIyyNS_9_IdentityESt4hashIyENS_18_Mod_range_hashingENS_20_Default_ranged_hashELb0EE15_M_bucket_indexEmm
FNDA:0,_ZNKSt8__detail15_Hash_code_baseIyyNS_9_IdentityESt4hashIyENS_18_Mod_range_hashingENS_20_Default_ranged_hashELb0EE15_M_bucket_indexEmm
FN:1234,_ZNKSt8__detail15_Hash_code_baseIyyNS_9_IdentityESt4hashIyENS_18_Mod_range_hashingENS_20_Default_ranged_hashELb0EE15_M_bucket_indexERKNS_16_Hash_node_valueIyLb0EEEm
FNDA:0,_ZNKSt8__detail15_Hash_code_baseIyyNS_9_IdentityESt4hashIyENS_18_Mod_range_hashingENS_20_Default_ranged_hashELb0EE15_M_bucket_indexERKNS_16_Hash_node_valueIyLb0EEEm
FN:1252,_ZNKSt8__detail15_Hash_code_baseIyyNS_9_IdentityESt4hashIyENS_18_Mod_range_hashingENS_20_Default_ranged_hashELb0EE13_M_store_codeERNS_21_Hash_node_code_cacheILb0EEEm
FNDA:0,_ZNKSt8__detail15_Hash_code_baseIyyNS_9_IdentityESt4hashIyENS_18_Mod_range_hashingENS_20_Default_ranged_hashELb0EE13_M_store_codeERNS_21_Hash_node_code_cacheILb0EEEm
FN:1274,_ZNKSt8__detail15_Hash_code_baseIyyNS_9_IdentityESt4hashIyENS_18_Mod_range_hashingENS_20_Default_ranged_hashELb0EE7_M_hashEv
FNDA:0,_ZNKSt8__detail15_Hash_code_baseIyyNS_9_IdentityESt4hashIyENS_18_Mod_range_hashingENS_20_Default_ranged_hashELb0EE7_M_hashEv
FN:1584,_ZNSt8__detail15_Hashtable_baseIyyNS_9_IdentityESt8equal_toIyESt4hashIyENS_18_Mod_range_hashingENS_20_Default_ranged_hashENS_17_Hashtable_traitsILb0ELb1ELb1EEEE9_S_equalsEmRKNS_21_Hash_node_code_cacheILb0EEE
FNDA:0,_ZNSt8__detail15_Hashtable_baseIyyNS_9_IdentityESt8equal_toIyESt4hashIyENS_18_Mod_range_hashingENS_20_Default_ranged_hashENS_17_Hashtable_traitsILb0ELb1ELb1EEEE9_S_equalsEmRKNS_21_Hash_node_code_cacheILb0EEE
FN:1608,_ZNKSt8__detail15_Hashtable_baseIyyNS_9_IdentityESt8equal_toIyESt4hashIyENS_18_Mod_range_hashingENS_20_Default_ranged_hashENS_17_Hashtable_traitsILb0ELb1ELb1EEEE9_M_equalsERKymRKNS_16_Hash_node_valueIyLb0EEE
FNDA:0,_ZNKSt8__detail15_Hashtable_baseIyyNS_9_IdentityESt8equal_toIyESt4hashIyENS_18_Mod_range_hashingENS_20_Default_ranged_hashENS_17_Hashtable_traitsILb0ELb1ELb1EEEE9_M_equalsERKymRKNS_16_Hash_node_valueIyLb0EEE
FN:1647,_ZNKSt8__detail15_Hashtable_baseIyyNS_9_IdentityESt8equal_toIyESt4hashIyENS_18_Mod_range_hashingENS_20_Default_ranged_hashENS_17_Hashtable_traitsILb0ELb1ELb1EEEE5_M_eqEv
FNDA:0,_ZNKSt8__detail15_Hashtable_baseIyyNS_9_IdentityESt8equal_toIyESt4hashIyENS_18_Mod_range_hashingENS_20_Default_ranged_hashENS_17_Hashtable_traitsILb0ELb1ELb1EEEE5_M_eqEv
FN:1820,_ZNSt8__detail16_Hashtable_allocISaINS_10_Hash_nodeIyLb0EEEEEC2Ev
FNDA:0,_ZNSt8__detail16_Hashtable_allocISaINS_10_Hash_nodeIyLb0EEEEEC2Ev
FN:1830,_ZNSt8__detail16_Hashtable_allocISaINS_10_Hash_nodeIyLb0EEEEE17_M_node_allocatorEv
FNDA:0,_ZNSt8__detail16_Hashtable_allocISaINS_10_Hash_nodeIyLb0EEEEE17_M_node_allocatorEv
FN:1867,_ZNSt8__detail16_Hashtable_allocISaINS_10_Hash_nodeIyLb0EEEEE16_M_allocate_nodeIJyEEEPS2_DpOT_
FNDA:0,_ZNSt8__detail16_Hashtable_allocISaINS_10_Hash_nodeIyLb0EEEEE16_M_allocate_nodeIJyEEEPS2_DpOT_
FN:1889,_ZNSt8__detail16_Hashtable_allocISaINS_10_Hash_nodeIyLb0EEEEE18_M_deallocate_nodeEPS2_
FNDA:0,_ZNSt8__detail16_Hashtable_allocISaINS_10_Hash_nodeIyLb0EEEEE18_M_deallocate_nodeEPS2_
FN:1897,_ZNSt8__detail16_Hashtable_allocISaINS_10_Hash_nodeIyLb0EEEEE22_M_deallocate_node_ptrEPS2_
FNDA:0,_ZNSt8__detail16_Hashtable_allocISaINS_10_Hash_nodeIyLb0EEEEE22_M_deallocate_node_ptrEPS2_
FN:1907,_ZNSt8__detail16_Hashtable_allocISaINS_10_Hash_nodeIyLb0EEEEE19_M_deallocate_nodesEPS2_
FNDA:0,_ZNSt8__detail16_Hashtable_allocISaINS_10_Hash_nodeIyLb0EEEEE19_M_deallocate_nodesEPS2_
FN:1919,_ZNSt8__detail16_Hashtable_allocISaINS_10_Hash_nodeIyLb0EEEEE19_M_allocate_bucketsEm
FNDA:0,_ZNSt8__detail16_Hashtable_allocISaINS_10_Hash_nodeIyLb0EEEEE19_M_allocate_bucketsEm
FN:1932,_ZNSt8__detail16_Hashtable_allocISaINS_10_Hash_nodeIyLb0EEEEE21_M_deallocate_bucketsEPPNS_15_Hash_node_baseEm
FNDA:0,_ZNSt8__detail16_Hashtable_allocISaINS_10_Hash_nodeIyLb0EEEEE21_M_deallocate_bucketsEPPNS_15_Hash_node_baseEm
DA:84,0
DA:85,0
DA:84,0
DA:85,0
DA:161,0
DA:162,0
DA:166,0
DA:167,0
DA:218,0
DA:236,0
DA:237,0
DA:240,0
DA:241,0
DA:248,0
DA:249,0
DA:281,0
DA:282,0
DA:294,0
DA:295,0
DA:302,0
DA:304,0
DA:337,0
DA:338,0
DA:427,0
DA:429,0
DA:445,0
DA:446,0
DA:472,0
DA:473,0
DA:480,0
DA:481,0
DA:814,0
DA:815,0
DA:981,0
DA:983,0
DA:984,0
DA:985,0
DA:1126,0
DA:1133,0
DA:1133,0
DA:1134,0
DA:1213,0
DA:1217,0
DA:1230,0
DA:1231,0
DA:1234,0
DA:1240,0
DA:1241,0
DA:1252,0
DA:1253,0
DA:1274,0
DA:1584,0
DA:1585,0
DA:1608,0
DA:1614,0
DA:1647,0
DA:1820,0
DA:1830,0
DA:1831,0
DA:1867,0
DA:1870,0
DA:1871,0
DA:1874,0
DA:1875,0
DA:1878,0
DA:1880,0
DA:1882,0
DA:1883,0
DA:1889,0
DA:1891,0
DA:1892,0
DA:1893,0
DA:1897,0
DA:1900,0
DA:1901,0
DA:1902,0
DA:1903,0
DA:1907,0
DA:1909,0
DA:1911,0
DA:1912,0
DA:1913,0
DA:1915,0
DA:1919,0
DA:1922,0
DA:1924,0
DA:1925,0
DA:1926,0
DA:1927,0
DA:1928,0
DA:1932,0
DA:1937,0
DA:1938,0
DA:1939,0
DA:1940,0
end_of_record
SF:/usr/include/c++/11/bits/alloc_traits.h
FN:459,_ZNSt16allocator_traitsISaIN7doctest12_GLOBAL__N_113JUnitReporter17JUnitTestCaseData13JUnitTestCaseEEE8allocateERS5_m
FNDA:0,_ZNSt16allocator_traitsISaIN7doctest12_GLOBAL__N_113JUnitReporter17JUnitTestCaseData13JUnitTestCaseEEE8allocateERS5_m
FN:459,_ZNSt16allocator_traitsISaIPKN7doctest6detail8TestCaseEEE8allocateERS5_m
FNDA:0,_ZNSt16allocator_traitsISaIPKN7doctest6detail8TestCaseEEE8allocateERS5_m
FN:459,_ZNSt16allocator_traitsISaIPN7doctest9IReporterEEE8allocateERS3_m
FNDA:0,_ZNSt16allocator_traitsISaIPN7doctest9IReporterEEE8allocateERS3_m
FN:459,_ZNSt16allocator_traitsISaIPKN7doctest12TestCaseDataEEE8allocateERS4_m
FNDA:0,_ZNSt16allocator_traitsISaIPKN7doctest12TestCaseDataEEE8allocateERS4_m
FN:459,_ZNSt16allocator_traitsISaINSt8__detail10_Hash_nodeIyLb0EEEEE8allocateERS3_m
FNDA:0,_ZNSt16allocator_traitsISaINSt8__detail10_Hash_nodeIyLb0EEEEE8allocateERS3_m
FN:459,_ZNSt16allocator_traitsISaISt6vectorIN7doctest6StringESaIS2_EEEE8allocateERS5_m
FNDA:0,_ZNSt16allocator_traitsISaISt6vectorIN7doctest6StringESaIS2_EEEE8allocateERS5_m
FN:459,_ZNSt16allocator_traitsISaISt4fposI11__mbstate_tEEE8allocateERS3_m
FNDA:0,_ZNSt16allocator_traitsISaISt4fposI11__mbstate_tEEE8allocateERS3_m
FN:459,_ZNSt16allocator_traitsISaIN7doctest6StringEEE8allocateERS2_m
FNDA:0,_ZNSt16allocator_traitsISaIN7doctest6StringEEE8allocateERS2_m
FN:459,_ZNSt16allocator_traitsISaIN7doctest12_GLOBAL__N_113JUnitReporter17JUnitTestCaseData16JUnitTestMessageEEE8allocateERS5_m
FNDA:0,_ZNSt16allocator_traitsISaIN7doctest12_GLOBAL__N_113JUnitReporter17JUnitTestCaseData16JUnitTestMessageEEE8allocateERS5_m
FN:459,_ZNSt16allocator_traitsISaISt13_Rb_tree_nodeIN7doctest6detail8TestCaseEEEE8allocateERS5_m
FNDA:0,_ZNSt16allocator_traitsISaISt13_Rb_tree_nodeIN7doctest6detail8TestCaseEEEE8allocateERS5_m
FN:459,_ZNSt16allocator_traitsISaINSt7__cxx1112basic_stringIcSt11char_traitsIcESaIcEEEEE8allocateERS6_m
FNDA:0,_ZNSt16allocator_traitsISaINSt7__cxx1112basic_stringIcSt11char_traitsIcESaIcEEEEE8allocateERS6_m
FN:459,_ZNSt16allocator_traitsISaISt13_Rb_tree_nodeIN7doctest6StringEEEE8allocateERS4_m
FNDA:0,_ZNSt16allocator_traitsISaISt13_Rb_tree_nodeIN7doctest6StringEEEE8allocateERS4_m
FN:459,_ZNSt16allocator_traitsISaIPKN7doctest6detail20IExceptionTranslatorEEE8allocateERS5_m
FNDA:0,_ZNSt16allocator_traitsISaIPKN7doctest6detail20IExceptionTranslatorEEE8allocateERS5_m
FN:459,_ZNSt16allocator_traitsISaISt13_Rb_tree_nodeISt4pairIKS1_IiN7doctest6StringEEPFPNS2_9IReporterERKNS2_14ContextOptionsEEEEEE8allocateERSF_m
FNDA:0,_ZNSt16allocator_traitsISaISt13_Rb_tree_nodeISt4pairIKS1_IiN7doctest6StringEEPFPNS2_9IReporterERKNS2_14ContextOptionsEEEEEE8allocateERSF_m
FN:459,_ZNSt16allocator_traitsISaIcEE8allocateERS0_m
FNDA:0,_ZNSt16allocator_traitsISaIcEE8allocateERS0_m
FN:459,_ZNSt16allocator_traitsISaIN7doctest16SubcaseSignatureEEE8allocateERS2_m
FNDA:0,_ZNSt16allocator_traitsISaIN7doctest16SubcaseSignatureEEE8allocateERS2_m
FN:459,_ZNSt16allocator_traitsISaIPNSt8__detail15_Hash_node_baseEEE8allocateERS3_m
FNDA:0,_ZNSt16allocator_traitsISaIPNSt8__detail15_Hash_node_baseEEE8allocateERS3_m
FN:459,_ZNSt16allocator_traitsISaIPN7doctest13IContextScopeEEE8allocateERS3_m
FNDA:0,_ZNSt16allocator_traitsISaIPN7doctest13IContextScopeEEE8allocateERS3_m
FN:491,_ZNSt16allocator_traitsISaIPKN7doctest6detail8TestCaseEEE10deallocateERS5_PS4_m
FNDA:0,_ZNSt16allocator_traitsISaIPKN7doctest6detail8TestCaseEEE10deallocateERS5_PS4_m
FN:491,_ZNSt16allocator_traitsISaIN7doctest12_GLOBAL__N_113JUnitReporter17JUnitTestCaseData13JUnitTestCaseEEE10deallocateERS5_PS4_m
FNDA:0,_ZNSt16allocator_traitsISaIN7doctest12_GLOBAL__N_113JUnitReporter17JUnitTestCaseData13JUnitTestCaseEEE10deallocateERS5_PS4_m
FN:491,_ZNSt16allocator_traitsISaISt13_Rb_tree_nodeIN7doctest6detail8TestCaseEEEE10deallocateERS5_PS4_m
FNDA:0,_ZNSt16allocator_traitsISaISt13_Rb_tree_nodeIN7doctest6detail8TestCaseEEEE10deallocateERS5_PS4_m
FN:491,_ZNSt16allocator_traitsISaIN7doctest6StringEEE10deallocateERS2_PS1_m
FNDA:0,_ZNSt16allocator_traitsISaIN7doctest6StringEEE10deallocateERS2_PS1_m
FN:491,_ZNSt16allocator_traitsISaIN7doctest16SubcaseSignatureEEE10deallocateERS2_PS1_m
FNDA:0,_ZNSt16allocator_traitsISaIN7doctest16SubcaseSignatureEEE10deallocateERS2_PS1_m
FN:491,_ZNSt16allocator_traitsISaIPN7doctest9IReporterEEE10deallocateERS3_PS2_m
FNDA:0,_ZNSt16allocator_traitsISaIPN7doctest9IReporterEEE10deallocateERS3_PS2_m
FN:491,_ZNSt16allocator_traitsISaISt13_Rb_tree_nodeISt4pairIKS1_IiN7doctest6StringEEPFPNS2_9IReporterERKNS2_14ContextOptionsEEEEEE10deallocateERSF_PSE_m
FNDA:0,_ZNSt16allocator_traitsISaISt13_Rb_tree_nodeISt4pairIKS1_IiN7doctest6StringEEPFPNS2_9IReporterERKNS2_14ContextOptionsEEEEEE10deallocateERSF_PSE_m
FN:491,_ZNSt16allocator_traitsISaIPNSt8__detail15_Hash_node_baseEEE10deallocateERS3_PS2_m
FNDA:0,_ZNSt16allocator_traitsISaIPNSt8__detail15_Hash_node_baseEEE10deallocateERS3_PS2_m
FN:491,_ZNSt16allocator_traitsISaISt6vectorIN7doctest6StringESaIS2_EEEE10deallocateERS5_PS4_m
FNDA:0,_ZNSt16allocator_traitsISaISt6vectorIN7doctest6StringESaIS2_EEEE10deallocateERS5_PS4_m
FN:491,_ZNSt16allocator_traitsISaIPKN7doctest12TestCaseDataEEE10deallocateERS4_PS3_m
FNDA:0,_ZNSt16allocator_traitsISaIPKN7doctest12TestCaseDataEEE10deallocateERS4_PS3_m
FN:491,_ZNSt16allocator_traitsISaIcEE10deallocateERS0_Pcm
FNDA:0,_ZNSt16allocator_traitsISaIcEE10deallocateERS0_Pcm
FN:491,_ZNSt16allocator_traitsISaISt4fposI11__mbstate_tEEE10deallocateERS3_PS2_m
FNDA:0,_ZNSt16allocator_traitsISaISt4fposI11__mbstate_tEEE10deallocateERS3_PS2_m
FN:491,_ZNSt16allocator_traitsISaINSt8__detail10_Hash_nodeIyLb0EEEEE10deallocateERS3_PS2_m
FNDA:0,_ZNSt16allocator_traitsISaINSt8__detail10_Hash_nodeIyLb0EEEEE10deallocateERS3_PS2_m
FN:491,_ZNSt16allocator_traitsISaIPKN7doctest6detail20IExceptionTranslatorEEE10deallocateERS5_PS4_m
FNDA:0,_ZNSt16allocator_traitsISaIPKN7doctest6detail20IExceptionTranslatorEEE10deallocateERS5_PS4_m
FN:491,_ZNSt16allocator_traitsISaIPN7doctest13IContextScopeEEE10deallocateERS3_PS2_m
FNDA:0,_ZNSt16allocator_traitsISaIPN7doctest13IContextScopeEEE10deallocateERS3_PS2_m
FN:491,_ZNSt16allocator_traitsISaISt13_Rb_tree_nodeIN7doctest6StringEEEE10deallocateERS4_PS3_m
FNDA:0,_ZNSt16allocator_traitsISaISt13_Rb_tree_nodeIN7doctest6StringEEEE10deallocateERS4_PS3_m
FN:491,_ZNSt16allocator_traitsISaINSt7__cxx1112basic_stringIcSt11char_traitsIcESaIcEEEEE10deallocateERS6_PS5_m
FNDA:0,_ZNSt16allocator_traitsISaINSt7__cxx1112basic_stringIcSt11char_traitsIcESaIcEEEEE10deallocateERS6_PS5_m
FN:491,_ZNSt16allocator_traitsISaIN7doctest12_GLOBAL__N_113JUnitReporter17JUnitTestCaseData16JUnitTestMessageEEE10deallocateERS5_PS4_m
FNDA:0,_ZNSt16allocator_traitsISaIN7doctest12_GLOBAL__N_113JUnitReporter17JUnitTestCaseData16JUnitTestMessageEEE10deallocateERS5_PS4_m
FN:507,_ZNSt16allocator_traitsISaIPN7doctest13IContextScopeEEE9constructIS2_JS2_EEEvRS3_PT_DpOT0_
FNDA:0,_ZNSt16allocator_traitsISaIPN7doctest13IContextScopeEEE9constructIS2_JS2_EEEvRS3_PT_DpOT0_
FN:507,_ZNSt16allocator_traitsISaIN7doctest12_GLOBAL__N_113JUnitReporter17JUnitTestCaseData13JUnitTestCaseEEE9constructIS4_JS4_EEEvRS5_PT_DpOT0_
FNDA:0,_ZNSt16allocator_traitsISaIN7doctest12_GLOBAL__N_113JUnitReporter17JUnitTestCaseData13JUnitTestCaseEEE9constructIS4_JS4_EEEvRS5_PT_DpOT0_
FN:507,_ZNSt16allocator_traitsISaIPN7doctest9IReporterEEE9constructIS2_JS2_EEEvRS3_PT_DpOT0_
FNDA:0,_ZNSt16allocator_traitsISaIPN7doctest9IReporterEEE9constructIS2_JS2_EEEvRS3_PT_DpOT0_
FN:507,_ZNSt16allocator_traitsISaIN7doctest6StringEEE9constructIS1_JS1_EEEvRS2_PT_DpOT0_
FNDA:0,_ZNSt16allocator_traitsISaIN7doctest6StringEEE9constructIS1_JS1_EEEvRS2_PT_DpOT0_
FN:507,_ZNSt16allocator_traitsISaISt4fposI11__mbstate_tEEE9constructIS2_JS2_EEEvRS3_PT_DpOT0_
FNDA:0,_ZNSt16allocator_traitsISaISt4fposI11__mbstate_tEEE9constructIS2_JS2_EEEvRS3_PT_DpOT0_
FN:507,_ZNSt16allocator_traitsISaIN7doctest6StringEEE9constructIS1_JRKS1_EEEvRS2_PT_DpOT0_
FNDA:0,_ZNSt16allocator_traitsISaIN7doctest6StringEEE9constructIS1_JRKS1_EEEvRS2_PT_DpOT0_
FN:507,_ZNSt16allocator_traitsISaIN7doctest12_GLOBAL__N_113JUnitReporter17JUnitTestCaseData16JUnitTestMessageEEE9constructIS4_JRKNSt7__cxx1112basic_stringIcSt11char_traitsIcESaIcEEESF_EEEvRS5_PT_DpOT0_
FNDA:0,_ZNSt16allocator_traitsISaIN7doctest12_GLOBAL__N_113JUnitReporter17JUnitTestCaseData16JUnitTestMessageEEE9constructIS4_JRKNSt7__cxx1112basic_stringIcSt11char_traitsIcESaIcEEESF_EEEvRS5_PT_DpOT0_
FN:507,_ZNSt16allocator_traitsISaIN7doctest12_GLOBAL__N_113JUnitReporter17JUnitTestCaseData16JUnitTestMessageEEE9constructIS4_JRKNSt7__cxx1112basic_stringIcSt11char_traitsIcESaIcEEESF_SF_EEEvRS5_PT_DpOT0_
FNDA:0,_ZNSt16allocator_traitsISaIN7doctest12_GLOBAL__N_113JUnitReporter17JUnitTestCaseData16JUnitTestMessageEEE9constructIS4_JRKNSt7__cxx1112basic_stringIcSt11char_traitsIcESaIcEEESF_SF_EEEvRS5_PT_DpOT0_
FN:507,_ZNSt16allocator_traitsISaIPKN7doctest6detail8TestCaseEEE9constructIS4_JS4_EEEvRS5_PT_DpOT0_
FNDA:0,_ZNSt16allocator_traitsISaIPKN7doctest6detail8TestCaseEEE9constructIS4_JS4_EEEvRS5_PT_DpOT0_
FN:507,_ZNSt16allocator_traitsISaIN7doctest12_GLOBAL__N_113JUnitReporter17JUnitTestCaseData13JUnitTestCaseEEE9constructIS4_JRKNSt7__cxx1112basic_stringIcSt11char_traitsIcESaIcEEESF_EEEvRS5_PT_DpOT0_
FNDA:0,_ZNSt16allocator_traitsISaIN7doctest12_GLOBAL__N_113JUnitReporter17JUnitTestCaseData13JUnitTestCaseEEE9constructIS4_JRKNSt7__cxx1112basic_stringIcSt11char_traitsIcESaIcEEESF_EEEvRS5_PT_DpOT0_
FN:507,_ZNSt16allocator_traitsISaINSt7__cxx1112basic_stringIcSt11char_traitsIcESaIcEEEEE9constructIS5_JRKS5_EEEvRS6_PT_DpOT0_
FNDA:0,_ZNSt16allocator_traitsISaINSt7__cxx1112basic_stringIcSt11char_traitsIcESaIcEEEEE9constructIS5_JRKS5_EEEvRS6_PT_DpOT0_
FN:507,_ZNSt16allocator_traitsISaIPKN7doctest6detail20IExceptionTranslatorEEE9constructIS4_JRKS4_EEEvRS5_PT_DpOT0_
FNDA:0,_ZNSt16allocator_traitsISaIPKN7doctest6detail20IExceptionTranslatorEEE9constructIS4_JRKS4_EEEvRS5_PT_DpOT0_
FN:507,_ZNSt16allocator_traitsISaIN7doctest16SubcaseSignatureEEE9constructIS1_JRKS1_EEEvRS2_PT_DpOT0_
FNDA:0,_ZNSt16allocator_traitsISaIN7doctest16SubcaseSignatureEEE9constructIS1_JRKS1_EEEvRS2_PT_DpOT0_
FN:507,_ZNSt16allocator_traitsISaIN7doctest16SubcaseSignatureEEE9constructIS1_JS1_EEEvRS2_PT_DpOT0_
FNDA:0,_ZNSt16allocator_traitsISaIN7doctest16SubcaseSignatureEEE9constructIS1_JS1_EEEvRS2_PT_DpOT0_
FN:507,_ZNSt16allocator_traitsISaISt13_Rb_tree_nodeISt4pairIKS1_IiN7doctest6StringEEPFPNS2_9IReporterERKNS2_14ContextOptionsEEEEEE9constructISD_JSD_EEEvRSF_PT_DpOT0_
FNDA:0,_ZNSt16allocator_traitsISaISt13_Rb_tree_nodeISt4pairIKS1_IiN7doctest6StringEEPFPNS2_9IReporterERKNS2_14ContextOptionsEEEEEE9constructISD_JSD_EEEvRSF_PT_DpOT0_
FN:507,_ZNSt16allocator_traitsISaISt13_Rb_tree_nodeIN7doctest6StringEEEE9constructIS2_JS2_EEEvRS4_PT_DpOT0_
FNDA:0,_ZNSt16allocator_traitsISaISt13_Rb_tree_nodeIN7doctest6StringEEEE9constructIS2_JS2_EEEvRS4_PT_DpOT0_
FN:507,_ZNSt16allocator_traitsISaISt13_Rb_tree_nodeIN7doctest6detail8TestCaseEEEE9constructIS3_JRKS3_EEEvRS5_PT_DpOT0_
FNDA:0,_ZNSt16allocator_traitsISaISt13_Rb_tree_nodeIN7doctest6detail8TestCaseEEEE9constructIS3_JRKS3_EEEvRS5_PT_DpOT0_
FN:507,_ZNSt16allocator_traitsISaINSt7__cxx1112basic_stringIcSt11char_traitsIcESaIcEEEEE9constructIS5_JS5_EEEvRS6_PT_DpOT0_
FNDA:0,_ZNSt16allocator_traitsISaINSt7__cxx1112basic_stringIcSt11char_traitsIcESaIcEEEEE9constructIS5_JS5_EEEvRS6_PT_DpOT0_
FN:507,_ZNSt16allocator_traitsISaIN7doctest12_GLOBAL__N_113JUnitReporter17JUnitTestCaseData16JUnitTestMessageEEE9constructIS4_JS4_EEEvRS5_PT_DpOT0_
FNDA:0,_ZNSt16allocator_traitsISaIN7doctest12_GLOBAL__N_113JUnitReporter17JUnitTestCaseData16JUnitTestMessageEEE9constructIS4_JS4_EEEvRS5_PT_DpOT0_
FN:507,_ZNSt16allocator_traitsISaIPKN7doctest12TestCaseDataEEE9constructIS3_JS3_EEEvRS4_PT_DpOT0_
FNDA:0,_ZNSt16allocator_traitsISaIPKN7doctest12TestCaseDataEEE9constructIS3_JS3_EEEvRS4_PT_DpOT0_
FN:507,_ZNSt16allocator_traitsISaINSt8__detail10_Hash_nodeIyLb0EEEEE9constructIyJyEEEvRS3_PT_DpOT0_
FNDA:0,_ZNSt16allocator_traitsISaINSt8__detail10_Hash_nodeIyLb0EEEEE9constructIyJyEEEvRS3_PT_DpOT0_
FN:527,_ZNSt16allocator_traitsISaIN7doctest16SubcaseSignatureEEE7destroyIS1_EEvRS2_PT_
FNDA:0,_ZNSt16allocator_traitsISaIN7doctest16SubcaseSignatureEEE7destroyIS1_EEvRS2_PT_
FN:527,_ZNSt16allocator_traitsISaINSt7__cxx1112basic_stringIcSt11char_traitsIcESaIcEEEEE7destroyIS5_EEvRS6_PT_
FNDA:0,_ZNSt16allocator_traitsISaINSt7__cxx1112basic_stringIcSt11char_traitsIcESaIcEEEEE7destroyIS5_EEvRS6_PT_
FN:527,_ZNSt16allocator_traitsISaIPN7doctest13IContextScopeEEE7destroyIS2_EEvRS3_PT_
FNDA:0,_ZNSt16allocator_traitsISaIPN7doctest13IContextScopeEEE7destroyIS2_EEvRS3_PT_
FN:527,_ZNSt16allocator_traitsISaISt13_Rb_tree_nodeIN7doctest6StringEEEE7destroyIS2_EEvRS4_PT_
FNDA:0,_ZNSt16allocator_traitsISaISt13_Rb_tree_nodeIN7doctest6StringEEEE7destroyIS2_EEvRS4_PT_
FN:527,_ZNSt16allocator_traitsISaINSt8__detail10_Hash_nodeIyLb0EEEEE7destroyIyEEvRS3_PT_
FNDA:0,_ZNSt16allocator_traitsISaINSt8__detail10_Hash_nodeIyLb0EEEEE7destroyIyEEvRS3_PT_
FN:527,_ZNSt16allocator_traitsISaISt13_Rb_tree_nodeISt4pairIKS1_IiN7doctest6StringEEPFPNS2_9IReporterERKNS2_14ContextOptionsEEEEEE7destroyISD_EEvRSF_PT_
FNDA:0,_ZNSt16allocator_traitsISaISt13_Rb_tree_nodeISt4pairIKS1_IiN7doctest6StringEEPFPNS2_9IReporterERKNS2_14ContextOptionsEEEEEE7destroyISD_EEvRSF_PT_
FN:527,_ZNSt16allocator_traitsISaISt13_Rb_tree_nodeIN7doctest6detail8TestCaseEEEE7destroyIS3_EEvRS5_PT_
FNDA:0,_ZNSt16allocator_traitsISaISt13_Rb_tree_nodeIN7doctest6detail8TestCaseEEEE7destroyIS3_EEvRS5_PT_
FN:527,_ZNSt16allocator_traitsISaIN7doctest12_GLOBAL__N_113JUnitReporter17JUnitTestCaseData13JUnitTestCaseEEE7destroyIS4_EEvRS5_PT_
FNDA:0,_ZNSt16allocator_traitsISaIN7doctest12_GLOBAL__N_113JUnitReporter17JUnitTestCaseData13JUnitTestCaseEEE7destroyIS4_EEvRS5_PT_
FN:527,_ZNSt16allocator_traitsISaIN7doctest6StringEEE7destroyIS1_EEvRS2_PT_
FNDA:0,_ZNSt16allocator_traitsISaIN7doctest6StringEEE7destroyIS1_EEvRS2_PT_
FN:527,_ZNSt16allocator_traitsISaIN7doctest12_GLOBAL__N_113JUnitReporter17JUnitTestCaseData16JUnitTestMessageEEE7destroyIS4_EEvRS5_PT_
FNDA:0,_ZNSt16allocator_traitsISaIN7doctest12_GLOBAL__N_113JUnitReporter17JUnitTestCaseData16JUnitTestMessageEEE7destroyIS4_EEvRS5_PT_
FN:527,_ZNSt16allocator_traitsISaISt4fposI11__mbstate_tEEE7destroyIS2_EEvRS3_PT_
FNDA:0,_ZNSt16allocator_traitsISaISt4fposI11__mbstate_tEEE7destroyIS2_EEvRS3_PT_
FN:543,_ZNSt16allocator_traitsISaIN7doctest12_GLOBAL__N_113JUnitReporter17JUnitTestCaseData16JUnitTestMessageEEE8max_sizeERKS5_
FNDA:0,_ZNSt16allocator_traitsISaIN7doctest12_GLOBAL__N_113JUnitReporter17JUnitTestCaseData16JUnitTestMessageEEE8max_sizeERKS5_
FN:543,_ZNSt16allocator_traitsISaIcEE8max_sizeERKS0_
FNDA:0,_ZNSt16allocator_traitsISaIcEE8max_sizeERKS0_
FN:543,_ZNSt16allocator_traitsISaIN7doctest16SubcaseSignatureEEE8max_sizeERKS2_
FNDA:0,_ZNSt16allocator_traitsISaIN7doctest16SubcaseSignatureEEE8max_sizeERKS2_
FN:543,_ZNSt16allocator_traitsISaIPKN7doctest12TestCaseDataEEE8max_sizeERKS4_
FNDA:0,_ZNSt16allocator_traitsISaIPKN7doctest12TestCaseDataEEE8max_sizeERKS4_
FN:543,_ZNSt16allocator_traitsISaIPKN7doctest6detail8TestCaseEEE8max_sizeERKS5_
FNDA:0,_ZNSt16allocator_traitsISaIPKN7doctest6detail8TestCaseEEE8max_sizeERKS5_
FN:543,_ZNSt16allocator_traitsISaIPKN7doctest6detail20IExceptionTranslatorEEE8max_sizeERKS5_
FNDA:0,_ZNSt16allocator_traitsISaIPKN7doctest6detail20IExceptionTranslatorEEE8max_sizeERKS5_
FN:543,_ZNSt16allocator_traitsISaINSt7__cxx1112basic_stringIcSt11char_traitsIcESaIcEEEEE8max_sizeERKS6_
FNDA:0,_ZNSt16allocator_traitsISaINSt7__cxx1112basic_stringIcSt11char_traitsIcESaIcEEEEE8max_sizeERKS6_
FN:543,_ZNSt16allocator_traitsISaIPN7doctest9IReporterEEE8max_sizeERKS3_
FNDA:0,_ZNSt16allocator_traitsISaIPN7doctest9IReporterEEE8max_sizeERKS3_
FN:543,_ZNSt16allocator_traitsISaIPN7doctest13IContextScopeEEE8max_sizeERKS3_
FNDA:0,_ZNSt16allocator_traitsISaIPN7doctest13IContextScopeEEE8max_sizeERKS3_
FN:543,_ZNSt16allocator_traitsISaISt6vectorIN7doctest6StringESaIS2_EEEE8max_sizeERKS5_
FNDA:0,_ZNSt16allocator_traitsISaISt6vectorIN7doctest6StringESaIS2_EEEE8max_sizeERKS5_
FN:543,_ZNSt16allocator_traitsISaISt4fposI11__mbstate_tEEE8max_sizeERKS3_
FNDA:0,_ZNSt16allocator_traitsISaISt4fposI11__mbstate_tEEE8max_sizeERKS3_
FN:543,_ZNSt16allocator_traitsISaIN7doctest12_GLOBAL__N_113JUnitReporter17JUnitTestCaseData13JUnitTestCaseEEE8max_sizeERKS5_
FNDA:0,_ZNSt16allocator_traitsISaIN7doctest12_GLOBAL__N_113JUnitReporter17JUnitTestCaseData13JUnitTestCaseEEE8max_sizeERKS5_
FN:543,_ZNSt16allocator_traitsISaIN7doctest6StringEEE8max_sizeERKS2_
FNDA:0,_ZNSt16allocator_traitsISaIN7doctest6StringEEE8max_sizeERKS2_
FN:558,_ZNSt16allocator_traitsISaIN7doctest6StringEEE37select_on_container_copy_constructionERKS2_
FNDA:0,_ZNSt16allocator_traitsISaIN7doctest6StringEEE37select_on_container_copy_constructionERKS2_
FN:558,_ZNSt16allocator_traitsISaIcEE37select_on_container_copy_constructionERKS0_
FNDA:0,_ZNSt16allocator_traitsISaIcEE37select_on_container_copy_constructionERKS0_
FN:576,_ZSt15__alloc_on_copyISaIcEEvRT_RKS1_
FNDA:0,_ZSt15__alloc_on_copyISaIcEEvRT_RKS1_
FN:608,_ZSt15__alloc_on_moveISaIcEEvRT_S2_
FNDA:0,_ZSt15__alloc_on_moveISaIcEEvRT_S2_
FN:743,_ZSt8_DestroyIPPKN7doctest12TestCaseDataES3_EvT_S5_RSaIT0_E
FNDA:0,_ZSt8_DestroyIPPKN7doctest12TestCaseDataES3_EvT_S5_RSaIT0_E
FN:743,_ZSt8_DestroyIPPKN7doctest6detail20IExceptionTranslatorES4_EvT_S6_RSaIT0_E
FNDA:0,_ZSt8_DestroyIPPKN7doctest6detail20IExceptionTranslatorES4_EvT_S6_RSaIT0_E
FN:743,_ZSt8_DestroyIPSt6vectorIN7doctest6StringESaIS2_EES4_EvT_S6_RSaIT0_E
FNDA:0,_ZSt8_DestroyIPSt6vectorIN7doctest6StringESaIS2_EES4_EvT_S6_RSaIT0_E
FN:743,_ZSt8_DestroyIPSt4fposI11__mbstate_tES2_EvT_S4_RSaIT0_E
FNDA:0,_ZSt8_DestroyIPSt4fposI11__mbstate_tES2_EvT_S4_RSaIT0_E
FN:743,_ZSt8_DestroyIPNSt7__cxx1112basic_stringIcSt11char_traitsIcESaIcEEES5_EvT_S7_RSaIT0_E
FNDA:0,_ZSt8_DestroyIPNSt7__cxx1112basic_stringIcSt11char_traitsIcESaIcEEES5_EvT_S7_RSaIT0_E
FN:743,_ZSt8_DestroyIPN7doctest12_GLOBAL__N_113JUnitReporter17JUnitTestCaseData16JUnitTestMessageES4_EvT_S6_RSaIT0_E
FNDA:0,_ZSt8_DestroyIPN7doctest12_GLOBAL__N_113JUnitReporter17JUnitTestCaseData16JUnitTestMessageES4_EvT_S6_RSaIT0_E
FN:743,_ZSt8_DestroyIPN7doctest6StringES1_EvT_S3_RSaIT0_E
FNDA:0,_ZSt8_DestroyIPN7doctest6StringES1_EvT_S3_RSaIT0_E
FN:743,_ZSt8_DestroyIPN7doctest12_GLOBAL__N_113JUnitReporter17JUnitTestCaseData13JUnitTestCaseES4_EvT_S6_RSaIT0_E
FNDA:0,_ZSt8_DestroyIPN7doctest12_GLOBAL__N_113JUnitReporter17JUnitTestCaseData13JUnitTestCaseES4_EvT_S6_RSaIT0_E
FN:743,_ZSt8_DestroyIPN7doctest16SubcaseSignatureES1_EvT_S3_RSaIT0_E
FNDA:0,_ZSt8_DestroyIPN7doctest16SubcaseSignatureES1_EvT_S3_RSaIT0_E
FN:743,_ZSt8_DestroyIPPN7doctest9IReporterES2_EvT_S4_RSaIT0_E
FNDA:0,_ZSt8_DestroyIPPN7doctest9IReporterES2_EvT_S4_RSaIT0_E
FN:743,_ZSt8_DestroyIPPKN7doctest6detail8TestCaseES4_EvT_S6_RSaIT0_E
FNDA:0,_ZSt8_DestroyIPPKN7doctest6detail8TestCaseES4_EvT_S6_RSaIT0_E
FN:743,_ZSt8_DestroyIPPN7doctest13IContextScopeES2_EvT_S4_RSaIT0_E
FNDA:0,_ZSt8_DestroyIPPN7doctest13IContextScopeES2_EvT_S4_RSaIT0_E
DA:459,0
DA:460,0
DA:459,0
DA:460,0
DA:459,0
DA:460,0
DA:459,0
DA:460,0
DA:459,0
DA:460,0
DA:459,0
DA:460,0
DA:459,0
DA:460,0
DA:459,0
DA:460,0
DA:459,0
DA:460,0
DA:459,0
DA:460,0
DA:459,0
DA:460,0
DA:459,0
DA:460,0
DA:459,0
DA:460,0
DA:459,0
DA:460,0
DA:459,0
DA:460,0
DA:459,0
DA:460,0
DA:459,0
DA:460,0
DA:459,0
DA:460,0
DA:491,0
DA:492,0
DA:491,0
DA:492,0
DA:491,0
DA:492,0
DA:491,0
DA:492,0
DA:491,0
DA:492,0
DA:491,0
DA:492,0
DA:491,0
DA:492,0
DA:491,0
DA:492,0
DA:491,0
DA:492,0
DA:491,0
DA:492,0
DA:491,0
DA:492,0
DA:491,0
DA:492,0
DA:491,0
DA:492,0
DA:491,0
DA:492,0
DA:491,0
DA:492,0
DA:491,0
DA:492,0
DA:491,0
DA:492,0
DA:491,0
DA:492,0
DA:507,0
DA:514,0
DA:516,0
DA:507,0
DA:514,0
DA:516,0
DA:507,0
DA:514,0
DA:516,0
DA:507,0
DA:514,0
DA:516,0
DA:507,0
DA:514,0
DA:516,0
DA:507,0
DA:514,0
DA:516,0
DA:507,0
DA:514,0
DA:516,0
DA:507,0
DA:514,0
DA:516,0
DA:507,0
DA:514,0
DA:516,0
DA:507,0
DA:514,0
DA:516,0
DA:507,0
DA:514,0
DA:516,0
DA:507,0
DA:514,0
DA:516,0
DA:507,0
DA:514,0
DA:516,0
DA:507,0
DA:514,0
DA:516,0
DA:507,0
DA:514,0
DA:516,0
DA:507,0
DA:514,0
DA:516,0
DA:507,0
DA:514,0
DA:516,0
DA:507,0
DA:514,0
DA:516,0
DA:507,0
DA:514,0
DA:516,0
DA:507,0
DA:514,0
DA:516,0
DA:507,0
DA:514,0
DA:516,0
DA:527,0
DA:533,0
DA:535,0
DA:527,0
DA:533,0
DA:535,0
DA:527,0
DA:533,0
DA:535,0
DA:527,0
DA:533,0
DA:535,0
DA:527,0
DA:533,0
DA:535,0
DA:527,0
DA:533,0
DA:535,0
DA:527,0
DA:533,0
DA:535,0
DA:527,0
DA:533,0
DA:535,0
DA:527,0
DA:533,0
DA:535,0
DA:527,0
DA:533,0
DA:535,0
DA:527,0
DA:533,0
DA:535,0
DA:543,0
DA:548,0
DA:543,0
DA:548,0
DA:543,0
DA:548,0
DA:543,0
DA:548,0
DA:543,0
DA:548,0
DA:543,0
DA:548,0
DA:543,0
DA:548,0
DA:543,0
DA:548,0
DA:543,0
DA:548,0
DA:543,0
DA:548,0
DA:543,0
DA:548,0
DA:543,0
DA:548,0
DA:543,0
DA:548,0
DA:558,0
DA:559,0
DA:558,0
DA:559,0
DA:576,0
DA:586,0
DA:608,0
DA:614,0
DA:618,0
DA:743,0
DA:746,0
DA:747,0
DA:743,0
DA:746,0
DA:747,0
DA:743,0
DA:746,0
DA:747,0
DA:743,0
DA:746,0
DA:747,0
DA:743,0
DA:746,0
DA:747,0
DA:743,0
DA:746,0
DA:747,0
DA:743,0
DA:746,0
DA:747,0
DA:743,0
DA:746,0
DA:747,0
DA:743,0
DA:746,0
DA:747,0
DA:743,0
DA:746,0
DA:747,0
DA:743,0
DA:746,0
DA:747,0
DA:743,0
DA:746,0
DA:747,0
end_of_record
SF:/usr/include/c++/11/bits/stl_uninitialized.h
FN:85,_ZNSt20__uninitialized_copyILb0EE13__uninit_copyIN9__gnu_cxx17__normal_iteratorIPKN7doctest6StringESt6vectorIS5_SaIS5_EEEEPS5_EET0_T_SE_SD_
FNDA:0,_ZNSt20__uninitialized_copyILb0EE13__uninit_copyIN9__gnu_cxx17__normal_iteratorIPKN7doctest6StringESt6vectorIS5_SaIS5_EEEEPS5_EET0_T_SE_SD_
FN:85,_ZNSt20__uninitialized_copyILb0EE13__uninit_copyIN9__gnu_cxx17__normal_iteratorIPN7doctest16SubcaseSignatureESt6vectorIS5_SaIS5_EEEES6_EET0_T_SC_SB_
FNDA:0,_ZNSt20__uninitialized_copyILb0EE13__uninit_copyIN9__gnu_cxx17__normal_iteratorIPN7doctest16SubcaseSignatureESt6vectorIS5_SaIS5_EEEES6_EET0_T_SC_SB_
FN:85,_ZNSt20__uninitialized_copyILb0EE13__uninit_copyISt13move_iteratorIPN7doctest16SubcaseSignatureEES5_EET0_T_S8_S7_
FNDA:0,_ZNSt20__uninitialized_copyILb0EE13__uninit_copyISt13move_iteratorIPN7doctest16SubcaseSignatureEES5_EET0_T_S8_S7_
FN:126,_ZSt18uninitialized_copyIN9__gnu_cxx17__normal_iteratorIPKN7doctest6StringESt6vectorIS3_SaIS3_EEEEPS3_ET0_T_SC_SB_
FNDA:0,_ZSt18uninitialized_copyIN9__gnu_cxx17__normal_iteratorIPKN7doctest6StringESt6vectorIS3_SaIS3_EEEEPS3_ET0_T_SC_SB_
FN:126,_ZSt18uninitialized_copyIN9__gnu_cxx17__normal_iteratorIPN7doctest16SubcaseSignatureESt6vectorIS3_SaIS3_EEEES4_ET0_T_SA_S9_
FNDA:0,_ZSt18uninitialized_copyIN9__gnu_cxx17__normal_iteratorIPN7doctest16SubcaseSignatureESt6vectorIS3_SaIS3_EEEES4_ET0_T_SA_S9_
FN:126,_ZSt18uninitialized_copyISt13move_iteratorIPN7doctest16SubcaseSignatureEES3_ET0_T_S6_S5_
FNDA:0,_ZSt18uninitialized_copyISt13move_iteratorIPN7doctest16SubcaseSignatureEES3_ET0_T_S6_S5_
FN:331,_ZSt22__uninitialized_copy_aIN9__gnu_cxx17__normal_iteratorIPKN7doctest6StringESt6vectorIS3_SaIS3_EEEEPS3_S3_ET0_T_SC_SB_RSaIT1_E
FNDA:0,_ZSt22__uninitialized_copy_aIN9__gnu_cxx17__normal_iteratorIPKN7doctest6StringESt6vectorIS3_SaIS3_EEEEPS3_S3_ET0_T_SC_SB_RSaIT1_E
FN:331,_ZSt22__uninitialized_copy_aIN9__gnu_cxx17__normal_iteratorIPN7doctest16SubcaseSignatureESt6vectorIS3_SaIS3_EEEES4_S3_ET0_T_SA_S9_RSaIT1_E
FNDA:0,_ZSt22__uninitialized_copy_aIN9__gnu_cxx17__normal_iteratorIPN7doctest16SubcaseSignatureESt6vectorIS3_SaIS3_EEEES4_S3_ET0_T_SA_S9_RSaIT1_E
FN:331,_ZSt22__uninitialized_copy_aISt13move_iteratorIPN7doctest16SubcaseSignatureEES3_S2_ET0_T_S6_S5_RSaIT1_E
FNDA:0,_ZSt22__uninitialized_copy_aISt13move_iteratorIPN7doctest16SubcaseSignatureEES3_S2_ET0_T_S6_S5_RSaIT1_E
FN:338,_ZSt22__uninitialized_move_aIPN7doctest16SubcaseSignatureES2_SaIS1_EET0_T_S5_S4_RT1_
FNDA:0,_ZSt22__uninitialized_move_aIPN7doctest16SubcaseSignatureES2_SaIS1_EET0_T_S5_S4_RT1_
FN:349,_ZSt34__uninitialized_move_if_noexcept_aIPN7doctest16SubcaseSignatureES2_SaIS1_EET0_T_S5_S4_RT1_
FNDA:0,_ZSt34__uninitialized_move_if_noexcept_aIPN7doctest16SubcaseSignatureES2_SaIS1_EET0_T_S5_S4_RT1_
FN:573,_ZNSt27__uninitialized_default_n_1ILb0EE18__uninit_default_nIPSt6vectorIN7doctest6StringESaIS4_EEmEET_S8_T0_
FNDA:0,_ZNSt27__uninitialized_default_n_1ILb0EE18__uninit_default_nIPSt6vectorIN7doctest6StringESaIS4_EEmEET_S8_T0_
FN:630,_ZSt25__uninitialized_default_nIPSt6vectorIN7doctest6StringESaIS2_EEmET_S6_T0_
FNDA:0,_ZSt25__uninitialized_default_nIPSt6vectorIN7doctest6StringESaIS2_EEmET_S6_T0_
FN:702,_ZSt27__uninitialized_default_n_aIPSt6vectorIN7doctest6StringESaIS2_EEmS4_ET_S6_T0_RSaIT1_E
FNDA:0,_ZSt27__uninitialized_default_n_aIPSt6vectorIN7doctest6StringESaIS2_EEmS4_ET_S6_T0_RSaIT1_E
FN:986,_ZSt19__relocate_object_aIN7doctest16SubcaseSignatureES1_SaIS1_EEvPT_PT0_RT1_
FNDA:0,_ZSt19__relocate_object_aIN7doctest16SubcaseSignatureES1_SaIS1_EEvPT_PT0_RT1_
FN:986,_ZSt19__relocate_object_aISt4fposI11__mbstate_tES2_SaIS2_EEvPT_PT0_RT1_
FNDA:0,_ZSt19__relocate_object_aISt4fposI11__mbstate_tES2_SaIS2_EEvPT_PT0_RT1_
FN:986,_ZSt19__relocate_object_aIN7doctest6StringES1_SaIS1_EEvPT_PT0_RT1_
FNDA:0,_ZSt19__relocate_object_aIN7doctest6StringES1_SaIS1_EEvPT_PT0_RT1_
FN:986,_ZSt19__relocate_object_aIN7doctest12_GLOBAL__N_113JUnitReporter17JUnitTestCaseData16JUnitTestMessageES4_SaIS4_EEvPT_PT0_RT1_
FNDA:0,_ZSt19__relocate_object_aIN7doctest12_GLOBAL__N_113JUnitReporter17JUnitTestCaseData16JUnitTestMessageES4_SaIS4_EEvPT_PT0_RT1_
FN:986,_ZSt19__relocate_object_aIN7doctest12_GLOBAL__N_113JUnitReporter17JUnitTestCaseData13JUnitTestCaseES4_SaIS4_EEvPT_PT0_RT1_
